
BellDetectorDue.elf:     file format elf32-littlearm

Sections:
Idx Name          Size      VMA       LMA       File off  Algn
  0 .text         00006624  00080000  00080000  00010000  2**3
                  CONTENTS, ALLOC, LOAD, READONLY, CODE
  1 .ARM.exidx    00000008  00086624  00086624  00016624  2**2
                  CONTENTS, ALLOC, LOAD, READONLY, DATA
  2 .relocate     00000ea0  20070000  0008662c  00020000  2**3
                  CONTENTS, ALLOC, LOAD, CODE
  3 .bss          00000288  20070ea0  000874cc  00020ea0  2**2
                  ALLOC
  4 .stack        00002000  20071128  00087754  00020ea0  2**0
                  ALLOC
  5 .ARM.attributes 00000029  00000000  00000000  00020ea0  2**0
                  CONTENTS, READONLY
  6 .comment      00000059  00000000  00000000  00020ec9  2**0
                  CONTENTS, READONLY
  7 .debug_info   0001a73f  00000000  00000000  00020f22  2**0
                  CONTENTS, READONLY, DEBUGGING
  8 .debug_abbrev 00004074  00000000  00000000  0003b661  2**0
                  CONTENTS, READONLY, DEBUGGING
  9 .debug_loc    00005024  00000000  00000000  0003f6d5  2**0
                  CONTENTS, READONLY, DEBUGGING
 10 .debug_aranges 00000a88  00000000  00000000  000446f9  2**0
                  CONTENTS, READONLY, DEBUGGING
 11 .debug_ranges 000009b0  00000000  00000000  00045181  2**0
                  CONTENTS, READONLY, DEBUGGING
 12 .debug_macro  0001b285  00000000  00000000  00045b31  2**0
                  CONTENTS, READONLY, DEBUGGING
 13 .debug_line   0001285b  00000000  00000000  00060db6  2**0
                  CONTENTS, READONLY, DEBUGGING
 14 .debug_str    00066262  00000000  00000000  00073611  2**0
                  CONTENTS, READONLY, DEBUGGING
 15 .debug_frame  00002284  00000000  00000000  000d9874  2**2
                  CONTENTS, READONLY, DEBUGGING

Disassembly of section .text:

00080000 <exception_table>:
   80000:	28 31 07 20 25 15 08 00 21 15 08 00 21 15 08 00     (1. %...!...!...
   80010:	21 15 08 00 21 15 08 00 21 15 08 00 00 00 00 00     !...!...!.......
	...
   8002c:	21 15 08 00 21 15 08 00 00 00 00 00 21 15 08 00     !...!.......!...
   8003c:	21 15 08 00 21 15 08 00 21 15 08 00 21 15 08 00     !...!...!...!...
   8004c:	21 15 08 00 21 15 08 00 21 15 08 00 21 15 08 00     !...!...!...!...
   8005c:	21 15 08 00 21 15 08 00 21 15 08 00 00 00 00 00     !...!...!.......
   8006c:	c9 13 08 00 dd 13 08 00 f1 13 08 00 05 14 08 00     ................
	...
   80084:	21 15 08 00 21 15 08 00 21 15 08 00 21 15 08 00     !...!...!...!...
   80094:	21 15 08 00 21 15 08 00 21 15 08 00 21 15 08 00     !...!...!...!...
   800a4:	00 00 00 00 21 15 08 00 21 15 08 00 21 15 08 00     ....!...!...!...
   800b4:	21 15 08 00 21 15 08 00 21 15 08 00 21 15 08 00     !...!...!...!...
   800c4:	21 15 08 00 21 15 08 00 21 15 08 00 21 15 08 00     !...!...!...!...
   800d4:	c5 01 07 20 21 15 08 00 21 15 08 00 21 15 08 00     ... !...!...!...
   800e4:	21 15 08 00 21 15 08 00 21 15 08 00 21 15 08 00     !...!...!...!...

000800f4 <__do_global_dtors_aux>:
   800f4:	b510      	push	{r4, lr}
   800f6:	4c05      	ldr	r4, [pc, #20]	; (8010c <__do_global_dtors_aux+0x18>)
   800f8:	7823      	ldrb	r3, [r4, #0]
   800fa:	b933      	cbnz	r3, 8010a <__do_global_dtors_aux+0x16>
   800fc:	4b04      	ldr	r3, [pc, #16]	; (80110 <__do_global_dtors_aux+0x1c>)
   800fe:	b113      	cbz	r3, 80106 <__do_global_dtors_aux+0x12>
   80100:	4804      	ldr	r0, [pc, #16]	; (80114 <__do_global_dtors_aux+0x20>)
   80102:	f3af 8000 	nop.w
   80106:	2301      	movs	r3, #1
   80108:	7023      	strb	r3, [r4, #0]
   8010a:	bd10      	pop	{r4, pc}
   8010c:	20070ea0 	.word	0x20070ea0
   80110:	00000000 	.word	0x00000000
   80114:	0008662c 	.word	0x0008662c

00080118 <frame_dummy>:
   80118:	4b0c      	ldr	r3, [pc, #48]	; (8014c <frame_dummy+0x34>)
   8011a:	b143      	cbz	r3, 8012e <frame_dummy+0x16>
   8011c:	480c      	ldr	r0, [pc, #48]	; (80150 <frame_dummy+0x38>)
   8011e:	b510      	push	{r4, lr}
   80120:	490c      	ldr	r1, [pc, #48]	; (80154 <frame_dummy+0x3c>)
   80122:	f3af 8000 	nop.w
   80126:	480c      	ldr	r0, [pc, #48]	; (80158 <frame_dummy+0x40>)
   80128:	6803      	ldr	r3, [r0, #0]
   8012a:	b923      	cbnz	r3, 80136 <frame_dummy+0x1e>
   8012c:	bd10      	pop	{r4, pc}
   8012e:	480a      	ldr	r0, [pc, #40]	; (80158 <frame_dummy+0x40>)
   80130:	6803      	ldr	r3, [r0, #0]
   80132:	b933      	cbnz	r3, 80142 <frame_dummy+0x2a>
   80134:	4770      	bx	lr
   80136:	4b09      	ldr	r3, [pc, #36]	; (8015c <frame_dummy+0x44>)
   80138:	2b00      	cmp	r3, #0
   8013a:	d0f7      	beq.n	8012c <frame_dummy+0x14>
   8013c:	e8bd 4010 	ldmia.w	sp!, {r4, lr}
   80140:	4718      	bx	r3
   80142:	4b06      	ldr	r3, [pc, #24]	; (8015c <frame_dummy+0x44>)
   80144:	2b00      	cmp	r3, #0
   80146:	d0f5      	beq.n	80134 <frame_dummy+0x1c>
   80148:	4718      	bx	r3
   8014a:	bf00      	nop
   8014c:	00000000 	.word	0x00000000
   80150:	0008662c 	.word	0x0008662c
   80154:	20070ea4 	.word	0x20070ea4
   80158:	0008662c 	.word	0x0008662c
   8015c:	00000000 	.word	0x00000000

00080160 <adc_init>:
 *
 * \return 0 on success.
 */
uint32_t adc_init(Adc *p_adc, const uint32_t ul_mck,
		const uint32_t ul_adc_clock, const enum adc_startup_time startup)
{
   80160:	b430      	push	{r4, r5}
	uint32_t ul_prescal;

	/*  Reset the controller. */
	p_adc->ADC_CR = ADC_CR_SWRST;
   80162:	2401      	movs	r4, #1
   80164:	6004      	str	r4, [r0, #0]

	/* Reset Mode Register. */
	p_adc->ADC_MR = 0;
   80166:	2400      	movs	r4, #0
   80168:	6044      	str	r4, [r0, #4]

	/* Reset PDC transfer. */
	p_adc->ADC_PTCR = (ADC_PTCR_RXTDIS | ADC_PTCR_TXTDIS);
   8016a:	f240 2502 	movw	r5, #514	; 0x202
   8016e:	f8c0 5120 	str.w	r5, [r0, #288]	; 0x120
	p_adc->ADC_RCR = 0;
   80172:	f8c0 4104 	str.w	r4, [r0, #260]	; 0x104
	p_adc->ADC_RNCR = 0;
   80176:	f8c0 4114 	str.w	r4, [r0, #276]	; 0x114

	ul_prescal = ul_mck / (2 * ul_adc_clock) - 1;
	p_adc->ADC_MR |= ADC_MR_PRESCAL(ul_prescal) | startup;
   8017a:	6845      	ldr	r5, [r0, #4]
	ul_prescal = ul_mck / (2 * ul_adc_clock) - 1;
   8017c:	0052      	lsls	r2, r2, #1
   8017e:	fbb1 f2f2 	udiv	r2, r1, r2
   80182:	3a01      	subs	r2, #1
	p_adc->ADC_MR |= ADC_MR_PRESCAL(ul_prescal) | startup;
   80184:	0212      	lsls	r2, r2, #8
   80186:	b292      	uxth	r2, r2
   80188:	432b      	orrs	r3, r5
   8018a:	431a      	orrs	r2, r3
   8018c:	6042      	str	r2, [r0, #4]
	return 0;
}
   8018e:	4620      	mov	r0, r4
   80190:	bc30      	pop	{r4, r5}
   80192:	4770      	bx	lr

00080194 <adc_set_resolution>:
		p_adc->ADC_MR &= ~ADC_MR_LOWRES;
		p_adc->ADC_EMR |= resolution;
		break;
	}
#else
	p_adc->ADC_MR &= ~ADC_MR_LOWRES;
   80194:	6843      	ldr	r3, [r0, #4]
   80196:	f023 0310 	bic.w	r3, r3, #16
   8019a:	6043      	str	r3, [r0, #4]
	p_adc->ADC_MR |= resolution;
   8019c:	6843      	ldr	r3, [r0, #4]
   8019e:	4319      	orrs	r1, r3
   801a0:	6041      	str	r1, [r0, #4]
   801a2:	4770      	bx	lr

000801a4 <adc_configure_trigger>:
 *
 */
void adc_configure_trigger(Adc *p_adc, const enum adc_trigger_t trigger,
		uint8_t uc_freerun)
{
	p_adc->ADC_MR |= trigger | ((uc_freerun << 7) & ADC_MR_FREERUN);
   801a4:	6843      	ldr	r3, [r0, #4]
   801a6:	01d2      	lsls	r2, r2, #7
   801a8:	b2d2      	uxtb	r2, r2
   801aa:	4319      	orrs	r1, r3
   801ac:	430a      	orrs	r2, r1
   801ae:	6042      	str	r2, [r0, #4]
   801b0:	4770      	bx	lr

000801b2 <adc_configure_timing>:
 * \param uc_settling Analog settling time = (uc_settling + 1) / ADC clock.
 * \param uc_transfer Data transfer time = (uc_transfer * 2 + 3) / ADC clock.
 */
void adc_configure_timing(Adc *p_adc, const uint8_t uc_tracking,
		const enum adc_settling_time_t settling,const uint8_t uc_transfer)
{
   801b2:	b410      	push	{r4}
	p_adc->ADC_MR |= ADC_MR_TRANSFER(uc_transfer)
   801b4:	6844      	ldr	r4, [r0, #4]
			| settling | ADC_MR_TRACKTIM(uc_tracking);
   801b6:	0609      	lsls	r1, r1, #24
   801b8:	f001 6170 	and.w	r1, r1, #251658240	; 0xf000000
	p_adc->ADC_MR |= ADC_MR_TRANSFER(uc_transfer)
   801bc:	4321      	orrs	r1, r4
   801be:	430a      	orrs	r2, r1
   801c0:	0719      	lsls	r1, r3, #28
   801c2:	f001 5140 	and.w	r1, r1, #805306368	; 0x30000000
   801c6:	4311      	orrs	r1, r2
   801c8:	6041      	str	r1, [r0, #4]
}
   801ca:	bc10      	pop	{r4}
   801cc:	4770      	bx	lr

000801ce <adc_start>:
 * \param p_adc Pointer to an ADC instance.
 */

void adc_start(Adc *p_adc)
{
	p_adc->ADC_CR = ADC_CR_START;
   801ce:	2302      	movs	r3, #2
   801d0:	6003      	str	r3, [r0, #0]
   801d2:	4770      	bx	lr

000801d4 <adc_enable_channel>:
 * \param p_adc Pointer to an ADC instance.
 * \param adc_ch ADC channel number.
 */
void adc_enable_channel(Adc *p_adc, const enum adc_channel_num_t adc_ch)
{
	p_adc->ADC_CHER = 1 << adc_ch;
   801d4:	2301      	movs	r3, #1
   801d6:	fa03 f101 	lsl.w	r1, r3, r1
   801da:	6101      	str	r1, [r0, #16]
   801dc:	4770      	bx	lr

000801de <adc_disable_all_channel>:
 * \param p_adc Pointer to an ADC instance.
 */
void adc_disable_all_channel(Adc *p_adc)
{
#if SAM3S || SAM4S || SAM3N || SAM3XA
	p_adc->ADC_CHDR = 0xFFFF;
   801de:	f64f 73ff 	movw	r3, #65535	; 0xffff
   801e2:	6143      	str	r3, [r0, #20]
   801e4:	4770      	bx	lr

000801e6 <adc_enable_interrupt>:
 * \param p_adc Pointer to an ADC instance.
 * \param ul_source Interrupts to be enabled.
 */
void adc_enable_interrupt(Adc *p_adc, const uint32_t ul_source)
{
	p_adc->ADC_IER = ul_source;
   801e6:	6241      	str	r1, [r0, #36]	; 0x24
   801e8:	4770      	bx	lr

000801ea <adc_disable_interrupt>:
 * \param p_adc Pointer to an ADC instance.
 * \param ul_source Interrupts to be disabled.
 */
void adc_disable_interrupt(Adc *p_adc, const uint32_t ul_source)
{
	p_adc->ADC_IDR = ul_source;
   801ea:	6281      	str	r1, [r0, #40]	; 0x28
   801ec:	4770      	bx	lr

000801ee <efc_get_wait_state>:
 *
 * \return The number of wait states in cycle (no shift).
 */
uint32_t efc_get_wait_state(Efc *p_efc)
{
	return ((p_efc->EEFC_FMR & EEFC_FMR_FWS_Msk) >> EEFC_FMR_FWS_Pos);
   801ee:	6800      	ldr	r0, [r0, #0]
}
   801f0:	f3c0 2003 	ubfx	r0, r0, #8, #4
   801f4:	4770      	bx	lr
	...

000801f8 <efc_init>:
{
   801f8:	b508      	push	{r3, lr}
	efc_write_fmr(p_efc, ul_access_mode | EEFC_FMR_FWS(ul_fws));
   801fa:	0212      	lsls	r2, r2, #8
   801fc:	f402 6270 	and.w	r2, r2, #3840	; 0xf00
   80200:	4311      	orrs	r1, r2
   80202:	4b02      	ldr	r3, [pc, #8]	; (8020c <efc_init+0x14>)
   80204:	4798      	blx	r3
}
   80206:	2000      	movs	r0, #0
   80208:	bd08      	pop	{r3, pc}
   8020a:	bf00      	nop
   8020c:	20070079 	.word	0x20070079

00080210 <efc_set_wait_state>:
{
   80210:	b508      	push	{r3, lr}
	uint32_t ul_fmr = p_efc->EEFC_FMR & (~EEFC_FMR_FWS_Msk);
   80212:	6803      	ldr	r3, [r0, #0]
	efc_write_fmr(p_efc, ul_fmr | EEFC_FMR_FWS(ul_fws));
   80214:	0209      	lsls	r1, r1, #8
   80216:	f401 6170 	and.w	r1, r1, #3840	; 0xf00
	uint32_t ul_fmr = p_efc->EEFC_FMR & (~EEFC_FMR_FWS_Msk);
   8021a:	f423 6370 	bic.w	r3, r3, #3840	; 0xf00
	efc_write_fmr(p_efc, ul_fmr | EEFC_FMR_FWS(ul_fws));
   8021e:	4319      	orrs	r1, r3
   80220:	4b01      	ldr	r3, [pc, #4]	; (80228 <efc_set_wait_state+0x18>)
   80222:	4798      	blx	r3
   80224:	bd08      	pop	{r3, pc}
   80226:	bf00      	nop
   80228:	20070079 	.word	0x20070079

0008022c <efc_perform_command>:
{
	uint32_t result;
	irqflags_t flags;

	/* Unique ID commands are not supported. */
	if (ul_command == EFC_FCMD_STUI || ul_command == EFC_FCMD_SPUI) {
   8022c:	f1a1 030e 	sub.w	r3, r1, #14
   80230:	2b01      	cmp	r3, #1
   80232:	d802      	bhi.n	8023a <efc_perform_command+0xe>
		return EFC_RC_NOT_SUPPORT;
   80234:	f04f 30ff 	mov.w	r0, #4294967295
   80238:	4770      	bx	lr
{
   8023a:	b510      	push	{r4, lr}
   8023c:	b082      	sub	sp, #8
 */
__attribute__( ( always_inline ) ) __STATIC_INLINE uint32_t __get_PRIMASK(void)
{
  uint32_t result;

  __ASM volatile ("MRS %0, primask" : "=r" (result) );
   8023e:	f3ef 8310 	mrs	r3, PRIMASK
static volatile uint32_t cpu_irq_critical_section_counter;
static volatile bool     cpu_irq_prev_interrupt_state;

static inline irqflags_t cpu_irq_save(void)
{
	volatile irqflags_t flags = cpu_irq_is_enabled();
   80242:	fab3 f383 	clz	r3, r3
   80246:	095b      	lsrs	r3, r3, #5
   80248:	9301      	str	r3, [sp, #4]
  __ASM volatile ("cpsid i" : : : "memory");
   8024a:	b672      	cpsid	i
    This function ensures the apparent order of the explicit memory operations before
    and after the instruction, without ensuring their completion.
 */
__attribute__( ( always_inline ) ) __STATIC_INLINE void __DMB(void)
{
  __ASM volatile ("dmb");
   8024c:	f3bf 8f5f 	dmb	sy
	cpu_irq_disable();
   80250:	2400      	movs	r4, #0
   80252:	4b0b      	ldr	r3, [pc, #44]	; (80280 <efc_perform_command+0x54>)
   80254:	701c      	strb	r4, [r3, #0]
	return flags;
   80256:	9c01      	ldr	r4, [sp, #4]
	}

	flags = cpu_irq_save();
	/* Use RAM Function. */
	result = efc_perform_fcr(p_efc,
			EEFC_FCR_FKEY_PASSWD | EEFC_FCR_FARG(ul_argument) |
   80258:	0212      	lsls	r2, r2, #8
   8025a:	f022 427f 	bic.w	r2, r2, #4278190080	; 0xff000000
   8025e:	f022 02ff 	bic.w	r2, r2, #255	; 0xff
	result = efc_perform_fcr(p_efc,
   80262:	f042 42b4 	orr.w	r2, r2, #1509949440	; 0x5a000000
			EEFC_FCR_FCMD(ul_command));
   80266:	b2c9      	uxtb	r1, r1
	result = efc_perform_fcr(p_efc,
   80268:	4311      	orrs	r1, r2
   8026a:	4b06      	ldr	r3, [pc, #24]	; (80284 <efc_perform_command+0x58>)
   8026c:	4798      	blx	r3
	return (flags);
}

static inline void cpu_irq_restore(irqflags_t flags)
{
	if (cpu_irq_is_enabled_flags(flags))
   8026e:	b12c      	cbz	r4, 8027c <efc_perform_command+0x50>
		cpu_irq_enable();
   80270:	2201      	movs	r2, #1
   80272:	4b03      	ldr	r3, [pc, #12]	; (80280 <efc_perform_command+0x54>)
   80274:	701a      	strb	r2, [r3, #0]
   80276:	f3bf 8f5f 	dmb	sy
  __ASM volatile ("cpsie i" : : : "memory");
   8027a:	b662      	cpsie	i
	cpu_irq_restore(flags);
	return result;
}
   8027c:	b002      	add	sp, #8
   8027e:	bd10      	pop	{r4, pc}
   80280:	200704e0 	.word	0x200704e0
   80284:	2007007d 	.word	0x2007007d

00080288 <FIFO_Init>:

int32_t AlphaQ,BetaQ,BetaSQrtQ,BetaMul2Q,BetaSQRTInvQ;

void FIFO_Init(XFifo* Fifo1 )
{
	Fifo1->WriteInx = 0;
   80288:	2300      	movs	r3, #0
   8028a:	6003      	str	r3, [r0, #0]
	Fifo1->ReadInx = 0;
   8028c:	6043      	str	r3, [r0, #4]
	Fifo1->Data[0] = 0;
   8028e:	60c3      	str	r3, [r0, #12]
	Fifo1->Data[1] = 0;
   80290:	6103      	str	r3, [r0, #16]
	Fifo1->Data[2] = 0;
   80292:	6143      	str	r3, [r0, #20]
	Fifo1->FilterY[0] = 0;
   80294:	6183      	str	r3, [r0, #24]
	Fifo1->FilterY[1] = 0;
   80296:	61c3      	str	r3, [r0, #28]
	Fifo1->FilterY[2] = 0;
   80298:	6203      	str	r3, [r0, #32]
	Fifo1->WriteIndxY = 0;
   8029a:	6083      	str	r3, [r0, #8]
	
	Fifo1->AlphaQ = (int32_t)(ALPHA * BETA_MUL2_Q);
   8029c:	6283      	str	r3, [r0, #40]	; 0x28
	Fifo1->BetaQ =  (int32_t)(BETA * BETA_MUL2_Q);
   8029e:	2369      	movs	r3, #105	; 0x69
   802a0:	62c3      	str	r3, [r0, #44]	; 0x2c
	Fifo1->BetaSQrtQ = (int32_t)(BETA_SQRT * BETA_MUL2_Q);
   802a2:	f240 23b6 	movw	r3, #694	; 0x2b6
   802a6:	6303      	str	r3, [r0, #48]	; 0x30
	Fifo1->BetaMul2Q =  (int32_t)(BETA_MUL2 * BETA_MUL2_Q);
   802a8:	23d2      	movs	r3, #210	; 0xd2
   802aa:	6343      	str	r3, [r0, #52]	; 0x34
	Fifo1->BetaSQRTInvQ =  (int32_t)(BETA_SQRT_INV * BETA_SQRT_INV_Q);
   802ac:	23bd      	movs	r3, #189	; 0xbd
   802ae:	6383      	str	r3, [r0, #56]	; 0x38
   802b0:	4770      	bx	lr
	...

000802b4 <FIFO2_Init>:

// Fifo2p1 located at 0x20072de0 after malloc - stack section end in 20072dd8 (8 bytes dif)
// Fifo2p2 located at 0x20077438 after malloc
// len = T (integration time)
void FIFO2_Init(XFifo2* Fifo2, int len)
{
   802b4:	b538      	push	{r3, r4, r5, lr}
   802b6:	4604      	mov	r4, r0
   802b8:	460d      	mov	r5, r1
	int i;
	Fifo2->OldestInd = 0;
   802ba:	2300      	movs	r3, #0
   802bc:	6003      	str	r3, [r0, #0]
	Fifo2->len = len;
   802be:	60c1      	str	r1, [r0, #12]
	Fifo2->Wave = (uint32_t*)malloc(sizeof(uint32_t)*len);
   802c0:	0088      	lsls	r0, r1, #2
   802c2:	4b08      	ldr	r3, [pc, #32]	; (802e4 <FIFO2_Init+0x30>)
   802c4:	4798      	blx	r3
   802c6:	6060      	str	r0, [r4, #4]
	
	for (i=0;i<len;i++)
   802c8:	2d00      	cmp	r5, #0
   802ca:	dd07      	ble.n	802dc <FIFO2_Init+0x28>
   802cc:	2300      	movs	r3, #0
	{
		Fifo2->Wave[i] = 0;	
   802ce:	4619      	mov	r1, r3
   802d0:	6862      	ldr	r2, [r4, #4]
   802d2:	f842 1023 	str.w	r1, [r2, r3, lsl #2]
	for (i=0;i<len;i++)
   802d6:	3301      	adds	r3, #1
   802d8:	429d      	cmp	r5, r3
   802da:	d1f9      	bne.n	802d0 <FIFO2_Init+0x1c>
	}
	Fifo2->Energy = 0;
   802dc:	2300      	movs	r3, #0
   802de:	60a3      	str	r3, [r4, #8]
   802e0:	bd38      	pop	{r3, r4, r5, pc}
   802e2:	bf00      	nop
   802e4:	00081a55 	.word	0x00081a55

000802e8 <FIFO2_Insert>:
Insert new digital wave strength
Input: the Fifo2 , inp=new strength
Ret : the Energy of total vector upon T
*/
uint32_t FIFO2_Insert(XFifo2* Fifo2, uint32_t inp)
{
   802e8:	b430      	push	{r4, r5}
	Fifo2->Energy += (inp*inp - Fifo2->Wave[Fifo2->OldestInd]*Fifo2->Wave[Fifo2->OldestInd]);	
   802ea:	6805      	ldr	r5, [r0, #0]
   802ec:	6844      	ldr	r4, [r0, #4]
   802ee:	f854 3025 	ldr.w	r3, [r4, r5, lsl #2]
   802f2:	6882      	ldr	r2, [r0, #8]
   802f4:	fb01 2201 	mla	r2, r1, r1, r2
   802f8:	fb03 2313 	mls	r3, r3, r3, r2
   802fc:	6083      	str	r3, [r0, #8]
	Fifo2->Wave[Fifo2->OldestInd] = inp;
   802fe:	f844 1025 	str.w	r1, [r4, r5, lsl #2]
	if(Fifo2->OldestInd == (Fifo2->len -1))	
   80302:	6803      	ldr	r3, [r0, #0]
   80304:	68c2      	ldr	r2, [r0, #12]
   80306:	3a01      	subs	r2, #1
   80308:	4293      	cmp	r3, r2
		Fifo2->OldestInd = 0;	
   8030a:	bf0c      	ite	eq
   8030c:	2300      	moveq	r3, #0
	else
		Fifo2->OldestInd++;
   8030e:	3301      	addne	r3, #1
   80310:	6003      	str	r3, [r0, #0]
	return Fifo2->Energy;
}
   80312:	6880      	ldr	r0, [r0, #8]
   80314:	bc30      	pop	{r4, r5}
   80316:	4770      	bx	lr

00080318 <FIFO2_Reset>:

void FIFO2_Reset(XFifo2* Fifo2)
{
	int i;
	Fifo2->OldestInd = 0;	
   80318:	2300      	movs	r3, #0
   8031a:	6003      	str	r3, [r0, #0]
	
	for (i=0;i<Fifo2->len;i++)
   8031c:	68c3      	ldr	r3, [r0, #12]
   8031e:	2b00      	cmp	r3, #0
   80320:	dd08      	ble.n	80334 <FIFO2_Reset+0x1c>
   80322:	2300      	movs	r3, #0
	{
		Fifo2->Wave[i] = 0;
   80324:	4619      	mov	r1, r3
   80326:	6842      	ldr	r2, [r0, #4]
   80328:	f842 1023 	str.w	r1, [r2, r3, lsl #2]
	for (i=0;i<Fifo2->len;i++)
   8032c:	3301      	adds	r3, #1
   8032e:	68c2      	ldr	r2, [r0, #12]
   80330:	429a      	cmp	r2, r3
   80332:	dcf8      	bgt.n	80326 <FIFO2_Reset+0xe>
	}
	Fifo2->Energy = 0;
   80334:	2300      	movs	r3, #0
   80336:	6083      	str	r3, [r0, #8]
   80338:	4770      	bx	lr
	...

0008033c <DAC3X8E_Init>:
#include "DAC3X8E.h"
#include "sam3x8e.h"
#include "pmc.h"

void DAC3X8E_Init()
{
   8033c:	b508      	push	{r3, lr}
	uint32_t mr;
	pmc_enable_periph_clk(ID_DACC);
   8033e:	2026      	movs	r0, #38	; 0x26
   80340:	4b15      	ldr	r3, [pc, #84]	; (80398 <DAC3X8E_Init+0x5c>)
   80342:	4798      	blx	r3
	
	//disable write protect
	DACC->DACC_CDR = 0;
   80344:	4b15      	ldr	r3, [pc, #84]	; (8039c <DAC3X8E_Init+0x60>)
   80346:	2200      	movs	r2, #0
   80348:	621a      	str	r2, [r3, #32]
	// Set trigger mode 1
	mr = DACC->DACC_MR & (~(DACC_MR_TRGSEL_Msk));
   8034a:	685a      	ldr	r2, [r3, #4]
   8034c:	f022 020e 	bic.w	r2, r2, #14
	DACC->DACC_MR = mr | DACC_MR_TRGEN_EN | DACC_MR_TRGSEL(1);
   80350:	f042 0203 	orr.w	r2, r2, #3
   80354:	605a      	str	r2, [r3, #4]
	
	// Set transfer mode 0 - half word mode
	DACC->DACC_MR &= (~DACC_MR_WORD_WORD);
   80356:	685a      	ldr	r2, [r3, #4]
   80358:	f022 0210 	bic.w	r2, r2, #16
   8035c:	605a      	str	r2, [r3, #4]
	//Set flexible mode
	DACC->DACC_MR |= DACC_MR_TAG;
   8035e:	685a      	ldr	r2, [r3, #4]
   80360:	f442 1280 	orr.w	r2, r2, #1048576	; 0x100000
   80364:	605a      	str	r2, [r3, #4]
	// set timing
	mr = DACC->DACC_MR & (~(DACC_MR_REFRESH_Msk | DACC_MR_STARTUP_Msk));
   80366:	6859      	ldr	r1, [r3, #4]
	mr |= DACC_MR_REFRESH(1);
	mr &= ~DACC_MR_MAXS;
	mr |= (DACC_MR_STARTUP_Msk & ((3) << DACC_MR_STARTUP_Pos));
   80368:	4a0d      	ldr	r2, [pc, #52]	; (803a0 <DAC3X8E_Init+0x64>)
   8036a:	400a      	ands	r2, r1
   8036c:	f042 7240 	orr.w	r2, r2, #50331648	; 0x3000000
   80370:	f442 7280 	orr.w	r2, r2, #256	; 0x100
	DACC->DACC_MR = mr;
   80374:	605a      	str	r2, [r3, #4]
	//set power save off
	DACC->DACC_MR &= (~DACC_MR_SLEEP);
   80376:	685a      	ldr	r2, [r3, #4]
   80378:	f022 0220 	bic.w	r2, r2, #32
   8037c:	605a      	str	r2, [r3, #4]
	DACC->DACC_MR |= DACC_MR_FASTWKUP;
   8037e:	685a      	ldr	r2, [r3, #4]
   80380:	f042 0240 	orr.w	r2, r2, #64	; 0x40
   80384:	605a      	str	r2, [r3, #4]
	//disable INT
	DACC->DACC_IDR = 0xf;
   80386:	220f      	movs	r2, #15
   80388:	629a      	str	r2, [r3, #40]	; 0x28
	//enable ch0 and ch1
	DACC->DACC_CHER = DACC_CHER_CH0 << 0;
   8038a:	2201      	movs	r2, #1
   8038c:	611a      	str	r2, [r3, #16]
	DACC->DACC_CHER = DACC_CHER_CH0 << 1;
   8038e:	2102      	movs	r1, #2
   80390:	6119      	str	r1, [r3, #16]
	//enable write protect
	DACC->DACC_CDR = 1;
   80392:	621a      	str	r2, [r3, #32]
   80394:	bd08      	pop	{r3, pc}
   80396:	bf00      	nop
   80398:	00081501 	.word	0x00081501
   8039c:	400c8000 	.word	0x400c8000
   803a0:	c0df00ff 	.word	0xc0df00ff

000803a4 <DAC3X8E_write>:
	
	
}
void DAC3X8E_write(uint32_t ul_data)
{
	DACC->DACC_CDR = ul_data;
   803a4:	4b01      	ldr	r3, [pc, #4]	; (803ac <DAC3X8E_write+0x8>)
   803a6:	6218      	str	r0, [r3, #32]
   803a8:	4770      	bx	lr
   803aa:	bf00      	nop
   803ac:	400c8000 	.word	0x400c8000

000803b0 <translate_address>:
 * \param pus_page The first page accessed.
 * \param pus_offset Byte offset in the first page.
 */
static void translate_address(Efc **pp_efc, uint32_t ul_addr,
		uint16_t *pus_page, uint16_t *pus_offset)
{
   803b0:	b430      	push	{r4, r5}
	Efc *p_efc;
	uint16_t us_page;
	uint16_t us_offset;

	if (ul_addr >= IFLASH1_ADDR) {
   803b2:	f5b1 2f40 	cmp.w	r1, #786432	; 0xc0000
   803b6:	d30d      	bcc.n	803d4 <translate_address+0x24>
		p_efc = EFC1;
		us_page = (ul_addr - IFLASH1_ADDR) / IFLASH1_PAGE_SIZE;
   803b8:	f5a1 2440 	sub.w	r4, r1, #786432	; 0xc0000
   803bc:	f3c4 240f 	ubfx	r4, r4, #8, #16
		us_offset = (ul_addr - IFLASH1_ADDR) % IFLASH1_PAGE_SIZE;
   803c0:	b2c9      	uxtb	r1, r1
		p_efc = EFC1;
   803c2:	4d08      	ldr	r5, [pc, #32]	; (803e4 <translate_address+0x34>)
		us_page = (ul_addr - IFLASH0_ADDR) / IFLASH0_PAGE_SIZE;
		us_offset = (ul_addr - IFLASH0_ADDR) % IFLASH0_PAGE_SIZE;
	}

	/* Store values */
	if (pp_efc) {
   803c4:	b100      	cbz	r0, 803c8 <translate_address+0x18>
		*pp_efc = p_efc;
   803c6:	6005      	str	r5, [r0, #0]
	}

	if (pus_page) {
   803c8:	b102      	cbz	r2, 803cc <translate_address+0x1c>
		*pus_page = us_page;
   803ca:	8014      	strh	r4, [r2, #0]
	}

	if (pus_offset) {
   803cc:	b103      	cbz	r3, 803d0 <translate_address+0x20>
		*pus_offset = us_offset;
   803ce:	8019      	strh	r1, [r3, #0]
	}
}
   803d0:	bc30      	pop	{r4, r5}
   803d2:	4770      	bx	lr
		us_page = (ul_addr - IFLASH0_ADDR) / IFLASH0_PAGE_SIZE;
   803d4:	f5a1 2400 	sub.w	r4, r1, #524288	; 0x80000
   803d8:	f3c4 240f 	ubfx	r4, r4, #8, #16
		us_offset = (ul_addr - IFLASH0_ADDR) % IFLASH0_PAGE_SIZE;
   803dc:	b2c9      	uxtb	r1, r1
		p_efc = EFC0;
   803de:	4d02      	ldr	r5, [pc, #8]	; (803e8 <translate_address+0x38>)
   803e0:	e7f0      	b.n	803c4 <translate_address+0x14>
   803e2:	bf00      	nop
   803e4:	400e0c00 	.word	0x400e0c00
   803e8:	400e0a00 	.word	0x400e0a00

000803ec <FLASH_Init>:



uint32_t FLASH_Init()
{
   803ec:	b508      	push	{r3, lr}
	return efc_init(EFC1,EEFC_FMR_FAM,6);
   803ee:	2206      	movs	r2, #6
   803f0:	f04f 7180 	mov.w	r1, #16777216	; 0x1000000
   803f4:	4801      	ldr	r0, [pc, #4]	; (803fc <FLASH_Init+0x10>)
   803f6:	4b02      	ldr	r3, [pc, #8]	; (80400 <FLASH_Init+0x14>)
   803f8:	4798      	blx	r3
}
   803fa:	bd08      	pop	{r3, pc}
   803fc:	400e0c00 	.word	0x400e0c00
   80400:	000801f9 	.word	0x000801f9

00080404 <ReadCalibFromFlash>:

Byte* ReadCalibFromFlash()
{
	return (FLASH_START+4);
}
   80404:	4800      	ldr	r0, [pc, #0]	; (80408 <ReadCalibFromFlash+0x4>)
   80406:	4770      	bx	lr
   80408:	000c0004 	.word	0x000c0004

0008040c <flash_lock>:
 *
 * \return 0 if successful, otherwise returns an error code.
 */
uint32_t flash_lock(uint32_t ul_start, uint32_t ul_end,
		uint32_t *pul_actual_start, uint32_t *pul_actual_end)
{
   8040c:	b530      	push	{r4, r5, lr}
   8040e:	b083      	sub	sp, #12
	ul_actual_start = ul_start - (ul_start % IFLASH_LOCK_REGION_SIZE);
   80410:	f420 507f 	bic.w	r0, r0, #16320	; 0x3fc0
   80414:	f020 003f 	bic.w	r0, r0, #63	; 0x3f
	ul_actual_end = ul_end - (ul_end % IFLASH_LOCK_REGION_SIZE) +
   80418:	ea6f 3491 	mvn.w	r4, r1, lsr #14
   8041c:	ea6f 3484 	mvn.w	r4, r4, lsl #14
			IFLASH_LOCK_REGION_SIZE / IFLASH_PAGE_SIZE;

	/* Compute actual lock range and store it */
	compute_lock_range(ul_start, ul_end, &ul_actual_start, &ul_actual_end);

	if (pul_actual_start != NULL) {
   80420:	b102      	cbz	r2, 80424 <flash_lock+0x18>
		*pul_actual_start = ul_actual_start;
   80422:	6010      	str	r0, [r2, #0]
	}

	if (pul_actual_end != NULL) {
   80424:	b103      	cbz	r3, 80428 <flash_lock+0x1c>
		*pul_actual_end = ul_actual_end;
   80426:	601c      	str	r4, [r3, #0]
	}

	/* Compute page numbers */
	translate_address(&p_efc, ul_actual_start, &us_start_page, 0);
   80428:	2300      	movs	r3, #0
   8042a:	f10d 0202 	add.w	r2, sp, #2
   8042e:	4601      	mov	r1, r0
   80430:	a801      	add	r0, sp, #4
   80432:	4d11      	ldr	r5, [pc, #68]	; (80478 <flash_lock+0x6c>)
   80434:	47a8      	blx	r5
	translate_address(0, ul_actual_end, &us_end_page, 0);
   80436:	2300      	movs	r3, #0
   80438:	466a      	mov	r2, sp
   8043a:	4621      	mov	r1, r4
   8043c:	4618      	mov	r0, r3
   8043e:	47a8      	blx	r5

	/* Lock all pages */
	while (us_start_page < us_end_page) {
   80440:	f8bd 2002 	ldrh.w	r2, [sp, #2]
   80444:	f8bd 3000 	ldrh.w	r3, [sp]
   80448:	4293      	cmp	r3, r2
   8044a:	d913      	bls.n	80474 <flash_lock+0x68>
		ul_error = efc_perform_command(p_efc, EFC_FCMD_SLB, us_start_page);
   8044c:	2508      	movs	r5, #8
   8044e:	4c0b      	ldr	r4, [pc, #44]	; (8047c <flash_lock+0x70>)
   80450:	4629      	mov	r1, r5
   80452:	9801      	ldr	r0, [sp, #4]
   80454:	47a0      	blx	r4

		if (ul_error) {
   80456:	4601      	mov	r1, r0
   80458:	b948      	cbnz	r0, 8046e <flash_lock+0x62>
			return ul_error;
		}
		us_start_page += us_num_pages_in_region;
   8045a:	f8bd 2002 	ldrh.w	r2, [sp, #2]
   8045e:	3240      	adds	r2, #64	; 0x40
   80460:	b292      	uxth	r2, r2
   80462:	f8ad 2002 	strh.w	r2, [sp, #2]
	while (us_start_page < us_end_page) {
   80466:	f8bd 3000 	ldrh.w	r3, [sp]
   8046a:	4293      	cmp	r3, r2
   8046c:	d8f0      	bhi.n	80450 <flash_lock+0x44>
	}

	return FLASH_RC_OK;
}
   8046e:	4608      	mov	r0, r1
   80470:	b003      	add	sp, #12
   80472:	bd30      	pop	{r4, r5, pc}
	return FLASH_RC_OK;
   80474:	2100      	movs	r1, #0
   80476:	e7fa      	b.n	8046e <flash_lock+0x62>
   80478:	000803b1 	.word	0x000803b1
   8047c:	0008022d 	.word	0x0008022d

00080480 <flash_unlock>:
 *
 * \return 0 if successful, otherwise returns an error code.
 */
uint32_t flash_unlock(uint32_t ul_start, uint32_t ul_end,
		uint32_t *pul_actual_start, uint32_t *pul_actual_end)
{
   80480:	b530      	push	{r4, r5, lr}
   80482:	b083      	sub	sp, #12
	ul_actual_start = ul_start - (ul_start % IFLASH_LOCK_REGION_SIZE);
   80484:	f420 507f 	bic.w	r0, r0, #16320	; 0x3fc0
   80488:	f020 003f 	bic.w	r0, r0, #63	; 0x3f
	ul_actual_end = ul_end - (ul_end % IFLASH_LOCK_REGION_SIZE) +
   8048c:	ea6f 3491 	mvn.w	r4, r1, lsr #14
   80490:	ea6f 3484 	mvn.w	r4, r4, lsl #14
	uint16_t us_num_pages_in_region =
			IFLASH_LOCK_REGION_SIZE / IFLASH_PAGE_SIZE;

	/* Compute actual unlock range and store it */
	compute_lock_range(ul_start, ul_end, &ul_actual_start, &ul_actual_end);
	if (pul_actual_start != NULL) {
   80494:	b102      	cbz	r2, 80498 <flash_unlock+0x18>
		*pul_actual_start = ul_actual_start;
   80496:	6010      	str	r0, [r2, #0]
	}
	if (pul_actual_end != NULL) {
   80498:	b103      	cbz	r3, 8049c <flash_unlock+0x1c>
		*pul_actual_end = ul_actual_end;
   8049a:	601c      	str	r4, [r3, #0]
	}

	/* Compute page numbers */
	translate_address(&p_efc, ul_actual_start, &us_start_page, 0);
   8049c:	2300      	movs	r3, #0
   8049e:	f10d 0202 	add.w	r2, sp, #2
   804a2:	4601      	mov	r1, r0
   804a4:	a801      	add	r0, sp, #4
   804a6:	4d11      	ldr	r5, [pc, #68]	; (804ec <flash_unlock+0x6c>)
   804a8:	47a8      	blx	r5
	translate_address(0, ul_actual_end, &us_end_page, 0);
   804aa:	2300      	movs	r3, #0
   804ac:	466a      	mov	r2, sp
   804ae:	4621      	mov	r1, r4
   804b0:	4618      	mov	r0, r3
   804b2:	47a8      	blx	r5

	/* Unlock all pages */
	while (us_start_page < us_end_page) {
   804b4:	f8bd 2002 	ldrh.w	r2, [sp, #2]
   804b8:	f8bd 3000 	ldrh.w	r3, [sp]
   804bc:	4293      	cmp	r3, r2
   804be:	d913      	bls.n	804e8 <flash_unlock+0x68>
		ul_error = efc_perform_command(p_efc, EFC_FCMD_CLB,
   804c0:	2509      	movs	r5, #9
   804c2:	4c0b      	ldr	r4, [pc, #44]	; (804f0 <flash_unlock+0x70>)
   804c4:	4629      	mov	r1, r5
   804c6:	9801      	ldr	r0, [sp, #4]
   804c8:	47a0      	blx	r4
				us_start_page);
		if (ul_error) {
   804ca:	4601      	mov	r1, r0
   804cc:	b948      	cbnz	r0, 804e2 <flash_unlock+0x62>
			return ul_error;
		}
		us_start_page += us_num_pages_in_region;
   804ce:	f8bd 2002 	ldrh.w	r2, [sp, #2]
   804d2:	3240      	adds	r2, #64	; 0x40
   804d4:	b292      	uxth	r2, r2
   804d6:	f8ad 2002 	strh.w	r2, [sp, #2]
	while (us_start_page < us_end_page) {
   804da:	f8bd 3000 	ldrh.w	r3, [sp]
   804de:	4293      	cmp	r3, r2
   804e0:	d8f0      	bhi.n	804c4 <flash_unlock+0x44>
	}

	return FLASH_RC_OK;
}
   804e2:	4608      	mov	r0, r1
   804e4:	b003      	add	sp, #12
   804e6:	bd30      	pop	{r4, r5, pc}
	return FLASH_RC_OK;
   804e8:	2100      	movs	r1, #0
   804ea:	e7fa      	b.n	804e2 <flash_unlock+0x62>
   804ec:	000803b1 	.word	0x000803b1
   804f0:	0008022d 	.word	0x0008022d

000804f4 <flash_write>:
 *
 * \return 0 if successful, otherwise returns an error code.
 */
uint32_t flash_write(uint32_t ul_address, const void *p_buffer,
		uint32_t ul_size, uint32_t ul_erase_flag)
{
   804f4:	e92d 4ff0 	stmdb	sp!, {r4, r5, r6, r7, r8, r9, sl, fp, lr}
   804f8:	b087      	sub	sp, #28
   804fa:	9101      	str	r1, [sp, #4]
   804fc:	4692      	mov	sl, r2
   804fe:	9302      	str	r3, [sp, #8]
	uint32_t ul_error;
	uint32_t ul_idx;
	uint32_t *p_aligned_dest;
	uint8_t *puc_page_buffer = (uint8_t *) gs_ul_page_buffer;

	translate_address(&p_efc, ul_address, &us_page, &us_offset);
   80500:	ab04      	add	r3, sp, #16
   80502:	f10d 0212 	add.w	r2, sp, #18
   80506:	4601      	mov	r1, r0
   80508:	a805      	add	r0, sp, #20
   8050a:	4c31      	ldr	r4, [pc, #196]	; (805d0 <flash_write+0xdc>)
   8050c:	47a0      	blx	r4

	/* According to the errata, set the wait state value to 6. */
	ul_fws_temp = efc_get_wait_state(p_efc);
   8050e:	9805      	ldr	r0, [sp, #20]
   80510:	4b30      	ldr	r3, [pc, #192]	; (805d4 <flash_write+0xe0>)
   80512:	4798      	blx	r3
   80514:	9003      	str	r0, [sp, #12]
	efc_set_wait_state(p_efc, 6);
   80516:	2106      	movs	r1, #6
   80518:	9805      	ldr	r0, [sp, #20]
   8051a:	4b2f      	ldr	r3, [pc, #188]	; (805d8 <flash_write+0xe4>)
   8051c:	4798      	blx	r3

	/* Write all pages */
	while (ul_size > 0) {
   8051e:	f1ba 0f00 	cmp.w	sl, #0
   80522:	d04d      	beq.n	805c0 <flash_write+0xcc>
				ul_size);
		compute_address(p_efc, us_page, 0, &ul_page_addr);
		us_padding = IFLASH_PAGE_SIZE - us_offset - writeSize;

		/* Pre-buffer data */
		memcpy(puc_page_buffer, (void *)ul_page_addr, us_offset);
   80524:	f8df 90b8 	ldr.w	r9, [pc, #184]	; 805e0 <flash_write+0xec>
   80528:	f8df b0b8 	ldr.w	fp, [pc, #184]	; 805e4 <flash_write+0xf0>
   8052c:	f109 05fc 	add.w	r5, r9, #252	; 0xfc
   80530:	e015      	b.n	8055e <flash_write+0x6a>

		if (ul_erase_flag) {
			ul_error = efc_perform_command(p_efc, EFC_FCMD_EWP,
					us_page);
		} else {
			ul_error = efc_perform_command(p_efc, EFC_FCMD_WP,
   80532:	f8bd 2012 	ldrh.w	r2, [sp, #18]
   80536:	2101      	movs	r1, #1
   80538:	9805      	ldr	r0, [sp, #20]
   8053a:	4b28      	ldr	r3, [pc, #160]	; (805dc <flash_write+0xe8>)
   8053c:	4798      	blx	r3
					us_page);
		}

		if (ul_error) {
   8053e:	2800      	cmp	r0, #0
   80540:	d143      	bne.n	805ca <flash_write+0xd6>
			return ul_error;
		}

		/* Progression */
		p_buffer = (void *)((uint32_t) p_buffer + writeSize);
   80542:	9b01      	ldr	r3, [sp, #4]
   80544:	443b      	add	r3, r7
   80546:	9301      	str	r3, [sp, #4]
		ul_size -= writeSize;
		us_page++;
   80548:	f8bd 3012 	ldrh.w	r3, [sp, #18]
   8054c:	3301      	adds	r3, #1
   8054e:	f8ad 3012 	strh.w	r3, [sp, #18]
		us_offset = 0;
   80552:	2300      	movs	r3, #0
   80554:	f8ad 3010 	strh.w	r3, [sp, #16]
	while (ul_size > 0) {
   80558:	ebba 0a07 	subs.w	sl, sl, r7
   8055c:	d030      	beq.n	805c0 <flash_write+0xcc>
		writeSize = Min((uint32_t) IFLASH_PAGE_SIZE - us_offset,
   8055e:	f8bd 6010 	ldrh.w	r6, [sp, #16]
   80562:	f5c6 7880 	rsb	r8, r6, #256	; 0x100
   80566:	4647      	mov	r7, r8
   80568:	45d0      	cmp	r8, sl
   8056a:	bf28      	it	cs
   8056c:	4657      	movcs	r7, sl
	ul_addr = IFLASH1_ADDR + us_page * IFLASH0_PAGE_SIZE + us_offset;
   8056e:	f8bd 4012 	ldrh.w	r4, [sp, #18]
   80572:	f504 6440 	add.w	r4, r4, #3072	; 0xc00
   80576:	0224      	lsls	r4, r4, #8
		memcpy(puc_page_buffer, (void *)ul_page_addr, us_offset);
   80578:	4632      	mov	r2, r6
   8057a:	4621      	mov	r1, r4
   8057c:	4648      	mov	r0, r9
   8057e:	47d8      	blx	fp
		memcpy(puc_page_buffer + us_offset, p_buffer, writeSize);
   80580:	463a      	mov	r2, r7
   80582:	9901      	ldr	r1, [sp, #4]
   80584:	eb09 0006 	add.w	r0, r9, r6
   80588:	47d8      	blx	fp
		memcpy(puc_page_buffer + us_offset + writeSize,
   8058a:	19f0      	adds	r0, r6, r7
		us_padding = IFLASH_PAGE_SIZE - us_offset - writeSize;
   8058c:	eba8 0207 	sub.w	r2, r8, r7
				(void *)(ul_page_addr + us_offset + writeSize),
   80590:	1931      	adds	r1, r6, r4
		memcpy(puc_page_buffer + us_offset + writeSize,
   80592:	b292      	uxth	r2, r2
   80594:	4439      	add	r1, r7
   80596:	4448      	add	r0, r9
   80598:	47d8      	blx	fp
   8059a:	f1a9 0304 	sub.w	r3, r9, #4
   8059e:	3c04      	subs	r4, #4
			*p_aligned_dest++ = gs_ul_page_buffer[ul_idx];
   805a0:	f853 2f04 	ldr.w	r2, [r3, #4]!
   805a4:	f844 2f04 	str.w	r2, [r4, #4]!
		for (ul_idx = 0; ul_idx < (IFLASH_PAGE_SIZE / sizeof(uint32_t));
   805a8:	42ab      	cmp	r3, r5
   805aa:	d1f9      	bne.n	805a0 <flash_write+0xac>
		if (ul_erase_flag) {
   805ac:	9b02      	ldr	r3, [sp, #8]
   805ae:	2b00      	cmp	r3, #0
   805b0:	d0bf      	beq.n	80532 <flash_write+0x3e>
			ul_error = efc_perform_command(p_efc, EFC_FCMD_EWP,
   805b2:	f8bd 2012 	ldrh.w	r2, [sp, #18]
   805b6:	2103      	movs	r1, #3
   805b8:	9805      	ldr	r0, [sp, #20]
   805ba:	4b08      	ldr	r3, [pc, #32]	; (805dc <flash_write+0xe8>)
   805bc:	4798      	blx	r3
   805be:	e7be      	b.n	8053e <flash_write+0x4a>
	}

	/* According to the errata, restore the wait state value. */
	efc_set_wait_state(p_efc, ul_fws_temp);
   805c0:	9903      	ldr	r1, [sp, #12]
   805c2:	9805      	ldr	r0, [sp, #20]
   805c4:	4b04      	ldr	r3, [pc, #16]	; (805d8 <flash_write+0xe4>)
   805c6:	4798      	blx	r3

	return FLASH_RC_OK;
   805c8:	2000      	movs	r0, #0
}
   805ca:	b007      	add	sp, #28
   805cc:	e8bd 8ff0 	ldmia.w	sp!, {r4, r5, r6, r7, r8, r9, sl, fp, pc}
   805d0:	000803b1 	.word	0x000803b1
   805d4:	000801ef 	.word	0x000801ef
   805d8:	00080211 	.word	0x00080211
   805dc:	0008022d 	.word	0x0008022d
   805e0:	20070ebc 	.word	0x20070ebc
   805e4:	00081fa9 	.word	0x00081fa9

000805e8 <WriteCalibToFlash>:
{
   805e8:	b538      	push	{r3, r4, r5, lr}
   805ea:	4604      	mov	r4, r0
	PrintLn("Writing to flash\n");
   805ec:	4812      	ldr	r0, [pc, #72]	; (80638 <WriteCalibToFlash+0x50>)
   805ee:	4b13      	ldr	r3, [pc, #76]	; (8063c <WriteCalibToFlash+0x54>)
   805f0:	4798      	blx	r3
	if(flash_unlock((uint32_t)FLASH_START+4, (uint32_t)FLASH_START + sizeof(uint32_t) - 1, 0, 0) != FLASH_RC_OK)
   805f2:	2300      	movs	r3, #0
   805f4:	461a      	mov	r2, r3
   805f6:	4912      	ldr	r1, [pc, #72]	; (80640 <WriteCalibToFlash+0x58>)
   805f8:	4812      	ldr	r0, [pc, #72]	; (80644 <WriteCalibToFlash+0x5c>)
   805fa:	4d13      	ldr	r5, [pc, #76]	; (80648 <WriteCalibToFlash+0x60>)
   805fc:	47a8      	blx	r5
   805fe:	b970      	cbnz	r0, 8061e <WriteCalibToFlash+0x36>
	if(flash_write((uint32_t)FLASH_START+4, Calib, sizeof(uint32_t), 1) != FLASH_RC_OK)
   80600:	2301      	movs	r3, #1
   80602:	2204      	movs	r2, #4
   80604:	4621      	mov	r1, r4
   80606:	480f      	ldr	r0, [pc, #60]	; (80644 <WriteCalibToFlash+0x5c>)
   80608:	4c10      	ldr	r4, [pc, #64]	; (8064c <WriteCalibToFlash+0x64>)
   8060a:	47a0      	blx	r4
   8060c:	b958      	cbnz	r0, 80626 <WriteCalibToFlash+0x3e>
	if(flash_lock((uint32_t)FLASH_START+4, (uint32_t)FLASH_START + sizeof(uint32_t) - 1, 0, 0) != FLASH_RC_OK)
   8060e:	2300      	movs	r3, #0
   80610:	461a      	mov	r2, r3
   80612:	490b      	ldr	r1, [pc, #44]	; (80640 <WriteCalibToFlash+0x58>)
   80614:	480b      	ldr	r0, [pc, #44]	; (80644 <WriteCalibToFlash+0x5c>)
   80616:	4c0e      	ldr	r4, [pc, #56]	; (80650 <WriteCalibToFlash+0x68>)
   80618:	47a0      	blx	r4
   8061a:	b940      	cbnz	r0, 8062e <WriteCalibToFlash+0x46>
   8061c:	bd38      	pop	{r3, r4, r5, pc}
		PrintLn("Bad unlock\n");
   8061e:	480d      	ldr	r0, [pc, #52]	; (80654 <WriteCalibToFlash+0x6c>)
   80620:	4b06      	ldr	r3, [pc, #24]	; (8063c <WriteCalibToFlash+0x54>)
   80622:	4798      	blx	r3
   80624:	e7ec      	b.n	80600 <WriteCalibToFlash+0x18>
		PrintLn("Bad write\n");
   80626:	480c      	ldr	r0, [pc, #48]	; (80658 <WriteCalibToFlash+0x70>)
   80628:	4b04      	ldr	r3, [pc, #16]	; (8063c <WriteCalibToFlash+0x54>)
   8062a:	4798      	blx	r3
   8062c:	e7ef      	b.n	8060e <WriteCalibToFlash+0x26>
		PrintLn("Bad lock\n");
   8062e:	480b      	ldr	r0, [pc, #44]	; (8065c <WriteCalibToFlash+0x74>)
   80630:	4b02      	ldr	r3, [pc, #8]	; (8063c <WriteCalibToFlash+0x54>)
   80632:	4798      	blx	r3
}
   80634:	e7f2      	b.n	8061c <WriteCalibToFlash+0x34>
   80636:	bf00      	nop
   80638:	000862b4 	.word	0x000862b4
   8063c:	00080661 	.word	0x00080661
   80640:	000c0003 	.word	0x000c0003
   80644:	000c0004 	.word	0x000c0004
   80648:	00080481 	.word	0x00080481
   8064c:	000804f5 	.word	0x000804f5
   80650:	0008040d 	.word	0x0008040d
   80654:	000862c8 	.word	0x000862c8
   80658:	000862d4 	.word	0x000862d4
   8065c:	000862e0 	.word	0x000862e0

00080660 <PrintLn>:

#include "Prints.h"
#include <asf.h>

void PrintLn(const char *str)
{
   80660:	4770      	bx	lr
	...

00080664 <writeByte_register>:

// When writing 0x1234 to SPI only 0x34 will be written

// In multi-byte registers read or write to the MSBit of the LSByte first.
void writeByte_register(uint8_t reg, uint8_t value)
{
   80664:	b500      	push	{lr}
   80666:	b083      	sub	sp, #12
	//uint8_t Test;
	//char out_str2[30] = {0};
	uint16_t Cmd[2];
	Cmd[0] = W_REGISTER | (REGISTER_MASK & reg);
   80668:	f000 001f 	and.w	r0, r0, #31
   8066c:	f040 0020 	orr.w	r0, r0, #32
   80670:	f8ad 0004 	strh.w	r0, [sp, #4]
	Cmd[1] = value;
   80674:	f8ad 1006 	strh.w	r1, [sp, #6]
	if(!SPIC_Write(Cmd, 2, &StatusRegister))
   80678:	4a06      	ldr	r2, [pc, #24]	; (80694 <writeByte_register+0x30>)
   8067a:	2102      	movs	r1, #2
   8067c:	a801      	add	r0, sp, #4
   8067e:	4b06      	ldr	r3, [pc, #24]	; (80698 <writeByte_register+0x34>)
   80680:	4798      	blx	r3
   80682:	b110      	cbz	r0, 8068a <writeByte_register+0x26>
	}
	#endif*/
	
	//sprintf(out_str2,"Reg %u is %u write data %u\n", reg,Test,value);
	//PrintLn(out_str2);
}
   80684:	b003      	add	sp, #12
   80686:	f85d fb04 	ldr.w	pc, [sp], #4
		PrintLn("Error\n");
   8068a:	4804      	ldr	r0, [pc, #16]	; (8069c <writeByte_register+0x38>)
   8068c:	4b04      	ldr	r3, [pc, #16]	; (806a0 <writeByte_register+0x3c>)
   8068e:	4798      	blx	r3
}
   80690:	e7f8      	b.n	80684 <writeByte_register+0x20>
   80692:	bf00      	nop
   80694:	20070fbc 	.word	0x20070fbc
   80698:	00080e0d 	.word	0x00080e0d
   8069c:	0008634c 	.word	0x0008634c
   806a0:	00080661 	.word	0x00080661

000806a4 <writeBuf_register>:

void writeBuf_register(uint8_t reg, const uint16_t* Buf, int Len)
{
   806a4:	b530      	push	{r4, r5, lr}
   806a6:	b085      	sub	sp, #20
	int i;
	uint16_t Cmd[RF24_MAX_LEN_DATA+1];
	
	Cmd[0] = W_REGISTER | (REGISTER_MASK & reg);
   806a8:	f000 001f 	and.w	r0, r0, #31
   806ac:	f040 0020 	orr.w	r0, r0, #32
   806b0:	f8ad 0004 	strh.w	r0, [sp, #4]
	for(i=0;i<Len;i++)
   806b4:	1e15      	subs	r5, r2, #0
   806b6:	dd0a      	ble.n	806ce <writeBuf_register+0x2a>
   806b8:	460b      	mov	r3, r1
   806ba:	f10d 0206 	add.w	r2, sp, #6
   806be:	eb01 0445 	add.w	r4, r1, r5, lsl #1
		Cmd[i+1] = Buf[i];	
   806c2:	f833 0b02 	ldrh.w	r0, [r3], #2
   806c6:	f822 0b02 	strh.w	r0, [r2], #2
	for(i=0;i<Len;i++)
   806ca:	42a3      	cmp	r3, r4
   806cc:	d1f9      	bne.n	806c2 <writeBuf_register+0x1e>
	
	if(!SPIC_Write(Cmd, Len+1, &StatusRegister))
   806ce:	4a06      	ldr	r2, [pc, #24]	; (806e8 <writeBuf_register+0x44>)
   806d0:	1c69      	adds	r1, r5, #1
   806d2:	a801      	add	r0, sp, #4
   806d4:	4b05      	ldr	r3, [pc, #20]	; (806ec <writeBuf_register+0x48>)
   806d6:	4798      	blx	r3
   806d8:	b108      	cbz	r0, 806de <writeBuf_register+0x3a>
		PrintLn("Error2\n");
	
}
   806da:	b005      	add	sp, #20
   806dc:	bd30      	pop	{r4, r5, pc}
		PrintLn("Error2\n");
   806de:	4804      	ldr	r0, [pc, #16]	; (806f0 <writeBuf_register+0x4c>)
   806e0:	4b04      	ldr	r3, [pc, #16]	; (806f4 <writeBuf_register+0x50>)
   806e2:	4798      	blx	r3
}
   806e4:	e7f9      	b.n	806da <writeBuf_register+0x36>
   806e6:	bf00      	nop
   806e8:	20070fbc 	.word	0x20070fbc
   806ec:	00080e0d 	.word	0x00080e0d
   806f0:	00086344 	.word	0x00086344
   806f4:	00080661 	.word	0x00080661

000806f8 <readByte_register>:

uint8_t readByte_register(uint8_t reg)
{
   806f8:	b530      	push	{r4, r5, lr}
   806fa:	b08b      	sub	sp, #44	; 0x2c
   806fc:	4604      	mov	r4, r0
	uint16_t Resp;
	uint16_t Cmd[2];
	char out_str[30] = {0};
   806fe:	221e      	movs	r2, #30
   80700:	2100      	movs	r1, #0
   80702:	4668      	mov	r0, sp
   80704:	4b0d      	ldr	r3, [pc, #52]	; (8073c <readByte_register+0x44>)
   80706:	4798      	blx	r3
		
	Cmd[0] = R_REGISTER| (REGISTER_MASK & reg);
   80708:	f004 031f 	and.w	r3, r4, #31
   8070c:	f8ad 3020 	strh.w	r3, [sp, #32]
	Cmd[1] = 0;
   80710:	2300      	movs	r3, #0
   80712:	f8ad 3022 	strh.w	r3, [sp, #34]	; 0x22
	SPIC_Read(Cmd, 2, &StatusRegister,&Resp);
   80716:	f10d 0326 	add.w	r3, sp, #38	; 0x26
   8071a:	4a09      	ldr	r2, [pc, #36]	; (80740 <readByte_register+0x48>)
   8071c:	2102      	movs	r1, #2
   8071e:	a808      	add	r0, sp, #32
   80720:	4d08      	ldr	r5, [pc, #32]	; (80744 <readByte_register+0x4c>)
   80722:	47a8      	blx	r5
	
	sprintf(out_str,"read reg %u val %u \n", reg,Resp);
   80724:	f8bd 3026 	ldrh.w	r3, [sp, #38]	; 0x26
   80728:	4622      	mov	r2, r4
   8072a:	4907      	ldr	r1, [pc, #28]	; (80748 <readByte_register+0x50>)
   8072c:	4668      	mov	r0, sp
   8072e:	4c07      	ldr	r4, [pc, #28]	; (8074c <readByte_register+0x54>)
   80730:	47a0      	blx	r4
	//PrintLn(out_str);
	return (uint8_t)(Resp);
}
   80732:	f89d 0026 	ldrb.w	r0, [sp, #38]	; 0x26
   80736:	b00b      	add	sp, #44	; 0x2c
   80738:	bd30      	pop	{r4, r5, pc}
   8073a:	bf00      	nop
   8073c:	00082095 	.word	0x00082095
   80740:	20070fbc 	.word	0x20070fbc
   80744:	00080ec9 	.word	0x00080ec9
   80748:	0008632c 	.word	0x0008632c
   8074c:	0008216d 	.word	0x0008216d

00080750 <readBuf_register>:

void readBuf_register(uint8_t reg, uint16_t* Resp)
{
   80750:	b570      	push	{r4, r5, r6, lr}
   80752:	b090      	sub	sp, #64	; 0x40
   80754:	4605      	mov	r5, r0
   80756:	460c      	mov	r4, r1
	int i;
	uint16_t Cmd[6];
	char out_str[30] = {0};
   80758:	221e      	movs	r2, #30
   8075a:	2100      	movs	r1, #0
   8075c:	a805      	add	r0, sp, #20
   8075e:	4b13      	ldr	r3, [pc, #76]	; (807ac <readBuf_register+0x5c>)
   80760:	4798      	blx	r3
	//uint16_t Cmd[RF24_MAX_LEN_DATA+1];
	
	Cmd[0] = R_REGISTER | (REGISTER_MASK & reg);
   80762:	f005 031f 	and.w	r3, r5, #31
   80766:	f8ad 3034 	strh.w	r3, [sp, #52]	; 0x34
	for(i=0;i<5;i++)
		Cmd[i+1] = 0;
   8076a:	2300      	movs	r3, #0
   8076c:	f8ad 3036 	strh.w	r3, [sp, #54]	; 0x36
   80770:	f8ad 3038 	strh.w	r3, [sp, #56]	; 0x38
   80774:	f8ad 303a 	strh.w	r3, [sp, #58]	; 0x3a
   80778:	f8ad 303c 	strh.w	r3, [sp, #60]	; 0x3c
   8077c:	f8ad 303e 	strh.w	r3, [sp, #62]	; 0x3e
	
	SPIC_Read(Cmd, 6, &StatusRegister, Resp);
   80780:	4623      	mov	r3, r4
   80782:	4a0b      	ldr	r2, [pc, #44]	; (807b0 <readBuf_register+0x60>)
   80784:	2106      	movs	r1, #6
   80786:	a80d      	add	r0, sp, #52	; 0x34
   80788:	4e0a      	ldr	r6, [pc, #40]	; (807b4 <readBuf_register+0x64>)
   8078a:	47b0      	blx	r6
	sprintf(out_str,"read reg %u val %u %u %u %u %u\n", reg,Resp[0],Resp[1],Resp[2],Resp[3],Resp[4]);
   8078c:	8823      	ldrh	r3, [r4, #0]
   8078e:	8922      	ldrh	r2, [r4, #8]
   80790:	9203      	str	r2, [sp, #12]
   80792:	88e2      	ldrh	r2, [r4, #6]
   80794:	9202      	str	r2, [sp, #8]
   80796:	88a2      	ldrh	r2, [r4, #4]
   80798:	9201      	str	r2, [sp, #4]
   8079a:	8862      	ldrh	r2, [r4, #2]
   8079c:	9200      	str	r2, [sp, #0]
   8079e:	462a      	mov	r2, r5
   807a0:	4905      	ldr	r1, [pc, #20]	; (807b8 <readBuf_register+0x68>)
   807a2:	a805      	add	r0, sp, #20
   807a4:	4c05      	ldr	r4, [pc, #20]	; (807bc <readBuf_register+0x6c>)
   807a6:	47a0      	blx	r4
	//PrintLn(out_str);
}
   807a8:	b010      	add	sp, #64	; 0x40
   807aa:	bd70      	pop	{r4, r5, r6, pc}
   807ac:	00082095 	.word	0x00082095
   807b0:	20070fbc 	.word	0x20070fbc
   807b4:	00080ec9 	.word	0x00080ec9
   807b8:	0008630c 	.word	0x0008630c
   807bc:	0008216d 	.word	0x0008216d

000807c0 <RF_ActiveUp>:

void RF_ActiveUp()
{
   807c0:	b508      	push	{r3, lr}
	pio_set_pin_high(LED1_GPIO);
   807c2:	2055      	movs	r0, #85	; 0x55
   807c4:	4b01      	ldr	r3, [pc, #4]	; (807cc <RF_ActiveUp+0xc>)
   807c6:	4798      	blx	r3
   807c8:	bd08      	pop	{r3, pc}
   807ca:	bf00      	nop
   807cc:	000811d7 	.word	0x000811d7

000807d0 <RF_DisActive>:
}

void RF_DisActive()
{
   807d0:	b508      	push	{r3, lr}
	pio_set_pin_low(LED1_GPIO);
   807d2:	2055      	movs	r0, #85	; 0x55
   807d4:	4b01      	ldr	r3, [pc, #4]	; (807dc <RF_DisActive+0xc>)
   807d6:	4798      	blx	r3
   807d8:	bd08      	pop	{r3, pc}
   807da:	bf00      	nop
   807dc:	000811f1 	.word	0x000811f1

000807e0 <RF_PowerUpTXmode>:
}

void RF_PowerUpTXmode()
{
   807e0:	b510      	push	{r4, lr}
	int i;
	writeByte_register(CONFIG,(readByte_register(CONFIG)) | ((1<<PWR_UP) & ~_BV(PRIM_RX)) );
   807e2:	2000      	movs	r0, #0
   807e4:	4c06      	ldr	r4, [pc, #24]	; (80800 <RF_PowerUpTXmode+0x20>)
   807e6:	47a0      	blx	r4
   807e8:	f040 0102 	orr.w	r1, r0, #2
   807ec:	b2c9      	uxtb	r1, r1
   807ee:	2000      	movs	r0, #0
   807f0:	4b04      	ldr	r3, [pc, #16]	; (80804 <RF_PowerUpTXmode+0x24>)
   807f2:	4798      	blx	r3
	readByte_register(CONFIG);
   807f4:	2000      	movs	r0, #0
   807f6:	47a0      	blx	r4
   807f8:	23ff      	movs	r3, #255	; 0xff
	for(i=0;i<0xff;i++)
   807fa:	3b01      	subs	r3, #1
   807fc:	d1fd      	bne.n	807fa <RF_PowerUpTXmode+0x1a>
		__NOP;
}
   807fe:	bd10      	pop	{r4, pc}
   80800:	000806f9 	.word	0x000806f9
   80804:	00080665 	.word	0x00080665

00080808 <RF_SetPALevel>:

void RF_SetPALevel(rf24_pa_dbm_e level)
{
   80808:	b510      	push	{r4, lr}
   8080a:	4604      	mov	r4, r0
	uint8_t setup = readByte_register(RF_SETUP) ;
   8080c:	2006      	movs	r0, #6
   8080e:	4b0c      	ldr	r3, [pc, #48]	; (80840 <RF_SetPALevel+0x38>)
   80810:	4798      	blx	r3
   80812:	f000 00fb 	and.w	r0, r0, #251	; 0xfb
	setup |= (1<<RF_PWR_LOW);
	setup &= ~(1<<RF_PWR_HIGH);

	// switch uses RAM (evil!)
	if ( level == RF24_PA_MAX )
   80816:	2c03      	cmp	r4, #3
   80818:	d00b      	beq.n	80832 <RF_SetPALevel+0x2a>
	{
		setup |= (_BV(RF_PWR_LOW) | _BV(RF_PWR_HIGH)) ;
	}
	else if ( level == RF24_PA_HIGH )
   8081a:	2c02      	cmp	r4, #2
   8081c:	d00c      	beq.n	80838 <RF_SetPALevel+0x30>
	{
		setup |= _BV(RF_PWR_HIGH) ;
	}
	else if ( level == RF24_PA_LOW )
   8081e:	2c04      	cmp	r4, #4
	setup &= ~(1<<RF_PWR_HIGH);
   80820:	bf14      	ite	ne
   80822:	f040 0102 	orrne.w	r1, r0, #2
		// nothing
	}
	else if ( level == RF24_PA_ERROR )
	{
		// On error, go to maximum PA
		setup |= (_BV(RF_PWR_LOW) | _BV(RF_PWR_HIGH)) ;
   80826:	f040 0106 	orreq.w	r1, r0, #6
	}

	writeByte_register( RF_SETUP, setup ) ;
   8082a:	2006      	movs	r0, #6
   8082c:	4b05      	ldr	r3, [pc, #20]	; (80844 <RF_SetPALevel+0x3c>)
   8082e:	4798      	blx	r3
   80830:	bd10      	pop	{r4, pc}
		setup |= (_BV(RF_PWR_LOW) | _BV(RF_PWR_HIGH)) ;
   80832:	f040 0106 	orr.w	r1, r0, #6
   80836:	e7f8      	b.n	8082a <RF_SetPALevel+0x22>
		setup |= _BV(RF_PWR_HIGH) ;
   80838:	f040 0106 	orr.w	r1, r0, #6
   8083c:	e7f5      	b.n	8082a <RF_SetPALevel+0x22>
   8083e:	bf00      	nop
   80840:	000806f9 	.word	0x000806f9
   80844:	00080665 	.word	0x00080665

00080848 <RF_setDataRate>:
}


bool RF_setDataRate(rf24_datarate_e speed)
{
   80848:	b510      	push	{r4, lr}
   8084a:	4604      	mov	r4, r0
	bool result = false;
	uint8_t setup = readByte_register(RF_SETUP) ;
   8084c:	2006      	movs	r0, #6
   8084e:	4b09      	ldr	r3, [pc, #36]	; (80874 <RF_setDataRate+0x2c>)
   80850:	4798      	blx	r3

	// HIGH and LOW '00' is 1Mbs - our default
	//wide_band = false ;
	setup &= ~(_BV(RF_DR_LOW) | _BV(RF_DR_HIGH)) ;
   80852:	f000 01d7 	and.w	r1, r0, #215	; 0xd7
	if( speed == RF24_250KBPS )
   80856:	2c02      	cmp	r4, #2
   80858:	d008      	beq.n	8086c <RF_setDataRate+0x24>
	}
	else
	{
		// Set 2Mbs, RF_DR (RF_DR_HIGH) is set 1
		// Making it '01'
		if ( speed == RF24_2MBPS )
   8085a:	2c01      	cmp	r4, #1
		{
			//wide_band = true ;
			setup |= _BV(RF_DR_HIGH);
   8085c:	bf08      	it	eq
   8085e:	f041 0108 	orreq.w	r1, r1, #8
		{
			// 1Mbs
			//wide_band = false ;
		}
	}
	writeByte_register(RF_SETUP,setup);
   80862:	2006      	movs	r0, #6
   80864:	4b04      	ldr	r3, [pc, #16]	; (80878 <RF_setDataRate+0x30>)
   80866:	4798      	blx	r3
	//	sprintf(out_str2,"Daniel %u setup %u \n", setup2,setup);
		//PrintLn(out_str2);
	}
	#endif*/
	return result;
}
   80868:	2000      	movs	r0, #0
   8086a:	bd10      	pop	{r4, pc}
		setup |= _BV( RF_DR_LOW ) ;
   8086c:	f041 0120 	orr.w	r1, r1, #32
   80870:	e7f7      	b.n	80862 <RF_setDataRate+0x1a>
   80872:	bf00      	nop
   80874:	000806f9 	.word	0x000806f9
   80878:	00080665 	.word	0x00080665

0008087c <RF_setCRCLength>:

void RF_setCRCLength(rf24_crclength_e length)
{
   8087c:	b510      	push	{r4, lr}
   8087e:	4604      	mov	r4, r0
	uint8_t config = readByte_register(CONFIG) & ~( _BV(CRCO) | _BV(EN_CRC)) ;
   80880:	2000      	movs	r0, #0
   80882:	4b07      	ldr	r3, [pc, #28]	; (808a0 <RF_setCRCLength+0x24>)
   80884:	4798      	blx	r3
   80886:	f000 01f3 	and.w	r1, r0, #243	; 0xf3
	
	// switch uses RAM (evil!)
	if ( length == RF24_CRC_DISABLED )
   8088a:	b12c      	cbz	r4, 80898 <RF_setCRCLength+0x1c>
	{
		// Do nothing, we turned it off above.
	}
	else if ( length == RF24_CRC_8 )
   8088c:	2c01      	cmp	r4, #1
	{
		config |= _BV(EN_CRC);
   8088e:	bf0c      	ite	eq
   80890:	f041 0108 	orreq.w	r1, r1, #8
	}
	else
	{
		config |= _BV(EN_CRC);
		config |= _BV( CRCO );
   80894:	f041 010c 	orrne.w	r1, r1, #12
	}
	writeByte_register( CONFIG, config ) ;
   80898:	2000      	movs	r0, #0
   8089a:	4b02      	ldr	r3, [pc, #8]	; (808a4 <RF_setCRCLength+0x28>)
   8089c:	4798      	blx	r3
   8089e:	bd10      	pop	{r4, pc}
   808a0:	000806f9 	.word	0x000806f9
   808a4:	00080665 	.word	0x00080665

000808a8 <RF_setChannel>:
}


void RF_setChannel(uint8_t channel)
{
   808a8:	b508      	push	{r3, lr}
	//const uint8_t max_channel = 127;
	uint8_t RF_CH2;
	
	writeByte_register(RF_CH,channel);
   808aa:	4601      	mov	r1, r0
   808ac:	2005      	movs	r0, #5
   808ae:	4b03      	ldr	r3, [pc, #12]	; (808bc <RF_setChannel+0x14>)
   808b0:	4798      	blx	r3
	// Verify our result
	if ( (RF_CH2=readByte_register(RF_CH)) == channel )
   808b2:	2005      	movs	r0, #5
   808b4:	4b02      	ldr	r3, [pc, #8]	; (808c0 <RF_setChannel+0x18>)
   808b6:	4798      	blx	r3
   808b8:	bd08      	pop	{r3, pc}
   808ba:	bf00      	nop
   808bc:	00080665 	.word	0x00080665
   808c0:	000806f9 	.word	0x000806f9

000808c4 <flush_rx>:
	//	PrintLn(out_str2);
	}
	
}
void flush_rx(void)
{
   808c4:	b500      	push	{lr}
   808c6:	b083      	sub	sp, #12
	uint16_t Cmd[1];
	Cmd[0] = FLUSH_RX;
   808c8:	a802      	add	r0, sp, #8
   808ca:	23e2      	movs	r3, #226	; 0xe2
   808cc:	f820 3d04 	strh.w	r3, [r0, #-4]!
	if(!SPIC_Write(Cmd, 1, &StatusRegister))
   808d0:	4a05      	ldr	r2, [pc, #20]	; (808e8 <flush_rx+0x24>)
   808d2:	2101      	movs	r1, #1
   808d4:	4b05      	ldr	r3, [pc, #20]	; (808ec <flush_rx+0x28>)
   808d6:	4798      	blx	r3
   808d8:	b110      	cbz	r0, 808e0 <flush_rx+0x1c>
		PrintLn("Error\n");
}
   808da:	b003      	add	sp, #12
   808dc:	f85d fb04 	ldr.w	pc, [sp], #4
		PrintLn("Error\n");
   808e0:	4803      	ldr	r0, [pc, #12]	; (808f0 <flush_rx+0x2c>)
   808e2:	4b04      	ldr	r3, [pc, #16]	; (808f4 <flush_rx+0x30>)
   808e4:	4798      	blx	r3
}
   808e6:	e7f8      	b.n	808da <flush_rx+0x16>
   808e8:	20070fbc 	.word	0x20070fbc
   808ec:	00080e0d 	.word	0x00080e0d
   808f0:	0008634c 	.word	0x0008634c
   808f4:	00080661 	.word	0x00080661

000808f8 <flush_tx>:

/****************************************************************************/

void flush_tx(void)
{
   808f8:	b500      	push	{lr}
   808fa:	b083      	sub	sp, #12
	uint16_t Cmd[1];
	Cmd[0] = FLUSH_TX;
   808fc:	a802      	add	r0, sp, #8
   808fe:	23e1      	movs	r3, #225	; 0xe1
   80900:	f820 3d04 	strh.w	r3, [r0, #-4]!
	if(!SPIC_Write(Cmd, 1, &StatusRegister))
   80904:	4a05      	ldr	r2, [pc, #20]	; (8091c <flush_tx+0x24>)
   80906:	2101      	movs	r1, #1
   80908:	4b05      	ldr	r3, [pc, #20]	; (80920 <flush_tx+0x28>)
   8090a:	4798      	blx	r3
   8090c:	b110      	cbz	r0, 80914 <flush_tx+0x1c>
		PrintLn("Error\n");
}
   8090e:	b003      	add	sp, #12
   80910:	f85d fb04 	ldr.w	pc, [sp], #4
		PrintLn("Error\n");
   80914:	4803      	ldr	r0, [pc, #12]	; (80924 <flush_tx+0x2c>)
   80916:	4b04      	ldr	r3, [pc, #16]	; (80928 <flush_tx+0x30>)
   80918:	4798      	blx	r3
}
   8091a:	e7f8      	b.n	8090e <flush_tx+0x16>
   8091c:	20070fbc 	.word	0x20070fbc
   80920:	00080e0d 	.word	0x00080e0d
   80924:	0008634c 	.word	0x0008634c
   80928:	00080661 	.word	0x00080661

0008092c <RF_OpenWritePipe>:

void RF_OpenWritePipe()
{
   8092c:	b508      	push	{r3, lr}
	writeBuf_register(TX_ADDR, pipe0, 5);
   8092e:	2205      	movs	r2, #5
   80930:	4902      	ldr	r1, [pc, #8]	; (8093c <RF_OpenWritePipe+0x10>)
   80932:	2010      	movs	r0, #16
   80934:	4b02      	ldr	r3, [pc, #8]	; (80940 <RF_OpenWritePipe+0x14>)
   80936:	4798      	blx	r3
   80938:	bd08      	pop	{r3, pc}
   8093a:	bf00      	nop
   8093c:	00086300 	.word	0x00086300
   80940:	000806a5 	.word	0x000806a5

00080944 <RF_InitTX>:
}

void RF_InitTX()
{
   80944:	b510      	push	{r4, lr}
   80946:	b084      	sub	sp, #16
	uint16_t Response[5]= {0,0,0,0,0};
   80948:	2300      	movs	r3, #0
   8094a:	9301      	str	r3, [sp, #4]
   8094c:	9302      	str	r3, [sp, #8]
   8094e:	f8ad 300c 	strh.w	r3, [sp, #12]
	int i;
	RF_DisActive();
   80952:	4b1a      	ldr	r3, [pc, #104]	; (809bc <RF_InitTX+0x78>)
   80954:	4798      	blx	r3
   80956:	23ff      	movs	r3, #255	; 0xff
	//little delay
	for(i=0;i<0xff;i++)
   80958:	3b01      	subs	r3, #1
   8095a:	d1fd      	bne.n	80958 <RF_InitTX+0x14>
		__NOP;
	
	
	// Disable auto-retransmit
	writeByte_register(SETUP_RETR,(0b0100 << ARD) | (0 << ARC));
   8095c:	2140      	movs	r1, #64	; 0x40
   8095e:	2004      	movs	r0, #4
   80960:	4b17      	ldr	r3, [pc, #92]	; (809c0 <RF_InitTX+0x7c>)
   80962:	4798      	blx	r3
	// You can configure the RF24 when power-down , stand-by or RX,TX mode
	RF_SetPALevel(RF24_PA_MAX);
   80964:	2003      	movs	r0, #3
   80966:	4b17      	ldr	r3, [pc, #92]	; (809c4 <RF_InitTX+0x80>)
   80968:	4798      	blx	r3
	if(!RF_setDataRate(RF24_250KBPS))
   8096a:	2002      	movs	r0, #2
   8096c:	4b16      	ldr	r3, [pc, #88]	; (809c8 <RF_InitTX+0x84>)
   8096e:	4798      	blx	r3
   80970:	b1f8      	cbz	r0, 809b2 <RF_InitTX+0x6e>
		PrintLn("Error3\n");
	// Initialize no CRC
	RF_setCRCLength(RF24_CRC_DISABLED);
   80972:	2000      	movs	r0, #0
   80974:	4b15      	ldr	r3, [pc, #84]	; (809cc <RF_InitTX+0x88>)
   80976:	4798      	blx	r3
	// Disable dynamic payloads, to match dynamic_payloads_enabled setting
	writeByte_register(DYNPD,0);
   80978:	2100      	movs	r1, #0
   8097a:	201c      	movs	r0, #28
   8097c:	4c10      	ldr	r4, [pc, #64]	; (809c0 <RF_InitTX+0x7c>)
   8097e:	47a0      	blx	r4
	// Reset current status
	// Notice reset and flush is the last thing we do
	writeByte_register(STATUS,_BV(RX_DR) | _BV(TX_DS) | _BV(MAX_RT) );
   80980:	2170      	movs	r1, #112	; 0x70
   80982:	2007      	movs	r0, #7
   80984:	47a0      	blx	r4
	// Set up default configuration.  Callers can always change it later.
	// This channel should be universally safe and not bleed over into adjacent
	// spectrum.
	RF_setChannel(76);
   80986:	204c      	movs	r0, #76	; 0x4c
   80988:	4b11      	ldr	r3, [pc, #68]	; (809d0 <RF_InitTX+0x8c>)
   8098a:	4798      	blx	r3
	// NO_ACK Mode
	writeByte_register(EN_AA, 0);
   8098c:	2100      	movs	r1, #0
   8098e:	2001      	movs	r0, #1
   80990:	47a0      	blx	r4
	// Flush buffers
	flush_rx();
   80992:	4b10      	ldr	r3, [pc, #64]	; (809d4 <RF_InitTX+0x90>)
   80994:	4798      	blx	r3
	flush_tx();
   80996:	4b10      	ldr	r3, [pc, #64]	; (809d8 <RF_InitTX+0x94>)
   80998:	4798      	blx	r3
	// Route the packet to PTX address at pipe0
	RF_OpenWritePipe();
   8099a:	4b10      	ldr	r3, [pc, #64]	; (809dc <RF_InitTX+0x98>)
   8099c:	4798      	blx	r3
	RF_PowerUpTXmode();
   8099e:	4b10      	ldr	r3, [pc, #64]	; (809e0 <RF_InitTX+0x9c>)
   809a0:	4798      	blx	r3
	
	RF_ActiveUp();
   809a2:	4b10      	ldr	r3, [pc, #64]	; (809e4 <RF_InitTX+0xa0>)
   809a4:	4798      	blx	r3
	readByte_register(RF_CH);
	readByte_register(SETUP_RETR);
	readByte_register(DYNPD);
	readByte_register(STATUS);
	readByte_register(EN_AA);*/
	readBuf_register(TX_ADDR,Response);
   809a6:	a901      	add	r1, sp, #4
   809a8:	2010      	movs	r0, #16
   809aa:	4b0f      	ldr	r3, [pc, #60]	; (809e8 <RF_InitTX+0xa4>)
   809ac:	4798      	blx	r3
	
}
   809ae:	b004      	add	sp, #16
   809b0:	bd10      	pop	{r4, pc}
		PrintLn("Error3\n");
   809b2:	480e      	ldr	r0, [pc, #56]	; (809ec <RF_InitTX+0xa8>)
   809b4:	4b0e      	ldr	r3, [pc, #56]	; (809f0 <RF_InitTX+0xac>)
   809b6:	4798      	blx	r3
   809b8:	e7db      	b.n	80972 <RF_InitTX+0x2e>
   809ba:	bf00      	nop
   809bc:	000807d1 	.word	0x000807d1
   809c0:	00080665 	.word	0x00080665
   809c4:	00080809 	.word	0x00080809
   809c8:	00080849 	.word	0x00080849
   809cc:	0008087d 	.word	0x0008087d
   809d0:	000808a9 	.word	0x000808a9
   809d4:	000808c5 	.word	0x000808c5
   809d8:	000808f9 	.word	0x000808f9
   809dc:	0008092d 	.word	0x0008092d
   809e0:	000807e1 	.word	0x000807e1
   809e4:	000807c1 	.word	0x000807c1
   809e8:	00080751 	.word	0x00080751
   809ec:	000862ec 	.word	0x000862ec
   809f0:	00080661 	.word	0x00080661

000809f4 <RF_SendBell>:


void RF_SendBell(uint16_t CmdID)
{
   809f4:	b510      	push	{r4, lr}
   809f6:	b082      	sub	sp, #8
   809f8:	4604      	mov	r4, r0
	uint16_t Cmd[2];
	writeByte_register(STATUS,_BV(RX_DR) | _BV(TX_DS) | _BV(MAX_RT) );
   809fa:	2170      	movs	r1, #112	; 0x70
   809fc:	2007      	movs	r0, #7
   809fe:	4b0e      	ldr	r3, [pc, #56]	; (80a38 <RF_SendBell+0x44>)
   80a00:	4798      	blx	r3
	Cmd[0] = W_TX_PAYLOAD;
   80a02:	23a0      	movs	r3, #160	; 0xa0
   80a04:	f8ad 3004 	strh.w	r3, [sp, #4]
	Cmd[1] = CmdID;
   80a08:	f8ad 4006 	strh.w	r4, [sp, #6]
	Timer_Sleep(10);
   80a0c:	200a      	movs	r0, #10
   80a0e:	4b0b      	ldr	r3, [pc, #44]	; (80a3c <RF_SendBell+0x48>)
   80a10:	4798      	blx	r3
	if(!SPIC_Write(Cmd, 2, &StatusRegister))
   80a12:	4a0b      	ldr	r2, [pc, #44]	; (80a40 <RF_SendBell+0x4c>)
   80a14:	2102      	movs	r1, #2
   80a16:	a801      	add	r0, sp, #4
   80a18:	4b0a      	ldr	r3, [pc, #40]	; (80a44 <RF_SendBell+0x50>)
   80a1a:	4798      	blx	r3
   80a1c:	b138      	cbz	r0, 80a2e <RF_SendBell+0x3a>
		PrintLn("Error\n");
	Timer_Sleep(10);
   80a1e:	200a      	movs	r0, #10
   80a20:	4b06      	ldr	r3, [pc, #24]	; (80a3c <RF_SendBell+0x48>)
   80a22:	4798      	blx	r3
	PrintLn("Send RF \n");
   80a24:	4808      	ldr	r0, [pc, #32]	; (80a48 <RF_SendBell+0x54>)
   80a26:	4b09      	ldr	r3, [pc, #36]	; (80a4c <RF_SendBell+0x58>)
   80a28:	4798      	blx	r3
   80a2a:	b002      	add	sp, #8
   80a2c:	bd10      	pop	{r4, pc}
		PrintLn("Error\n");
   80a2e:	4808      	ldr	r0, [pc, #32]	; (80a50 <RF_SendBell+0x5c>)
   80a30:	4b06      	ldr	r3, [pc, #24]	; (80a4c <RF_SendBell+0x58>)
   80a32:	4798      	blx	r3
   80a34:	e7f3      	b.n	80a1e <RF_SendBell+0x2a>
   80a36:	bf00      	nop
   80a38:	00080665 	.word	0x00080665
   80a3c:	00081005 	.word	0x00081005
   80a40:	20070fbc 	.word	0x20070fbc
   80a44:	00080e0d 	.word	0x00080e0d
   80a48:	000862f4 	.word	0x000862f4
   80a4c:	00080661 	.word	0x00080661
   80a50:	0008634c 	.word	0x0008634c

00080a54 <spi_set_peripheral_chip_select_value>:
 *                 \ref spi_enable_peripheral_select_decode,
 *                 \ref spi_disable_peripheral_select_decode.
 */
void spi_set_peripheral_chip_select_value(Spi *p_spi, uint32_t ul_value)
{
	p_spi->SPI_MR &= (~SPI_MR_PCS_Msk);
   80a54:	6843      	ldr	r3, [r0, #4]
   80a56:	f423 2370 	bic.w	r3, r3, #983040	; 0xf0000
   80a5a:	6043      	str	r3, [r0, #4]
	p_spi->SPI_MR |= SPI_MR_PCS(ul_value);
   80a5c:	6843      	ldr	r3, [r0, #4]
   80a5e:	0409      	lsls	r1, r1, #16
   80a60:	f401 2170 	and.w	r1, r1, #983040	; 0xf0000
   80a64:	4319      	orrs	r1, r3
   80a66:	6041      	str	r1, [r0, #4]
   80a68:	4770      	bx	lr

00080a6a <spi_set_delay_between_chip_select>:
 * \param p_spi Pointer to an SPI instance.
 * \param ul_delay Delay between chip selects (in number of MCK clocks).
 */
void spi_set_delay_between_chip_select(Spi *p_spi, uint32_t ul_delay)
{
	p_spi->SPI_MR &= (~SPI_MR_DLYBCS_Msk);
   80a6a:	6843      	ldr	r3, [r0, #4]
   80a6c:	f023 437f 	bic.w	r3, r3, #4278190080	; 0xff000000
   80a70:	6043      	str	r3, [r0, #4]
	p_spi->SPI_MR |= SPI_MR_DLYBCS(ul_delay);
   80a72:	6843      	ldr	r3, [r0, #4]
   80a74:	ea43 6101 	orr.w	r1, r3, r1, lsl #24
   80a78:	6041      	str	r1, [r0, #4]
   80a7a:	4770      	bx	lr

00080a7c <spi_read>:
 *
 * \retval SPI_OK on Success.
 * \retval SPI_ERROR_TIMEOUT on Time-out.
 */
spi_status_t spi_read(Spi *p_spi, uint16_t *us_data, uint8_t *p_pcs)
{
   80a7c:	b410      	push	{r4}
	uint32_t timeout = SPI_TIMEOUT;
	static uint32_t reg_value;

	while (!(p_spi->SPI_SR & SPI_SR_RDRF)) {
   80a7e:	f643 2399 	movw	r3, #15001	; 0x3a99
   80a82:	6904      	ldr	r4, [r0, #16]
   80a84:	f014 0f01 	tst.w	r4, #1
   80a88:	d103      	bne.n	80a92 <spi_read+0x16>
		if (!timeout--) {
   80a8a:	3b01      	subs	r3, #1
   80a8c:	d1f9      	bne.n	80a82 <spi_read+0x6>
			return SPI_ERROR_TIMEOUT;
   80a8e:	2001      	movs	r0, #1
   80a90:	e009      	b.n	80aa6 <spi_read+0x2a>
		}
	}

	reg_value = p_spi->SPI_RDR;
   80a92:	6883      	ldr	r3, [r0, #8]
 *
 * \return 1 for Variable mode, 0 for fixed mode.
 */
static inline uint32_t spi_get_peripheral_select_mode(Spi *p_spi)
{
	if (p_spi->SPI_MR & SPI_MR_PS) {
   80a94:	6840      	ldr	r0, [r0, #4]
	if (spi_get_peripheral_select_mode(p_spi)) {
   80a96:	f010 0f02 	tst.w	r0, #2
		*p_pcs = (uint8_t) ((reg_value & SPI_RDR_PCS_Msk) >> SPI_RDR_PCS_Pos);
   80a9a:	bf1c      	itt	ne
   80a9c:	f3c3 4003 	ubfxne	r0, r3, #16, #4
   80aa0:	7010      	strbne	r0, [r2, #0]
	}
	*us_data = (uint16_t) (reg_value & SPI_RDR_RD_Msk);
   80aa2:	800b      	strh	r3, [r1, #0]

	return SPI_OK;
   80aa4:	2000      	movs	r0, #0
}
   80aa6:	bc10      	pop	{r4}
   80aa8:	4770      	bx	lr

00080aaa <spi_write>:
 * \retval SPI_OK on Success.
 * \retval SPI_ERROR_TIMEOUT on Time-out.
 */
spi_status_t spi_write(Spi *p_spi, uint16_t us_data,
		uint8_t uc_pcs, uint8_t uc_last)
{
   80aaa:	b430      	push	{r4, r5}
	uint32_t timeout = SPI_TIMEOUT;
	uint32_t value;

	while (!(p_spi->SPI_SR & SPI_SR_TDRE)) {
   80aac:	f643 2499 	movw	r4, #15001	; 0x3a99
   80ab0:	6905      	ldr	r5, [r0, #16]
   80ab2:	f015 0f02 	tst.w	r5, #2
   80ab6:	d103      	bne.n	80ac0 <spi_write+0x16>
		if (!timeout--) {
   80ab8:	3c01      	subs	r4, #1
   80aba:	d1f9      	bne.n	80ab0 <spi_write+0x6>
			return SPI_ERROR_TIMEOUT;
   80abc:	2001      	movs	r0, #1
   80abe:	e00c      	b.n	80ada <spi_write+0x30>
   80ac0:	6844      	ldr	r4, [r0, #4]
		}
	}

	if (spi_get_peripheral_select_mode(p_spi)) {
   80ac2:	f014 0f02 	tst.w	r4, #2
   80ac6:	d006      	beq.n	80ad6 <spi_write+0x2c>
		value = SPI_TDR_TD(us_data) | SPI_TDR_PCS(uc_pcs);
   80ac8:	0412      	lsls	r2, r2, #16
   80aca:	f402 2270 	and.w	r2, r2, #983040	; 0xf0000
   80ace:	4311      	orrs	r1, r2
		if (uc_last) {
   80ad0:	b10b      	cbz	r3, 80ad6 <spi_write+0x2c>
			value |= SPI_TDR_LASTXFER;
   80ad2:	f041 7180 	orr.w	r1, r1, #16777216	; 0x1000000
		}
	} else {
		value = SPI_TDR_TD(us_data);
	}

	p_spi->SPI_TDR = value;
   80ad6:	60c1      	str	r1, [r0, #12]

	return SPI_OK;
   80ad8:	2000      	movs	r0, #0
}
   80ada:	bc30      	pop	{r4, r5}
   80adc:	4770      	bx	lr

00080ade <spi_set_clock_polarity>:
 * \param ul_polarity Default clock state is logical one(high)/zero(low).
 */
void spi_set_clock_polarity(Spi *p_spi, uint32_t ul_pcs_ch,
		uint32_t ul_polarity)
{
	if (ul_polarity) {
   80ade:	b932      	cbnz	r2, 80aee <spi_set_clock_polarity+0x10>
   80ae0:	eb00 0081 	add.w	r0, r0, r1, lsl #2
		p_spi->SPI_CSR[ul_pcs_ch] |= SPI_CSR_CPOL;
	} else {
		p_spi->SPI_CSR[ul_pcs_ch] &= (~SPI_CSR_CPOL);
   80ae4:	6b03      	ldr	r3, [r0, #48]	; 0x30
   80ae6:	f023 0301 	bic.w	r3, r3, #1
   80aea:	6303      	str	r3, [r0, #48]	; 0x30
   80aec:	4770      	bx	lr
   80aee:	eb00 0081 	add.w	r0, r0, r1, lsl #2
		p_spi->SPI_CSR[ul_pcs_ch] |= SPI_CSR_CPOL;
   80af2:	6b03      	ldr	r3, [r0, #48]	; 0x30
   80af4:	f043 0301 	orr.w	r3, r3, #1
   80af8:	6303      	str	r3, [r0, #48]	; 0x30
   80afa:	4770      	bx	lr

00080afc <spi_set_clock_phase>:
 *  \param ul_pcs_ch Peripheral Chip Select channel (0~3).
 *  \param ul_phase Data capture on the rising/falling edge of clock.
 */
void spi_set_clock_phase(Spi *p_spi, uint32_t ul_pcs_ch, uint32_t ul_phase)
{
	if (ul_phase) {
   80afc:	b932      	cbnz	r2, 80b0c <spi_set_clock_phase+0x10>
   80afe:	eb00 0081 	add.w	r0, r0, r1, lsl #2
		p_spi->SPI_CSR[ul_pcs_ch] |= SPI_CSR_NCPHA;
	} else {
		p_spi->SPI_CSR[ul_pcs_ch] &= (~SPI_CSR_NCPHA);
   80b02:	6b03      	ldr	r3, [r0, #48]	; 0x30
   80b04:	f023 0302 	bic.w	r3, r3, #2
   80b08:	6303      	str	r3, [r0, #48]	; 0x30
   80b0a:	4770      	bx	lr
   80b0c:	eb00 0081 	add.w	r0, r0, r1, lsl #2
		p_spi->SPI_CSR[ul_pcs_ch] |= SPI_CSR_NCPHA;
   80b10:	6b03      	ldr	r3, [r0, #48]	; 0x30
   80b12:	f043 0302 	orr.w	r3, r3, #2
   80b16:	6303      	str	r3, [r0, #48]	; 0x30
   80b18:	4770      	bx	lr

00080b1a <spi_configure_cs_behavior>:
 * \param ul_cs_behavior Behavior of the Chip Select after transfer.
 */
void spi_configure_cs_behavior(Spi *p_spi, uint32_t ul_pcs_ch,
		uint32_t ul_cs_behavior)
{
	if (ul_cs_behavior == SPI_CS_RISE_FORCED) {
   80b1a:	2a04      	cmp	r2, #4
   80b1c:	d003      	beq.n	80b26 <spi_configure_cs_behavior+0xc>
		p_spi->SPI_CSR[ul_pcs_ch] &= (~SPI_CSR_CSAAT);
		p_spi->SPI_CSR[ul_pcs_ch] |= SPI_CSR_CSNAAT;
	} else if (ul_cs_behavior == SPI_CS_RISE_NO_TX) {
   80b1e:	b16a      	cbz	r2, 80b3c <spi_configure_cs_behavior+0x22>
		p_spi->SPI_CSR[ul_pcs_ch] &= (~SPI_CSR_CSAAT);
		p_spi->SPI_CSR[ul_pcs_ch] &= (~SPI_CSR_CSNAAT);
	} else if (ul_cs_behavior == SPI_CS_KEEP_LOW) {
   80b20:	2a08      	cmp	r2, #8
   80b22:	d016      	beq.n	80b52 <spi_configure_cs_behavior+0x38>
   80b24:	4770      	bx	lr
   80b26:	eb00 0081 	add.w	r0, r0, r1, lsl #2
		p_spi->SPI_CSR[ul_pcs_ch] &= (~SPI_CSR_CSAAT);
   80b2a:	6b03      	ldr	r3, [r0, #48]	; 0x30
   80b2c:	f023 0308 	bic.w	r3, r3, #8
   80b30:	6303      	str	r3, [r0, #48]	; 0x30
		p_spi->SPI_CSR[ul_pcs_ch] |= SPI_CSR_CSNAAT;
   80b32:	6b03      	ldr	r3, [r0, #48]	; 0x30
   80b34:	f043 0304 	orr.w	r3, r3, #4
   80b38:	6303      	str	r3, [r0, #48]	; 0x30
   80b3a:	4770      	bx	lr
   80b3c:	eb00 0081 	add.w	r0, r0, r1, lsl #2
		p_spi->SPI_CSR[ul_pcs_ch] &= (~SPI_CSR_CSAAT);
   80b40:	6b03      	ldr	r3, [r0, #48]	; 0x30
   80b42:	f023 0308 	bic.w	r3, r3, #8
   80b46:	6303      	str	r3, [r0, #48]	; 0x30
		p_spi->SPI_CSR[ul_pcs_ch] &= (~SPI_CSR_CSNAAT);
   80b48:	6b03      	ldr	r3, [r0, #48]	; 0x30
   80b4a:	f023 0304 	bic.w	r3, r3, #4
   80b4e:	6303      	str	r3, [r0, #48]	; 0x30
   80b50:	4770      	bx	lr
   80b52:	eb00 0081 	add.w	r0, r0, r1, lsl #2
		p_spi->SPI_CSR[ul_pcs_ch] |= SPI_CSR_CSAAT;
   80b56:	6b03      	ldr	r3, [r0, #48]	; 0x30
   80b58:	f043 0308 	orr.w	r3, r3, #8
   80b5c:	6303      	str	r3, [r0, #48]	; 0x30
	}
}
   80b5e:	e7e1      	b.n	80b24 <spi_configure_cs_behavior+0xa>

00080b60 <spi_set_bits_per_transfer>:
 * \param ul_bits Number of bits (8~16), use the pattern defined
 *        in the device header file.
 */
void spi_set_bits_per_transfer(Spi *p_spi, uint32_t ul_pcs_ch,
		uint32_t ul_bits)
{
   80b60:	eb00 0181 	add.w	r1, r0, r1, lsl #2
	p_spi->SPI_CSR[ul_pcs_ch] &= (~SPI_CSR_BITS_Msk);
   80b64:	6b0b      	ldr	r3, [r1, #48]	; 0x30
   80b66:	f023 03f0 	bic.w	r3, r3, #240	; 0xf0
   80b6a:	630b      	str	r3, [r1, #48]	; 0x30
	p_spi->SPI_CSR[ul_pcs_ch] |= ul_bits;
   80b6c:	6b0b      	ldr	r3, [r1, #48]	; 0x30
   80b6e:	431a      	orrs	r2, r3
   80b70:	630a      	str	r2, [r1, #48]	; 0x30
   80b72:	4770      	bx	lr

00080b74 <spi_set_baudrate_div>:
 */
int16_t spi_set_baudrate_div(Spi *p_spi, uint32_t ul_pcs_ch,
		uint8_t uc_baudrate_divider)
{
    /* Programming the SCBR field to 0 is forbidden */
    if (!uc_baudrate_divider){
   80b74:	b172      	cbz	r2, 80b94 <spi_set_baudrate_div+0x20>
{
   80b76:	b410      	push	{r4}
   80b78:	4614      	mov	r4, r2
   80b7a:	eb00 0181 	add.w	r1, r0, r1, lsl #2
        return -1;
	}
	p_spi->SPI_CSR[ul_pcs_ch] &= (~SPI_CSR_SCBR_Msk);
   80b7e:	6b0b      	ldr	r3, [r1, #48]	; 0x30
   80b80:	f423 437f 	bic.w	r3, r3, #65280	; 0xff00
   80b84:	630b      	str	r3, [r1, #48]	; 0x30
	p_spi->SPI_CSR[ul_pcs_ch] |= SPI_CSR_SCBR(uc_baudrate_divider);
   80b86:	6b0a      	ldr	r2, [r1, #48]	; 0x30
   80b88:	ea42 2204 	orr.w	r2, r2, r4, lsl #8
   80b8c:	630a      	str	r2, [r1, #48]	; 0x30
    return 0;
   80b8e:	2000      	movs	r0, #0
}
   80b90:	bc10      	pop	{r4}
   80b92:	4770      	bx	lr
        return -1;
   80b94:	f04f 30ff 	mov.w	r0, #4294967295
   80b98:	4770      	bx	lr

00080b9a <spi_set_transfer_delay>:
 * \param uc_dlybs Delay before SPCK (in number of MCK clocks).
 * \param uc_dlybct Delay between consecutive transfers (in number of MCK clocks).
 */
void spi_set_transfer_delay(Spi *p_spi, uint32_t ul_pcs_ch,
		uint8_t uc_dlybs, uint8_t uc_dlybct)
{
   80b9a:	b410      	push	{r4}
   80b9c:	eb00 0181 	add.w	r1, r0, r1, lsl #2
	p_spi->SPI_CSR[ul_pcs_ch] &= ~(SPI_CSR_DLYBS_Msk | SPI_CSR_DLYBCT_Msk);
   80ba0:	6b08      	ldr	r0, [r1, #48]	; 0x30
   80ba2:	b280      	uxth	r0, r0
   80ba4:	6308      	str	r0, [r1, #48]	; 0x30
	p_spi->SPI_CSR[ul_pcs_ch] |= SPI_CSR_DLYBS(uc_dlybs)
   80ba6:	6b0c      	ldr	r4, [r1, #48]	; 0x30
   80ba8:	ea44 6303 	orr.w	r3, r4, r3, lsl #24
   80bac:	ea43 4302 	orr.w	r3, r3, r2, lsl #16
   80bb0:	630b      	str	r3, [r1, #48]	; 0x30
			| SPI_CSR_DLYBCT(uc_dlybct);
}
   80bb2:	bc10      	pop	{r4}
   80bb4:	4770      	bx	lr
	...

00080bb8 <spi_set_writeprotect>:
		p_spi->SPI_WPCR = SPI_WPCR_SPIWPKEY_VALUE | SPI_WPCR_SPIWPEN;
	} else {
		p_spi->SPI_WPCR = SPI_WPCR_SPIWPKEY_VALUE;
	}
#else
	if (ul_enable) {
   80bb8:	b919      	cbnz	r1, 80bc2 <spi_set_writeprotect+0xa>
		p_spi->SPI_WPMR = SPI_WPMR_WPKEY_PASSWD | SPI_WPMR_WPEN;
	} else {
		p_spi->SPI_WPMR = SPI_WPMR_WPKEY_PASSWD;
   80bba:	4b04      	ldr	r3, [pc, #16]	; (80bcc <spi_set_writeprotect+0x14>)
   80bbc:	f8c0 30e4 	str.w	r3, [r0, #228]	; 0xe4
   80bc0:	4770      	bx	lr
		p_spi->SPI_WPMR = SPI_WPMR_WPKEY_PASSWD | SPI_WPMR_WPEN;
   80bc2:	4b03      	ldr	r3, [pc, #12]	; (80bd0 <spi_set_writeprotect+0x18>)
   80bc4:	f8c0 30e4 	str.w	r3, [r0, #228]	; 0xe4
   80bc8:	4770      	bx	lr
   80bca:	bf00      	nop
   80bcc:	53504900 	.word	0x53504900
   80bd0:	53504901 	.word	0x53504901

00080bd4 <tc_init>:
 */
void tc_init(
		Tc *p_tc,
		uint32_t ul_channel,
		uint32_t ul_mode)
{
   80bd4:	b410      	push	{r4}

	/* Validate inputs. */
	Assert(p_tc);
	Assert(ul_channel <
			(sizeof(p_tc->TC_CHANNEL) / sizeof(p_tc->TC_CHANNEL[0])));
	tc_channel = p_tc->TC_CHANNEL + ul_channel;
   80bd6:	0189      	lsls	r1, r1, #6
   80bd8:	1843      	adds	r3, r0, r1

	/*  Disable TC clock. */
	tc_channel->TC_CCR = TC_CCR_CLKDIS;
   80bda:	2402      	movs	r4, #2
   80bdc:	5044      	str	r4, [r0, r1]

	/*  Disable interrupts. */
	tc_channel->TC_IDR = 0xFFFFFFFF;
   80bde:	f04f 31ff 	mov.w	r1, #4294967295
   80be2:	6299      	str	r1, [r3, #40]	; 0x28

	/*  Clear status register. */
	tc_channel->TC_SR;
   80be4:	6a19      	ldr	r1, [r3, #32]

	/*  Set mode. */
	tc_channel->TC_CMR = ul_mode;
   80be6:	605a      	str	r2, [r3, #4]
}
   80be8:	bc10      	pop	{r4}
   80bea:	4770      	bx	lr

00080bec <tc_start>:
	/* Validate inputs. */
	Assert(p_tc);
	Assert(ul_channel <
			(sizeof(p_tc->TC_CHANNEL) / sizeof(p_tc->TC_CHANNEL[0])));

	p_tc->TC_CHANNEL[ul_channel].TC_CCR = TC_CCR_CLKEN | TC_CCR_SWTRG;
   80bec:	0189      	lsls	r1, r1, #6
   80bee:	2305      	movs	r3, #5
   80bf0:	5043      	str	r3, [r0, r1]
   80bf2:	4770      	bx	lr

00080bf4 <tc_stop>:
	/* Validate inputs. */
	Assert(p_tc);
	Assert(ul_channel <
			(sizeof(p_tc->TC_CHANNEL) / sizeof(p_tc->TC_CHANNEL[0])));

	p_tc->TC_CHANNEL[ul_channel].TC_CCR = TC_CCR_CLKDIS;
   80bf4:	0189      	lsls	r1, r1, #6
   80bf6:	2302      	movs	r3, #2
   80bf8:	5043      	str	r3, [r0, r1]
   80bfa:	4770      	bx	lr

00080bfc <tc_set_writeprotect>:
		uint32_t ul_enable)
{
	/* Validate inputs. */
	Assert(p_tc);
	
	if (ul_enable) {
   80bfc:	b919      	cbnz	r1, 80c06 <tc_set_writeprotect+0xa>
		p_tc->TC_WPMR = TC_WPMR_WPKEY_PASSWD | TC_WPMR_WPEN;
	} else {
		p_tc->TC_WPMR = TC_WPMR_WPKEY_PASSWD;
   80bfe:	4b04      	ldr	r3, [pc, #16]	; (80c10 <tc_set_writeprotect+0x14>)
   80c00:	f8c0 30e4 	str.w	r3, [r0, #228]	; 0xe4
   80c04:	4770      	bx	lr
		p_tc->TC_WPMR = TC_WPMR_WPKEY_PASSWD | TC_WPMR_WPEN;
   80c06:	4b03      	ldr	r3, [pc, #12]	; (80c14 <tc_set_writeprotect+0x18>)
   80c08:	f8c0 30e4 	str.w	r3, [r0, #228]	; 0xe4
   80c0c:	4770      	bx	lr
   80c0e:	bf00      	nop
   80c10:	54494d00 	.word	0x54494d00
   80c14:	54494d01 	.word	0x54494d01

00080c18 <ADCC_Init>:
 *  Author: Daniel
 */ 
#include "ADCC.h"

void ADCC_Init()
{
   80c18:	b538      	push	{r3, r4, r5, lr}
	pmc_enable_periph_clk(ID_ADC);
   80c1a:	2025      	movs	r0, #37	; 0x25
   80c1c:	4b19      	ldr	r3, [pc, #100]	; (80c84 <ADCC_Init+0x6c>)
   80c1e:	4798      	blx	r3
	adc_init(ADC, sysclk_get_main_hz(),sysclk_get_main_hz()/4, ADC_STARTUP_TIME_5);
   80c20:	4c19      	ldr	r4, [pc, #100]	; (80c88 <ADCC_Init+0x70>)
   80c22:	f44f 23a0 	mov.w	r3, #327680	; 0x50000
   80c26:	4a19      	ldr	r2, [pc, #100]	; (80c8c <ADCC_Init+0x74>)
   80c28:	4919      	ldr	r1, [pc, #100]	; (80c90 <ADCC_Init+0x78>)
   80c2a:	4620      	mov	r0, r4
   80c2c:	4d19      	ldr	r5, [pc, #100]	; (80c94 <ADCC_Init+0x7c>)
   80c2e:	47a8      	blx	r5
	adc_configure_timing(ADC,20,ADC_SETTLING_TIME_0,50);
   80c30:	2332      	movs	r3, #50	; 0x32
   80c32:	2200      	movs	r2, #0
   80c34:	2114      	movs	r1, #20
   80c36:	4620      	mov	r0, r4
   80c38:	4d17      	ldr	r5, [pc, #92]	; (80c98 <ADCC_Init+0x80>)
   80c3a:	47a8      	blx	r5
	adc_configure_trigger(ADC,ADC_TRIG_TIO_CH_0,0);
   80c3c:	2200      	movs	r2, #0
   80c3e:	2103      	movs	r1, #3
   80c40:	4620      	mov	r0, r4
   80c42:	4b16      	ldr	r3, [pc, #88]	; (80c9c <ADCC_Init+0x84>)
   80c44:	4798      	blx	r3
	adc_disable_all_channel(ADC);
   80c46:	4620      	mov	r0, r4
   80c48:	4b15      	ldr	r3, [pc, #84]	; (80ca0 <ADCC_Init+0x88>)
   80c4a:	4798      	blx	r3
	adc_disable_interrupt(ADC, 0xFFFFFFFF);
   80c4c:	f04f 31ff 	mov.w	r1, #4294967295
   80c50:	4620      	mov	r0, r4
   80c52:	4b14      	ldr	r3, [pc, #80]	; (80ca4 <ADCC_Init+0x8c>)
   80c54:	4798      	blx	r3
	adc_set_resolution(ADC, ADC_12_BITS);
   80c56:	2100      	movs	r1, #0
   80c58:	4620      	mov	r0, r4
   80c5a:	4b13      	ldr	r3, [pc, #76]	; (80ca8 <ADCC_Init+0x90>)
   80c5c:	4798      	blx	r3
	adc_enable_channel(ADC,ADC_CHANNEL_0);
   80c5e:	2100      	movs	r1, #0
   80c60:	4620      	mov	r0, r4
   80c62:	4d12      	ldr	r5, [pc, #72]	; (80cac <ADCC_Init+0x94>)
   80c64:	47a8      	blx	r5
	adc_enable_channel(ADC,ADC_CHANNEL_1);
   80c66:	2101      	movs	r1, #1
   80c68:	4620      	mov	r0, r4
   80c6a:	47a8      	blx	r5
	adc_enable_interrupt(ADC,ADC_IER_EOC0);
   80c6c:	2101      	movs	r1, #1
   80c6e:	4620      	mov	r0, r4
   80c70:	4b0f      	ldr	r3, [pc, #60]	; (80cb0 <ADCC_Init+0x98>)
   80c72:	4798      	blx	r3

    \param [in]      IRQn  External interrupt number. Value cannot be negative.
 */
__STATIC_INLINE void NVIC_EnableIRQ(IRQn_Type IRQn)
{
  NVIC->ISER[((uint32_t)(IRQn) >> 5)] = (1 << ((uint32_t)(IRQn) & 0x1F)); /* enable interrupt */
   80c74:	2220      	movs	r2, #32
   80c76:	4b0f      	ldr	r3, [pc, #60]	; (80cb4 <ADCC_Init+0x9c>)
   80c78:	605a      	str	r2, [r3, #4]
	NVIC_EnableIRQ(ADC_IRQn);	
	adc_start(ADC);
   80c7a:	4620      	mov	r0, r4
   80c7c:	4b0e      	ldr	r3, [pc, #56]	; (80cb8 <ADCC_Init+0xa0>)
   80c7e:	4798      	blx	r3
   80c80:	bd38      	pop	{r3, r4, r5, pc}
   80c82:	bf00      	nop
   80c84:	00081501 	.word	0x00081501
   80c88:	400c0000 	.word	0x400c0000
   80c8c:	0280de80 	.word	0x0280de80
   80c90:	0a037a00 	.word	0x0a037a00
   80c94:	00080161 	.word	0x00080161
   80c98:	000801b3 	.word	0x000801b3
   80c9c:	000801a5 	.word	0x000801a5
   80ca0:	000801df 	.word	0x000801df
   80ca4:	000801eb 	.word	0x000801eb
   80ca8:	00080195 	.word	0x00080195
   80cac:	000801d5 	.word	0x000801d5
   80cb0:	000801e7 	.word	0x000801e7
   80cb4:	e000e100 	.word	0xe000e100
   80cb8:	000801cf 	.word	0x000801cf

00080cbc <SPI_InitPIO>:
	//Because we are using PORTB.PIN25 in peripheral B mode
	//	we need to enable the clock for that line.
	//PMC->PMC_PCER0 |= _BV(ID_PIOA);
	
	//configure for input
	PIOA->PIO_PDR |= PIO_PA25;
   80cbc:	4b1a      	ldr	r3, [pc, #104]	; (80d28 <SPI_InitPIO+0x6c>)
   80cbe:	685a      	ldr	r2, [r3, #4]
   80cc0:	f042 7200 	orr.w	r2, r2, #33554432	; 0x2000000
   80cc4:	605a      	str	r2, [r3, #4]
	PIOA->PIO_ODR |= PIO_PA25;		//Input
   80cc6:	695a      	ldr	r2, [r3, #20]
   80cc8:	f042 7200 	orr.w	r2, r2, #33554432	; 0x2000000
   80ccc:	615a      	str	r2, [r3, #20]
	PIOA->PIO_PUER |= PIO_PA25;		//pull-up
   80cce:	6e5a      	ldr	r2, [r3, #100]	; 0x64
   80cd0:	f042 7200 	orr.w	r2, r2, #33554432	; 0x2000000
   80cd4:	665a      	str	r2, [r3, #100]	; 0x64
	
	PIOA->PIO_PDR |= PIO_PA26;		//MOSI
   80cd6:	685a      	ldr	r2, [r3, #4]
   80cd8:	f042 6280 	orr.w	r2, r2, #67108864	; 0x4000000
   80cdc:	605a      	str	r2, [r3, #4]
	PIOA->PIO_OER |= PIO_PA26;		//MOSI	Output
   80cde:	691a      	ldr	r2, [r3, #16]
   80ce0:	f042 6280 	orr.w	r2, r2, #67108864	; 0x4000000
   80ce4:	611a      	str	r2, [r3, #16]
	PIOA->PIO_ABSR &= ~PIO_PA26;	//Peripheral A
   80ce6:	6f1a      	ldr	r2, [r3, #112]	; 0x70
   80ce8:	f022 6280 	bic.w	r2, r2, #67108864	; 0x4000000
   80cec:	671a      	str	r2, [r3, #112]	; 0x70
	
	PIOA->PIO_PDR |= PIO_PA27;		//SPCK
   80cee:	685a      	ldr	r2, [r3, #4]
   80cf0:	f042 6200 	orr.w	r2, r2, #134217728	; 0x8000000
   80cf4:	605a      	str	r2, [r3, #4]
	PIOA->PIO_OER |= PIO_PA27;		//SPCK	Output
   80cf6:	691a      	ldr	r2, [r3, #16]
   80cf8:	f042 6200 	orr.w	r2, r2, #134217728	; 0x8000000
   80cfc:	611a      	str	r2, [r3, #16]
	PIOA->PIO_ABSR &= ~PIO_PA27;	//Peripheral A
   80cfe:	6f1a      	ldr	r2, [r3, #112]	; 0x70
   80d00:	f022 6200 	bic.w	r2, r2, #134217728	; 0x8000000
   80d04:	671a      	str	r2, [r3, #112]	; 0x70
	
	PIOA->PIO_PDR |= PIO_PA28;		//NPCS0
   80d06:	685a      	ldr	r2, [r3, #4]
   80d08:	f042 5280 	orr.w	r2, r2, #268435456	; 0x10000000
   80d0c:	605a      	str	r2, [r3, #4]
	PIOA->PIO_OER |= PIO_PA28;		//NPCS0	Output
   80d0e:	691a      	ldr	r2, [r3, #16]
   80d10:	f042 5280 	orr.w	r2, r2, #268435456	; 0x10000000
   80d14:	611a      	str	r2, [r3, #16]
	PIOA->PIO_ABSR &= ~PIO_PA28;	//Peripheral A
   80d16:	6f1a      	ldr	r2, [r3, #112]	; 0x70
   80d18:	f022 5280 	bic.w	r2, r2, #268435456	; 0x10000000
   80d1c:	671a      	str	r2, [r3, #112]	; 0x70
	PIOA->PIO_PUER |= PIO_PA28;		//pull-up
   80d1e:	6e5a      	ldr	r2, [r3, #100]	; 0x64
   80d20:	f042 5280 	orr.w	r2, r2, #268435456	; 0x10000000
   80d24:	665a      	str	r2, [r3, #100]	; 0x64
   80d26:	4770      	bx	lr
   80d28:	400e0e00 	.word	0x400e0e00

00080d2c <SPI_Init>:
}

void SPI_Init(void)
{
   80d2c:	b538      	push	{r3, r4, r5, lr}
	int i;
	pmc_enable_periph_clk(ID_SPI0);
   80d2e:	2018      	movs	r0, #24
   80d30:	4b2a      	ldr	r3, [pc, #168]	; (80ddc <SPI_Init+0xb0>)
   80d32:	4798      	blx	r3
	spi_set_writeprotect(SPI0, 0);
   80d34:	4c2a      	ldr	r4, [pc, #168]	; (80de0 <SPI_Init+0xb4>)
   80d36:	2100      	movs	r1, #0
   80d38:	4620      	mov	r0, r4
   80d3a:	4b2a      	ldr	r3, [pc, #168]	; (80de4 <SPI_Init+0xb8>)
   80d3c:	4798      	blx	r3
	SPI_InitPIO();
   80d3e:	4b2a      	ldr	r3, [pc, #168]	; (80de8 <SPI_Init+0xbc>)
   80d40:	4798      	blx	r3
	p_spi->SPI_CR = SPI_CR_SWRST;
   80d42:	2380      	movs	r3, #128	; 0x80
   80d44:	6023      	str	r3, [r4, #0]
   80d46:	f64f 73ff 	movw	r3, #65535	; 0xffff
  __ASM volatile ("nop");
   80d4a:	bf00      	nop
	spi_reset(SPI0);	
	for(i=0;i<0xffff;i++)
   80d4c:	3b01      	subs	r3, #1
   80d4e:	d1fc      	bne.n	80d4a <SPI_Init+0x1e>
	p_spi->SPI_CR = SPI_CR_SPIDIS;
   80d50:	4c23      	ldr	r4, [pc, #140]	; (80de0 <SPI_Init+0xb4>)
   80d52:	2302      	movs	r3, #2
   80d54:	6023      	str	r3, [r4, #0]
	p_spi->SPI_MR |= SPI_MR_MSTR;
   80d56:	6863      	ldr	r3, [r4, #4]
   80d58:	f043 0301 	orr.w	r3, r3, #1
   80d5c:	6063      	str	r3, [r4, #4]
 *
 * \param p_spi Pointer to an SPI instance.
 */
static inline void spi_disable_mode_fault_detect(Spi *p_spi)
{
	p_spi->SPI_MR |= SPI_MR_MODFDIS;
   80d5e:	6863      	ldr	r3, [r4, #4]
   80d60:	f043 0310 	orr.w	r3, r3, #16
   80d64:	6063      	str	r3, [r4, #4]
 *
 * \param p_spi Pointer to an SPI instance.
 */
static inline void spi_disable_loopback(Spi *p_spi)
{
	p_spi->SPI_MR &= (~SPI_MR_LLB);
   80d66:	6863      	ldr	r3, [r4, #4]
   80d68:	f023 0380 	bic.w	r3, r3, #128	; 0x80
   80d6c:	6063      	str	r3, [r4, #4]
		__NOP();
	spi_disable(SPI0);
	spi_set_master_mode(SPI0);
	spi_disable_mode_fault_detect(SPI0);
	spi_disable_loopback(SPI0);
	spi_set_peripheral_chip_select_value(SPI0, spi_get_pcs(DEFAULT_CHIP_ID)); //NPCS[3:0]=1110b
   80d6e:	210e      	movs	r1, #14
   80d70:	4620      	mov	r0, r4
   80d72:	4b1e      	ldr	r3, [pc, #120]	; (80dec <SPI_Init+0xc0>)
   80d74:	4798      	blx	r3
	p_spi->SPI_MR |= SPI_MR_PS;
   80d76:	6863      	ldr	r3, [r4, #4]
   80d78:	f043 0302 	orr.w	r3, r3, #2
   80d7c:	6063      	str	r3, [r4, #4]
	p_spi->SPI_MR &= (~SPI_MR_PCSDEC);
   80d7e:	6863      	ldr	r3, [r4, #4]
   80d80:	f023 0304 	bic.w	r3, r3, #4
   80d84:	6063      	str	r3, [r4, #4]
	spi_set_variable_peripheral_select(SPI0);
	spi_disable_peripheral_select_decode(SPI0);
	spi_set_delay_between_chip_select(SPI0, 6);
   80d86:	2106      	movs	r1, #6
   80d88:	4620      	mov	r0, r4
   80d8a:	4b19      	ldr	r3, [pc, #100]	; (80df0 <SPI_Init+0xc4>)
   80d8c:	4798      	blx	r3
	spi_set_clock_polarity(SPI0,0,false);
   80d8e:	2200      	movs	r2, #0
   80d90:	4611      	mov	r1, r2
   80d92:	4620      	mov	r0, r4
   80d94:	4b17      	ldr	r3, [pc, #92]	; (80df4 <SPI_Init+0xc8>)
   80d96:	4798      	blx	r3
	spi_set_clock_phase(SPI0, 0, true);
   80d98:	2201      	movs	r2, #1
   80d9a:	2100      	movs	r1, #0
   80d9c:	4620      	mov	r0, r4
   80d9e:	4b16      	ldr	r3, [pc, #88]	; (80df8 <SPI_Init+0xcc>)
   80da0:	4798      	blx	r3
	spi_set_baudrate_div(SPI0,0,21); //SCLK = 4Mhz
   80da2:	2215      	movs	r2, #21
   80da4:	2100      	movs	r1, #0
   80da6:	4620      	mov	r0, r4
   80da8:	4b14      	ldr	r3, [pc, #80]	; (80dfc <SPI_Init+0xd0>)
   80daa:	4798      	blx	r3
	spi_set_bits_per_transfer(SPI0,0,0);
   80dac:	2200      	movs	r2, #0
   80dae:	4611      	mov	r1, r2
   80db0:	4620      	mov	r0, r4
   80db2:	4b13      	ldr	r3, [pc, #76]	; (80e00 <SPI_Init+0xd4>)
   80db4:	4798      	blx	r3
	spi_set_transfer_delay(SPI0,0,10,1); //
   80db6:	2301      	movs	r3, #1
   80db8:	220a      	movs	r2, #10
   80dba:	2100      	movs	r1, #0
   80dbc:	4620      	mov	r0, r4
   80dbe:	4d11      	ldr	r5, [pc, #68]	; (80e04 <SPI_Init+0xd8>)
   80dc0:	47a8      	blx	r5
	spi_configure_cs_behavior(SPI0, 0, SPI_CS_KEEP_LOW);
   80dc2:	2208      	movs	r2, #8
   80dc4:	2100      	movs	r1, #0
   80dc6:	4620      	mov	r0, r4
   80dc8:	4b0f      	ldr	r3, [pc, #60]	; (80e08 <SPI_Init+0xdc>)
   80dca:	4798      	blx	r3
	SPI0->SPI_IER = 0;	
   80dcc:	2300      	movs	r3, #0
   80dce:	6163      	str	r3, [r4, #20]
	p_spi->SPI_CR = SPI_CR_SPIEN;
   80dd0:	2101      	movs	r1, #1
   80dd2:	6021      	str	r1, [r4, #0]
	spi_enable(SPI0);
	spi_set_writeprotect(SPI0, 1);
   80dd4:	4620      	mov	r0, r4
   80dd6:	4b03      	ldr	r3, [pc, #12]	; (80de4 <SPI_Init+0xb8>)
   80dd8:	4798      	blx	r3
   80dda:	bd38      	pop	{r3, r4, r5, pc}
   80ddc:	00081501 	.word	0x00081501
   80de0:	40008000 	.word	0x40008000
   80de4:	00080bb9 	.word	0x00080bb9
   80de8:	00080cbd 	.word	0x00080cbd
   80dec:	00080a55 	.word	0x00080a55
   80df0:	00080a6b 	.word	0x00080a6b
   80df4:	00080adf 	.word	0x00080adf
   80df8:	00080afd 	.word	0x00080afd
   80dfc:	00080b75 	.word	0x00080b75
   80e00:	00080b61 	.word	0x00080b61
   80e04:	00080b9b 	.word	0x00080b9b
   80e08:	00080b1b 	.word	0x00080b1b

00080e0c <SPIC_Write>:
*
* \retval 1 on Success.
* \retval 0 on Failure.
*/
uint16_t SPIC_Write(uint16_t *data, int length, uint16_t *SR)
{
   80e0c:	e92d 4ff0 	stmdb	sp!, {r4, r5, r6, r7, r8, r9, sl, fp, lr}
   80e10:	b085      	sub	sp, #20
   80e12:	4682      	mov	sl, r0
   80e14:	4689      	mov	r9, r1
   80e16:	9201      	str	r2, [sp, #4]
	int i;
	uint8_t Pcs;
	if(SPI0->SPI_SR & SPI_SR_RDRF) // Something to clear
   80e18:	4b28      	ldr	r3, [pc, #160]	; (80ebc <SPIC_Write+0xb0>)
   80e1a:	691b      	ldr	r3, [r3, #16]
   80e1c:	f013 0f01 	tst.w	r3, #1
   80e20:	d12b      	bne.n	80e7a <SPIC_Write+0x6e>
		spi_read(SPI0,SR,&Pcs);	
	if(length>1)
   80e22:	f1b9 0f01 	cmp.w	r9, #1
   80e26:	dd35      	ble.n	80e94 <SPIC_Write+0x88>
	{
		for (i=0; i<(length-1);i++)
   80e28:	f109 33ff 	add.w	r3, r9, #4294967295
   80e2c:	2b00      	cmp	r3, #0
   80e2e:	dd13      	ble.n	80e58 <SPIC_Write+0x4c>
   80e30:	f1aa 0502 	sub.w	r5, sl, #2
   80e34:	4698      	mov	r8, r3
   80e36:	2400      	movs	r4, #0
		{		
			if(spi_write(SPI0,data[i],0,0) != SPI_OK)
   80e38:	4e20      	ldr	r6, [pc, #128]	; (80ebc <SPIC_Write+0xb0>)
   80e3a:	4f21      	ldr	r7, [pc, #132]	; (80ec0 <SPIC_Write+0xb4>)
				return 0;
			if(i==0)
				spi_read(SPI0,SR,&Pcs);
   80e3c:	f8df b084 	ldr.w	fp, [pc, #132]	; 80ec4 <SPIC_Write+0xb8>
			if(spi_write(SPI0,data[i],0,0) != SPI_OK)
   80e40:	2300      	movs	r3, #0
   80e42:	461a      	mov	r2, r3
   80e44:	f835 1f02 	ldrh.w	r1, [r5, #2]!
   80e48:	4630      	mov	r0, r6
   80e4a:	47b8      	blx	r7
   80e4c:	2800      	cmp	r0, #0
   80e4e:	d133      	bne.n	80eb8 <SPIC_Write+0xac>
			if(i==0)
   80e50:	b1d4      	cbz	r4, 80e88 <SPIC_Write+0x7c>
		for (i=0; i<(length-1);i++)
   80e52:	3401      	adds	r4, #1
   80e54:	4544      	cmp	r4, r8
   80e56:	d1f3      	bne.n	80e40 <SPIC_Write+0x34>
		}
		if(spi_write(SPI0,data[length-1],0,1) != SPI_OK)
   80e58:	f109 4900 	add.w	r9, r9, #2147483648	; 0x80000000
   80e5c:	f109 39ff 	add.w	r9, r9, #4294967295
   80e60:	2301      	movs	r3, #1
   80e62:	2200      	movs	r2, #0
   80e64:	f83a 1019 	ldrh.w	r1, [sl, r9, lsl #1]
   80e68:	4814      	ldr	r0, [pc, #80]	; (80ebc <SPIC_Write+0xb0>)
   80e6a:	4c15      	ldr	r4, [pc, #84]	; (80ec0 <SPIC_Write+0xb4>)
   80e6c:	47a0      	blx	r4
				return 0;
   80e6e:	fab0 f080 	clz	r0, r0
   80e72:	0940      	lsrs	r0, r0, #5
		if(spi_write(SPI0,data[0],0,1) != SPI_OK)
			return 0;
		spi_read(SPI0,SR,&Pcs);
	}
	return 1;
}
   80e74:	b005      	add	sp, #20
   80e76:	e8bd 8ff0 	ldmia.w	sp!, {r4, r5, r6, r7, r8, r9, sl, fp, pc}
		spi_read(SPI0,SR,&Pcs);	
   80e7a:	f10d 020f 	add.w	r2, sp, #15
   80e7e:	9901      	ldr	r1, [sp, #4]
   80e80:	480e      	ldr	r0, [pc, #56]	; (80ebc <SPIC_Write+0xb0>)
   80e82:	4b10      	ldr	r3, [pc, #64]	; (80ec4 <SPIC_Write+0xb8>)
   80e84:	4798      	blx	r3
   80e86:	e7cc      	b.n	80e22 <SPIC_Write+0x16>
				spi_read(SPI0,SR,&Pcs);
   80e88:	f10d 020f 	add.w	r2, sp, #15
   80e8c:	9901      	ldr	r1, [sp, #4]
   80e8e:	4630      	mov	r0, r6
   80e90:	47d8      	blx	fp
   80e92:	e7de      	b.n	80e52 <SPIC_Write+0x46>
		if(spi_write(SPI0,data[0],0,1) != SPI_OK)
   80e94:	2301      	movs	r3, #1
   80e96:	2200      	movs	r2, #0
   80e98:	f8ba 1000 	ldrh.w	r1, [sl]
   80e9c:	4807      	ldr	r0, [pc, #28]	; (80ebc <SPIC_Write+0xb0>)
   80e9e:	4c08      	ldr	r4, [pc, #32]	; (80ec0 <SPIC_Write+0xb4>)
   80ea0:	47a0      	blx	r4
   80ea2:	b108      	cbz	r0, 80ea8 <SPIC_Write+0x9c>
			return 0;
   80ea4:	2000      	movs	r0, #0
   80ea6:	e7e5      	b.n	80e74 <SPIC_Write+0x68>
		spi_read(SPI0,SR,&Pcs);
   80ea8:	f10d 020f 	add.w	r2, sp, #15
   80eac:	9901      	ldr	r1, [sp, #4]
   80eae:	4803      	ldr	r0, [pc, #12]	; (80ebc <SPIC_Write+0xb0>)
   80eb0:	4b04      	ldr	r3, [pc, #16]	; (80ec4 <SPIC_Write+0xb8>)
   80eb2:	4798      	blx	r3
	return 1;
   80eb4:	2001      	movs	r0, #1
   80eb6:	e7dd      	b.n	80e74 <SPIC_Write+0x68>
				return 0;
   80eb8:	2000      	movs	r0, #0
   80eba:	e7db      	b.n	80e74 <SPIC_Write+0x68>
   80ebc:	40008000 	.word	0x40008000
   80ec0:	00080aab 	.word	0x00080aab
   80ec4:	00080a7d 	.word	0x00080a7d

00080ec8 <SPIC_Read>:
*
* \retval 1 on Success.
* \retval 0 on Failure.
*/
uint16_t SPIC_Read(uint16_t *data, int length, uint16_t *SR, uint16_t *Resp)
{
   80ec8:	e92d 4ff0 	stmdb	sp!, {r4, r5, r6, r7, r8, r9, sl, fp, lr}
   80ecc:	b087      	sub	sp, #28
   80ece:	9001      	str	r0, [sp, #4]
   80ed0:	468b      	mov	fp, r1
   80ed2:	9203      	str	r2, [sp, #12]
   80ed4:	9302      	str	r3, [sp, #8]
	int i;
	uint8_t Pcs;
	if(SPI0->SPI_SR & SPI_SR_RDRF) // Something to clear
   80ed6:	4b2a      	ldr	r3, [pc, #168]	; (80f80 <SPIC_Read+0xb8>)
   80ed8:	691b      	ldr	r3, [r3, #16]
   80eda:	f013 0f01 	tst.w	r3, #1
   80ede:	d132      	bne.n	80f46 <SPIC_Read+0x7e>
		spi_read(SPI0,SR,&Pcs);
	for (i=0; i<(length-1);i++)
   80ee0:	f10b 33ff 	add.w	r3, fp, #4294967295
   80ee4:	2b00      	cmp	r3, #0
   80ee6:	dd1d      	ble.n	80f24 <SPIC_Read+0x5c>
   80ee8:	9b01      	ldr	r3, [sp, #4]
   80eea:	1e9e      	subs	r6, r3, #2
   80eec:	9b02      	ldr	r3, [sp, #8]
   80eee:	1e9d      	subs	r5, r3, #2
   80ef0:	f10b 3aff 	add.w	sl, fp, #4294967295
   80ef4:	2400      	movs	r4, #0
	{
		if(spi_write(SPI0,data[i],0,0) != SPI_OK)	
   80ef6:	4f22      	ldr	r7, [pc, #136]	; (80f80 <SPIC_Read+0xb8>)
   80ef8:	f8df 8088 	ldr.w	r8, [pc, #136]	; 80f84 <SPIC_Read+0xbc>
			return 0;
		if(i==0)
			spi_read(SPI0,SR,&Pcs);
		else
			spi_read(SPI0,&Resp[i-1],&Pcs);
   80efc:	f8df 9088 	ldr.w	r9, [pc, #136]	; 80f88 <SPIC_Read+0xc0>
		if(spi_write(SPI0,data[i],0,0) != SPI_OK)	
   80f00:	2300      	movs	r3, #0
   80f02:	461a      	mov	r2, r3
   80f04:	f836 1f02 	ldrh.w	r1, [r6, #2]!
   80f08:	4638      	mov	r0, r7
   80f0a:	47c0      	blx	r8
   80f0c:	2800      	cmp	r0, #0
   80f0e:	d132      	bne.n	80f76 <SPIC_Read+0xae>
		if(i==0)
   80f10:	b304      	cbz	r4, 80f54 <SPIC_Read+0x8c>
			spi_read(SPI0,&Resp[i-1],&Pcs);
   80f12:	f10d 0217 	add.w	r2, sp, #23
   80f16:	4629      	mov	r1, r5
   80f18:	4638      	mov	r0, r7
   80f1a:	47c8      	blx	r9
	for (i=0; i<(length-1);i++)
   80f1c:	3401      	adds	r4, #1
   80f1e:	3502      	adds	r5, #2
   80f20:	4554      	cmp	r4, sl
   80f22:	d1ed      	bne.n	80f00 <SPIC_Read+0x38>
	}
	if(spi_write(SPI0,data[length-1],0,1) != SPI_OK)	
   80f24:	f10b 4b00 	add.w	fp, fp, #2147483648	; 0x80000000
   80f28:	f10b 3bff 	add.w	fp, fp, #4294967295
   80f2c:	ea4f 044b 	mov.w	r4, fp, lsl #1
   80f30:	2301      	movs	r3, #1
   80f32:	2200      	movs	r2, #0
   80f34:	9901      	ldr	r1, [sp, #4]
   80f36:	f831 101b 	ldrh.w	r1, [r1, fp, lsl #1]
   80f3a:	4811      	ldr	r0, [pc, #68]	; (80f80 <SPIC_Read+0xb8>)
   80f3c:	4d11      	ldr	r5, [pc, #68]	; (80f84 <SPIC_Read+0xbc>)
   80f3e:	47a8      	blx	r5
   80f40:	b170      	cbz	r0, 80f60 <SPIC_Read+0x98>
		return 0;
   80f42:	2000      	movs	r0, #0
   80f44:	e018      	b.n	80f78 <SPIC_Read+0xb0>
		spi_read(SPI0,SR,&Pcs);
   80f46:	f10d 0217 	add.w	r2, sp, #23
   80f4a:	9903      	ldr	r1, [sp, #12]
   80f4c:	480c      	ldr	r0, [pc, #48]	; (80f80 <SPIC_Read+0xb8>)
   80f4e:	4b0e      	ldr	r3, [pc, #56]	; (80f88 <SPIC_Read+0xc0>)
   80f50:	4798      	blx	r3
   80f52:	e7c5      	b.n	80ee0 <SPIC_Read+0x18>
			spi_read(SPI0,SR,&Pcs);
   80f54:	f10d 0217 	add.w	r2, sp, #23
   80f58:	9903      	ldr	r1, [sp, #12]
   80f5a:	4638      	mov	r0, r7
   80f5c:	47c8      	blx	r9
   80f5e:	e7dd      	b.n	80f1c <SPIC_Read+0x54>
	spi_read(SPI0,&Resp[length-2],&Pcs);
   80f60:	1ea1      	subs	r1, r4, #2
   80f62:	f10d 0217 	add.w	r2, sp, #23
   80f66:	9b02      	ldr	r3, [sp, #8]
   80f68:	440b      	add	r3, r1
   80f6a:	4619      	mov	r1, r3
   80f6c:	4804      	ldr	r0, [pc, #16]	; (80f80 <SPIC_Read+0xb8>)
   80f6e:	4b06      	ldr	r3, [pc, #24]	; (80f88 <SPIC_Read+0xc0>)
   80f70:	4798      	blx	r3
	return 1;
   80f72:	2001      	movs	r0, #1
   80f74:	e000      	b.n	80f78 <SPIC_Read+0xb0>
			return 0;
   80f76:	2000      	movs	r0, #0
   80f78:	b007      	add	sp, #28
   80f7a:	e8bd 8ff0 	ldmia.w	sp!, {r4, r5, r6, r7, r8, r9, sl, fp, pc}
   80f7e:	bf00      	nop
   80f80:	40008000 	.word	0x40008000
   80f84:	00080aab 	.word	0x00080aab
   80f88:	00080a7d 	.word	0x00080a7d

00080f8c <Timer_init>:
 */ 
#include "Timer.h"
#include "Prints.h"

void Timer_init(void)
{
   80f8c:	b538      	push	{r3, r4, r5, lr}
	pmc_enable_periph_clk(ID_TC0);
   80f8e:	201b      	movs	r0, #27
   80f90:	4c14      	ldr	r4, [pc, #80]	; (80fe4 <Timer_init+0x58>)
   80f92:	47a0      	blx	r4
	pmc_enable_periph_clk(ID_TC1);
   80f94:	201c      	movs	r0, #28
   80f96:	47a0      	blx	r4
	tc_set_writeprotect(TC0,0);
   80f98:	4c13      	ldr	r4, [pc, #76]	; (80fe8 <Timer_init+0x5c>)
   80f9a:	2100      	movs	r1, #0
   80f9c:	4620      	mov	r0, r4
   80f9e:	4b13      	ldr	r3, [pc, #76]	; (80fec <Timer_init+0x60>)
   80fa0:	4798      	blx	r3
	
	REG_PIOB_ABSR |= PIO_ABSR_P25;     // Switch the multiplexer to peripheral B for TIOA0
   80fa2:	4a13      	ldr	r2, [pc, #76]	; (80ff0 <Timer_init+0x64>)
   80fa4:	6813      	ldr	r3, [r2, #0]
   80fa6:	f043 7300 	orr.w	r3, r3, #33554432	; 0x2000000
   80faa:	6013      	str	r3, [r2, #0]
	REG_PIOB_PDR |= PIO_PDR_P25;        // Disable the GPIO on the corresponding pins
   80fac:	3a6c      	subs	r2, #108	; 0x6c
   80fae:	6813      	ldr	r3, [r2, #0]
   80fb0:	f043 7300 	orr.w	r3, r3, #33554432	; 0x2000000
   80fb4:	6013      	str	r3, [r2, #0]
	tc_init(TC0,0,TC_CMR_WAVE|TC_CMR_WAVSEL_UP_RC|TC_CMR_ACPA_SET|TC_CMR_ACPC_CLEAR|TC_CMR_TCCLKS_TIMER_CLOCK2); // divide MCLK by 8 
   80fb6:	4a0f      	ldr	r2, [pc, #60]	; (80ff4 <Timer_init+0x68>)
   80fb8:	2100      	movs	r1, #0
   80fba:	4620      	mov	r0, r4
   80fbc:	4d0e      	ldr	r5, [pc, #56]	; (80ff8 <Timer_init+0x6c>)
   80fbe:	47a8      	blx	r5
	tc_init(TC0,1,TC_CMR_TCCLKS_TIMER_CLOCK4); // divide MCLK by 128
   80fc0:	2203      	movs	r2, #3
   80fc2:	2101      	movs	r1, #1
   80fc4:	4620      	mov	r0, r4
   80fc6:	47a8      	blx	r5
	TC0->TC_CHANNEL[0].TC_RC = 210;//238; // 210 cycles of MCLK/8 to reach 50Khz  -- 420 to reach 25KHz -- 230 to 45.6KHz~
   80fc8:	23d2      	movs	r3, #210	; 0xd2
   80fca:	61e3      	str	r3, [r4, #28]
	TC0->TC_CHANNEL[0].TC_RA = 105;//119; // 105 for 50Khz , 210 for 25kH
   80fcc:	2369      	movs	r3, #105	; 0x69
   80fce:	6163      	str	r3, [r4, #20]

    \param [in]      IRQn  External interrupt number. Value cannot be negative.
 */
__STATIC_INLINE void NVIC_DisableIRQ(IRQn_Type IRQn)
{
  NVIC->ICER[((uint32_t)(IRQn) >> 5)] = (1 << ((uint32_t)(IRQn) & 0x1F)); /* disable interrupt */
   80fd0:	f04f 6200 	mov.w	r2, #134217728	; 0x8000000
   80fd4:	4b09      	ldr	r3, [pc, #36]	; (80ffc <Timer_init+0x70>)
   80fd6:	f8c3 2080 	str.w	r2, [r3, #128]	; 0x80
	NVIC_DisableIRQ(TC0_IRQn);
	//NVIC_EnableIRQ(TC0_IRQn);
	//tc_enable_interrupt(TC0,0,TC_IER_CPCS);
	tc_start(TC0,0);
   80fda:	2100      	movs	r1, #0
   80fdc:	4620      	mov	r0, r4
   80fde:	4b08      	ldr	r3, [pc, #32]	; (81000 <Timer_init+0x74>)
   80fe0:	4798      	blx	r3
   80fe2:	bd38      	pop	{r3, r4, r5, pc}
   80fe4:	00081501 	.word	0x00081501
   80fe8:	40080000 	.word	0x40080000
   80fec:	00080bfd 	.word	0x00080bfd
   80ff0:	400e1070 	.word	0x400e1070
   80ff4:	0009c001 	.word	0x0009c001
   80ff8:	00080bd5 	.word	0x00080bd5
   80ffc:	e000e100 	.word	0xe000e100
   81000:	00080bed 	.word	0x00080bed

00081004 <Timer_Sleep>:
	
}

void Timer_Sleep(uint32_t msDelay)
{
   81004:	b510      	push	{r4, lr}
   81006:	4604      	mov	r4, r0
	tc_start(TC0,1);	
   81008:	2101      	movs	r1, #1
   8100a:	4808      	ldr	r0, [pc, #32]	; (8102c <Timer_Sleep+0x28>)
   8100c:	4b08      	ldr	r3, [pc, #32]	; (81030 <Timer_Sleep+0x2c>)
   8100e:	4798      	blx	r3
	//PrintLn("wait\n");
	while(TC0->TC_CHANNEL[1].TC_CV < 656*msDelay);
   81010:	f44f 7024 	mov.w	r0, #656	; 0x290
   81014:	fb00 f004 	mul.w	r0, r0, r4
   81018:	4a04      	ldr	r2, [pc, #16]	; (8102c <Timer_Sleep+0x28>)
   8101a:	6d13      	ldr	r3, [r2, #80]	; 0x50
   8101c:	4283      	cmp	r3, r0
   8101e:	d3fc      	bcc.n	8101a <Timer_Sleep+0x16>
	//PrintLn("done wait\n");
	tc_stop(TC0,1);
   81020:	2101      	movs	r1, #1
   81022:	4802      	ldr	r0, [pc, #8]	; (8102c <Timer_Sleep+0x28>)
   81024:	4b03      	ldr	r3, [pc, #12]	; (81034 <Timer_Sleep+0x30>)
   81026:	4798      	blx	r3
   81028:	bd10      	pop	{r4, pc}
   8102a:	bf00      	nop
   8102c:	40080000 	.word	0x40080000
   81030:	00080bed 	.word	0x00080bed
   81034:	00080bf5 	.word	0x00080bf5

00081038 <sysclk_init>:
	pmc_disable_udpck();
}
#endif // CONFIG_USBCLK_SOURCE

void sysclk_init(void)
{
   81038:	b510      	push	{r4, lr}
	struct pll_config pllcfg;

	/* Set flash wait state to max in case the below clock switching. */
	system_init_flash(CHIP_FREQ_CPU_MAX);
   8103a:	480e      	ldr	r0, [pc, #56]	; (81074 <sysclk_init+0x3c>)
   8103c:	4b0e      	ldr	r3, [pc, #56]	; (81078 <sysclk_init+0x40>)
   8103e:	4798      	blx	r3
		pmc_switch_mainck_to_fastrc(CKGR_MOR_MOSCRCF_12_MHz);
		break;


	case OSC_MAINCK_XTAL:
		pmc_switch_mainck_to_xtal(PMC_OSC_XTAL,
   81040:	213e      	movs	r1, #62	; 0x3e
   81042:	2000      	movs	r0, #0
   81044:	4b0d      	ldr	r3, [pc, #52]	; (8107c <sysclk_init+0x44>)
   81046:	4798      	blx	r3
	case OSC_MAINCK_4M_RC:
	case OSC_MAINCK_8M_RC:
	case OSC_MAINCK_12M_RC:
	case OSC_MAINCK_XTAL:
	case OSC_MAINCK_BYPASS:
		return pmc_osc_is_ready_mainck();
   81048:	4c0d      	ldr	r4, [pc, #52]	; (81080 <sysclk_init+0x48>)
   8104a:	47a0      	blx	r4
 *
 * \param id A number identifying the oscillator to wait for.
 */
static inline void osc_wait_ready(uint8_t id)
{
	while (!osc_is_ready(id)) {
   8104c:	2800      	cmp	r0, #0
   8104e:	d0fc      	beq.n	8104a <sysclk_init+0x12>
static inline void pll_enable(const struct pll_config *p_cfg, uint32_t ul_pll_id)
{
	Assert(ul_pll_id < NR_PLLS);

	if (ul_pll_id == PLLA_ID) {
		pmc_disable_pllack(); // Always stop PLL first!
   81050:	4b0c      	ldr	r3, [pc, #48]	; (81084 <sysclk_init+0x4c>)
   81052:	4798      	blx	r3
		PMC->CKGR_PLLAR = CKGR_PLLAR_ONE | p_cfg->ctrl;
   81054:	4a0c      	ldr	r2, [pc, #48]	; (81088 <sysclk_init+0x50>)
   81056:	4b0d      	ldr	r3, [pc, #52]	; (8108c <sysclk_init+0x54>)
   81058:	629a      	str	r2, [r3, #40]	; 0x28
static inline uint32_t pll_is_locked(uint32_t ul_pll_id)
{
	Assert(ul_pll_id < NR_PLLS);

	if (ul_pll_id == PLLA_ID) {
		return pmc_is_locked_pllack();
   8105a:	4c0d      	ldr	r4, [pc, #52]	; (81090 <sysclk_init+0x58>)
   8105c:	47a0      	blx	r4
 */
static inline int pll_wait_for_lock(unsigned int pll_id)
{
	Assert(pll_id < NR_PLLS);

	while (!pll_is_locked(pll_id)) {
   8105e:	2800      	cmp	r0, #0
   81060:	d0fc      	beq.n	8105c <sysclk_init+0x24>
	else if (CONFIG_SYSCLK_SOURCE == SYSCLK_SRC_PLLACK) {
		pll_enable_source(CONFIG_PLL0_SOURCE);
		pll_config_defaults(&pllcfg, 0);
		pll_enable(&pllcfg, 0);
		pll_wait_for_lock(0);
		pmc_switch_mck_to_pllack(CONFIG_SYSCLK_PRES);
   81062:	2010      	movs	r0, #16
   81064:	4b0b      	ldr	r3, [pc, #44]	; (81094 <sysclk_init+0x5c>)
   81066:	4798      	blx	r3
		pll_wait_for_lock(1);
		pmc_switch_mck_to_upllck(CONFIG_SYSCLK_PRES);
	}

	/* Update the SystemFrequency variable */
	SystemCoreClockUpdate();
   81068:	4b0b      	ldr	r3, [pc, #44]	; (81098 <sysclk_init+0x60>)
   8106a:	4798      	blx	r3

	/* Set a flash wait state depending on the new cpu frequency */
	system_init_flash(sysclk_get_cpu_hz());
   8106c:	4801      	ldr	r0, [pc, #4]	; (81074 <sysclk_init+0x3c>)
   8106e:	4b02      	ldr	r3, [pc, #8]	; (81078 <sysclk_init+0x40>)
   81070:	4798      	blx	r3
   81072:	bd10      	pop	{r4, pc}
   81074:	0501bd00 	.word	0x0501bd00
   81078:	2007013d 	.word	0x2007013d
   8107c:	0008147d 	.word	0x0008147d
   81080:	000814d1 	.word	0x000814d1
   81084:	000814e1 	.word	0x000814e1
   81088:	200d3f01 	.word	0x200d3f01
   8108c:	400e0600 	.word	0x400e0600
   81090:	000814f1 	.word	0x000814f1
   81094:	00081419 	.word	0x00081419
   81098:	000815bd 	.word	0x000815bd

0008109c <board_init>:
#include "conf_board.h"
#include "gpio.h"
#include "ioport.h"

void board_init(void)
{
   8109c:	b510      	push	{r4, lr}
#ifndef CONF_BOARD_KEEP_WATCHDOG_AT_INIT
	/* Disable the watchdog */
	WDT->WDT_MR = WDT_MR_WDDIS;
   8109e:	f44f 4200 	mov.w	r2, #32768	; 0x8000
   810a2:	4b16      	ldr	r3, [pc, #88]	; (810fc <board_init+0x60>)
   810a4:	605a      	str	r2, [r3, #4]
 *
 * \param ul_id Id (number) of the peripheral clock.
 */
static inline void sysclk_enable_peripheral_clock(uint32_t ul_id)
{
	pmc_enable_periph_clk(ul_id);
   810a6:	200b      	movs	r0, #11
   810a8:	4c15      	ldr	r4, [pc, #84]	; (81100 <board_init+0x64>)
   810aa:	47a0      	blx	r4
   810ac:	200c      	movs	r0, #12
   810ae:	47a0      	blx	r4
   810b0:	200d      	movs	r0, #13
   810b2:	47a0      	blx	r4
   810b4:	200e      	movs	r0, #14
   810b6:	47a0      	blx	r4
	 * In new designs IOPORT is used instead.
	 * Here IOPORT must be initialized for others to use before setting up IO.
	 */
	ioport_init();
	/* Configure LED pins */
	gpio_configure_pin(LED0_GPIO, LED0_FLAGS);
   810b8:	f04f 5160 	mov.w	r1, #939524096	; 0x38000000
   810bc:	203b      	movs	r0, #59	; 0x3b
   810be:	4c11      	ldr	r4, [pc, #68]	; (81104 <board_init+0x68>)
   810c0:	47a0      	blx	r4
	gpio_configure_pin(LED1_GPIO, LED1_FLAGS);
   810c2:	f04f 5160 	mov.w	r1, #939524096	; 0x38000000
   810c6:	2055      	movs	r0, #85	; 0x55
   810c8:	47a0      	blx	r4
	gpio_configure_pin(LED2_GPIO, LED2_FLAGS);
   810ca:	f04f 5160 	mov.w	r1, #939524096	; 0x38000000
   810ce:	2056      	movs	r0, #86	; 0x56
   810d0:	47a0      	blx	r4

	/* Configure Push Button pins */
	gpio_configure_pin(GPIO_PUSH_BUTTON_1, GPIO_PUSH_BUTTON_1_FLAGS);
   810d2:	490d      	ldr	r1, [pc, #52]	; (81108 <board_init+0x6c>)
   810d4:	2068      	movs	r0, #104	; 0x68
   810d6:	47a0      	blx	r4
	gpio_configure_pin(GPIO_PUSH_BUTTON_2, GPIO_PUSH_BUTTON_2_FLAGS);
   810d8:	490c      	ldr	r1, [pc, #48]	; (8110c <board_init+0x70>)
   810da:	205c      	movs	r0, #92	; 0x5c
   810dc:	47a0      	blx	r4

#ifdef CONF_BOARD_UART_CONSOLE
	/* Configure UART pins */
	gpio_configure_group(PINS_UART_PIO, PINS_UART, PINS_UART_FLAGS);
   810de:	4a0c      	ldr	r2, [pc, #48]	; (81110 <board_init+0x74>)
   810e0:	f44f 7140 	mov.w	r1, #768	; 0x300
   810e4:	480b      	ldr	r0, [pc, #44]	; (81114 <board_init+0x78>)
   810e6:	4b0c      	ldr	r3, [pc, #48]	; (81118 <board_init+0x7c>)
   810e8:	4798      	blx	r3
	gpio_configure_pin(PIN_USART0_TXD_IDX, PIN_USART0_TXD_FLAGS);
#endif

#ifdef CONF_BOARD_USB_PORT
	/* Configure USB_ID (UOTGID) pin */
	gpio_configure_pin(USB_ID_GPIO, USB_ID_FLAGS);
   810ea:	f04f 6100 	mov.w	r1, #134217728	; 0x8000000
   810ee:	202b      	movs	r0, #43	; 0x2b
   810f0:	47a0      	blx	r4
	/* Configure USB_VBOF (UOTGVBOF) pin */
	gpio_configure_pin(USB_VBOF_GPIO, USB_VBOF_FLAGS);
   810f2:	f04f 6100 	mov.w	r1, #134217728	; 0x8000000
   810f6:	202a      	movs	r0, #42	; 0x2a
   810f8:	47a0      	blx	r4
   810fa:	bd10      	pop	{r4, pc}
   810fc:	400e1a50 	.word	0x400e1a50
   81100:	00081501 	.word	0x00081501
   81104:	0008120d 	.word	0x0008120d
   81108:	28000079 	.word	0x28000079
   8110c:	28000001 	.word	0x28000001
   81110:	08000001 	.word	0x08000001
   81114:	400e0e00 	.word	0x400e0e00
   81118:	000812dd 	.word	0x000812dd

0008111c <pio_set_peripheral>:
		const uint32_t ul_mask)
{
	uint32_t ul_sr;

	/* Disable interrupts on the pin(s) */
	p_pio->PIO_IDR = ul_mask;
   8111c:	6442      	str	r2, [r0, #68]	; 0x44
	case PIO_OUTPUT_1:
	case PIO_NOT_A_PIN:
		return;
	}
#elif (SAM3XA|| SAM3U)
	switch (ul_type) {
   8111e:	f1b1 5f80 	cmp.w	r1, #268435456	; 0x10000000
   81122:	d016      	beq.n	81152 <pio_set_peripheral+0x36>
   81124:	d80b      	bhi.n	8113e <pio_set_peripheral+0x22>
   81126:	b149      	cbz	r1, 8113c <pio_set_peripheral+0x20>
   81128:	f1b1 6f00 	cmp.w	r1, #134217728	; 0x8000000
   8112c:	d105      	bne.n	8113a <pio_set_peripheral+0x1e>
	case PIO_PERIPH_A:
		ul_sr = p_pio->PIO_ABSR;
   8112e:	6f03      	ldr	r3, [r0, #112]	; 0x70
		p_pio->PIO_ABSR &= (~ul_mask & ul_sr);
   81130:	6f01      	ldr	r1, [r0, #112]	; 0x70
   81132:	400b      	ands	r3, r1
   81134:	ea23 0302 	bic.w	r3, r3, r2
   81138:	6703      	str	r3, [r0, #112]	; 0x70
#else
#error "Unsupported device"
#endif

	/* Remove the pins from under the control of PIO */
	p_pio->PIO_PDR = ul_mask;
   8113a:	6042      	str	r2, [r0, #4]
   8113c:	4770      	bx	lr
	switch (ul_type) {
   8113e:	f1b1 5f40 	cmp.w	r1, #805306368	; 0x30000000
   81142:	d0fb      	beq.n	8113c <pio_set_peripheral+0x20>
   81144:	f1b1 5f60 	cmp.w	r1, #939524096	; 0x38000000
   81148:	d0f8      	beq.n	8113c <pio_set_peripheral+0x20>
   8114a:	f1b1 5f20 	cmp.w	r1, #671088640	; 0x28000000
   8114e:	d1f4      	bne.n	8113a <pio_set_peripheral+0x1e>
   81150:	4770      	bx	lr
		ul_sr = p_pio->PIO_ABSR;
   81152:	6f03      	ldr	r3, [r0, #112]	; 0x70
		p_pio->PIO_ABSR = (ul_mask | ul_sr);
   81154:	4313      	orrs	r3, r2
   81156:	6703      	str	r3, [r0, #112]	; 0x70
		break;
   81158:	e7ef      	b.n	8113a <pio_set_peripheral+0x1e>

0008115a <pio_set_input>:
 * \param p_pio Pointer to a PIO instance.
 * \param ul_mask Interrupt sources bit map.
 */
void pio_disable_interrupt(Pio *p_pio, const uint32_t ul_mask)
{
	p_pio->PIO_IDR = ul_mask;
   8115a:	6441      	str	r1, [r0, #68]	; 0x44
	if (ul_pull_up_enable) {
   8115c:	f012 0f01 	tst.w	r2, #1
		p_pio->PIO_PUER = ul_mask;
   81160:	bf14      	ite	ne
   81162:	6641      	strne	r1, [r0, #100]	; 0x64
		p_pio->PIO_PUDR = ul_mask;
   81164:	6601      	streq	r1, [r0, #96]	; 0x60
	if (ul_attribute & (PIO_DEGLITCH | PIO_DEBOUNCE)) {
   81166:	f012 0f0a 	tst.w	r2, #10
		p_pio->PIO_IFER = ul_mask;
   8116a:	bf14      	ite	ne
   8116c:	6201      	strne	r1, [r0, #32]
		p_pio->PIO_IFDR = ul_mask;
   8116e:	6241      	streq	r1, [r0, #36]	; 0x24
	if (ul_attribute & PIO_DEGLITCH) {
   81170:	f012 0f02 	tst.w	r2, #2
   81174:	d107      	bne.n	81186 <pio_set_input+0x2c>
		if (ul_attribute & PIO_DEBOUNCE) {
   81176:	f012 0f08 	tst.w	r2, #8
			p_pio->PIO_DIFSR = ul_mask;
   8117a:	bf18      	it	ne
   8117c:	f8c0 1084 	strne.w	r1, [r0, #132]	; 0x84
	p_pio->PIO_ODR = ul_mask;
   81180:	6141      	str	r1, [r0, #20]
	p_pio->PIO_PER = ul_mask;
   81182:	6001      	str	r1, [r0, #0]
   81184:	4770      	bx	lr
		p_pio->PIO_SCIFSR = ul_mask;
   81186:	f8c0 1080 	str.w	r1, [r0, #128]	; 0x80
   8118a:	e7f9      	b.n	81180 <pio_set_input+0x26>

0008118c <pio_set_output>:
{
   8118c:	b410      	push	{r4}
   8118e:	9c01      	ldr	r4, [sp, #4]
	p_pio->PIO_IDR = ul_mask;
   81190:	6441      	str	r1, [r0, #68]	; 0x44
	if (ul_pull_up_enable) {
   81192:	b944      	cbnz	r4, 811a6 <pio_set_output+0x1a>
		p_pio->PIO_PUDR = ul_mask;
   81194:	6601      	str	r1, [r0, #96]	; 0x60
	if (ul_multidrive_enable) {
   81196:	b143      	cbz	r3, 811aa <pio_set_output+0x1e>
		p_pio->PIO_MDER = ul_mask;
   81198:	6501      	str	r1, [r0, #80]	; 0x50
	if (ul_default_level) {
   8119a:	b942      	cbnz	r2, 811ae <pio_set_output+0x22>
		p_pio->PIO_CODR = ul_mask;
   8119c:	6341      	str	r1, [r0, #52]	; 0x34
	p_pio->PIO_OER = ul_mask;
   8119e:	6101      	str	r1, [r0, #16]
	p_pio->PIO_PER = ul_mask;
   811a0:	6001      	str	r1, [r0, #0]
}
   811a2:	bc10      	pop	{r4}
   811a4:	4770      	bx	lr
		p_pio->PIO_PUER = ul_mask;
   811a6:	6641      	str	r1, [r0, #100]	; 0x64
   811a8:	e7f5      	b.n	81196 <pio_set_output+0xa>
		p_pio->PIO_MDDR = ul_mask;
   811aa:	6541      	str	r1, [r0, #84]	; 0x54
   811ac:	e7f5      	b.n	8119a <pio_set_output+0xe>
		p_pio->PIO_SODR = ul_mask;
   811ae:	6301      	str	r1, [r0, #48]	; 0x30
   811b0:	e7f5      	b.n	8119e <pio_set_output+0x12>

000811b2 <pio_get_interrupt_status>:
 *
 * \return The interrupt status value.
 */
uint32_t pio_get_interrupt_status(const Pio *p_pio)
{
	return p_pio->PIO_ISR;
   811b2:	6cc0      	ldr	r0, [r0, #76]	; 0x4c
}
   811b4:	4770      	bx	lr

000811b6 <pio_get_interrupt_mask>:
 *
 * \return The interrupt mask value.
 */
uint32_t pio_get_interrupt_mask(const Pio *p_pio)
{
	return p_pio->PIO_IMR;
   811b6:	6c80      	ldr	r0, [r0, #72]	; 0x48
}
   811b8:	4770      	bx	lr

000811ba <pio_get_pin_value>:
		p_pio = PIOC;
	} else {
		p_pio = (Pio *)((uint32_t)PIOA + (PIO_DELTA * (ul_pin >> 5)));
	}
#else
	p_pio = (Pio *)((uint32_t)PIOA + (PIO_DELTA * (ul_pin >> 5)));
   811ba:	0943      	lsrs	r3, r0, #5
   811bc:	f503 1300 	add.w	r3, r3, #2097152	; 0x200000
   811c0:	f203 7307 	addw	r3, r3, #1799	; 0x707
   811c4:	025b      	lsls	r3, r3, #9
	return (p_pio->PIO_PDSR >> (ul_pin & 0x1F)) & 1;
   811c6:	6bdb      	ldr	r3, [r3, #60]	; 0x3c
   811c8:	f000 001f 	and.w	r0, r0, #31
   811cc:	fa23 f000 	lsr.w	r0, r3, r0
}
   811d0:	f000 0001 	and.w	r0, r0, #1
   811d4:	4770      	bx	lr

000811d6 <pio_set_pin_high>:
	p_pio = (Pio *)((uint32_t)PIOA + (PIO_DELTA * (ul_pin >> 5)));
   811d6:	0943      	lsrs	r3, r0, #5
   811d8:	f503 1300 	add.w	r3, r3, #2097152	; 0x200000
   811dc:	f203 7307 	addw	r3, r3, #1799	; 0x707
   811e0:	025b      	lsls	r3, r3, #9
	p_pio->PIO_SODR = 1 << (ul_pin & 0x1F);
   811e2:	f000 001f 	and.w	r0, r0, #31
   811e6:	2201      	movs	r2, #1
   811e8:	fa02 f000 	lsl.w	r0, r2, r0
   811ec:	6318      	str	r0, [r3, #48]	; 0x30
   811ee:	4770      	bx	lr

000811f0 <pio_set_pin_low>:
	p_pio = (Pio *)((uint32_t)PIOA + (PIO_DELTA * (ul_pin >> 5)));
   811f0:	0943      	lsrs	r3, r0, #5
   811f2:	f503 1300 	add.w	r3, r3, #2097152	; 0x200000
   811f6:	f203 7307 	addw	r3, r3, #1799	; 0x707
   811fa:	025b      	lsls	r3, r3, #9
	p_pio->PIO_CODR = 1 << (ul_pin & 0x1F);
   811fc:	f000 001f 	and.w	r0, r0, #31
   81200:	2201      	movs	r2, #1
   81202:	fa02 f000 	lsl.w	r0, r2, r0
   81206:	6358      	str	r0, [r3, #52]	; 0x34
   81208:	4770      	bx	lr
	...

0008120c <pio_configure_pin>:
{
   8120c:	b570      	push	{r4, r5, r6, lr}
   8120e:	b082      	sub	sp, #8
   81210:	460d      	mov	r5, r1
	p_pio = (Pio *)((uint32_t)PIOA + (PIO_DELTA * (ul_pin >> 5)));
   81212:	0943      	lsrs	r3, r0, #5
   81214:	f503 1300 	add.w	r3, r3, #2097152	; 0x200000
   81218:	f203 7307 	addw	r3, r3, #1799	; 0x707
   8121c:	025c      	lsls	r4, r3, #9
	switch (ul_flags & PIO_TYPE_Msk) {
   8121e:	f001 43f0 	and.w	r3, r1, #2013265920	; 0x78000000
   81222:	f1b3 5f20 	cmp.w	r3, #671088640	; 0x28000000
   81226:	d031      	beq.n	8128c <pio_configure_pin+0x80>
   81228:	d816      	bhi.n	81258 <pio_configure_pin+0x4c>
   8122a:	f1b3 6f00 	cmp.w	r3, #134217728	; 0x8000000
   8122e:	d01b      	beq.n	81268 <pio_configure_pin+0x5c>
   81230:	f1b3 5f80 	cmp.w	r3, #268435456	; 0x10000000
   81234:	d116      	bne.n	81264 <pio_configure_pin+0x58>
		pio_set_peripheral(p_pio, PIO_PERIPH_B, (1 << (ul_pin & 0x1F)));
   81236:	f000 001f 	and.w	r0, r0, #31
   8123a:	2601      	movs	r6, #1
   8123c:	4086      	lsls	r6, r0
   8123e:	4632      	mov	r2, r6
   81240:	f04f 5180 	mov.w	r1, #268435456	; 0x10000000
   81244:	4620      	mov	r0, r4
   81246:	4b22      	ldr	r3, [pc, #136]	; (812d0 <pio_configure_pin+0xc4>)
   81248:	4798      	blx	r3
	if (ul_pull_up_enable) {
   8124a:	f015 0f01 	tst.w	r5, #1
		p_pio->PIO_PUER = ul_mask;
   8124e:	bf14      	ite	ne
   81250:	6666      	strne	r6, [r4, #100]	; 0x64
		p_pio->PIO_PUDR = ul_mask;
   81252:	6626      	streq	r6, [r4, #96]	; 0x60
	return 1;
   81254:	2001      	movs	r0, #1
   81256:	e017      	b.n	81288 <pio_configure_pin+0x7c>
	switch (ul_flags & PIO_TYPE_Msk) {
   81258:	f1b3 5f40 	cmp.w	r3, #805306368	; 0x30000000
   8125c:	d021      	beq.n	812a2 <pio_configure_pin+0x96>
   8125e:	f1b3 5f60 	cmp.w	r3, #939524096	; 0x38000000
   81262:	d01e      	beq.n	812a2 <pio_configure_pin+0x96>
		return 0;
   81264:	2000      	movs	r0, #0
   81266:	e00f      	b.n	81288 <pio_configure_pin+0x7c>
		pio_set_peripheral(p_pio, PIO_PERIPH_A, (1 << (ul_pin & 0x1F)));
   81268:	f000 001f 	and.w	r0, r0, #31
   8126c:	2601      	movs	r6, #1
   8126e:	4086      	lsls	r6, r0
   81270:	4632      	mov	r2, r6
   81272:	f04f 6100 	mov.w	r1, #134217728	; 0x8000000
   81276:	4620      	mov	r0, r4
   81278:	4b15      	ldr	r3, [pc, #84]	; (812d0 <pio_configure_pin+0xc4>)
   8127a:	4798      	blx	r3
	if (ul_pull_up_enable) {
   8127c:	f015 0f01 	tst.w	r5, #1
		p_pio->PIO_PUER = ul_mask;
   81280:	bf14      	ite	ne
   81282:	6666      	strne	r6, [r4, #100]	; 0x64
		p_pio->PIO_PUDR = ul_mask;
   81284:	6626      	streq	r6, [r4, #96]	; 0x60
	return 1;
   81286:	2001      	movs	r0, #1
}
   81288:	b002      	add	sp, #8
   8128a:	bd70      	pop	{r4, r5, r6, pc}
		pio_set_input(p_pio, (1 << (ul_pin & 0x1F)), ul_flags);
   8128c:	f000 011f 	and.w	r1, r0, #31
   81290:	2601      	movs	r6, #1
   81292:	462a      	mov	r2, r5
   81294:	fa06 f101 	lsl.w	r1, r6, r1
   81298:	4620      	mov	r0, r4
   8129a:	4b0e      	ldr	r3, [pc, #56]	; (812d4 <pio_configure_pin+0xc8>)
   8129c:	4798      	blx	r3
	return 1;
   8129e:	4630      	mov	r0, r6
		break;
   812a0:	e7f2      	b.n	81288 <pio_configure_pin+0x7c>
				((ul_flags & PIO_TYPE_PIO_OUTPUT_1)
   812a2:	f005 5260 	and.w	r2, r5, #939524096	; 0x38000000
		pio_set_output(p_pio, (1 << (ul_pin & 0x1F)),
   812a6:	f000 011f 	and.w	r1, r0, #31
   812aa:	2601      	movs	r6, #1
   812ac:	ea05 0306 	and.w	r3, r5, r6
   812b0:	9300      	str	r3, [sp, #0]
   812b2:	f3c5 0380 	ubfx	r3, r5, #2, #1
   812b6:	f1b2 5f60 	cmp.w	r2, #939524096	; 0x38000000
   812ba:	bf14      	ite	ne
   812bc:	2200      	movne	r2, #0
   812be:	2201      	moveq	r2, #1
   812c0:	fa06 f101 	lsl.w	r1, r6, r1
   812c4:	4620      	mov	r0, r4
   812c6:	4c04      	ldr	r4, [pc, #16]	; (812d8 <pio_configure_pin+0xcc>)
   812c8:	47a0      	blx	r4
	return 1;
   812ca:	4630      	mov	r0, r6
		break;
   812cc:	e7dc      	b.n	81288 <pio_configure_pin+0x7c>
   812ce:	bf00      	nop
   812d0:	0008111d 	.word	0x0008111d
   812d4:	0008115b 	.word	0x0008115b
   812d8:	0008118d 	.word	0x0008118d

000812dc <pio_configure_pin_group>:
{
   812dc:	b570      	push	{r4, r5, r6, lr}
   812de:	b082      	sub	sp, #8
   812e0:	4605      	mov	r5, r0
   812e2:	460e      	mov	r6, r1
   812e4:	4614      	mov	r4, r2
	switch (ul_flags & PIO_TYPE_Msk) {
   812e6:	f002 43f0 	and.w	r3, r2, #2013265920	; 0x78000000
   812ea:	f1b3 5f20 	cmp.w	r3, #671088640	; 0x28000000
   812ee:	d027      	beq.n	81340 <pio_configure_pin_group+0x64>
   812f0:	d811      	bhi.n	81316 <pio_configure_pin_group+0x3a>
   812f2:	f1b3 6f00 	cmp.w	r3, #134217728	; 0x8000000
   812f6:	d016      	beq.n	81326 <pio_configure_pin_group+0x4a>
   812f8:	f1b3 5f80 	cmp.w	r3, #268435456	; 0x10000000
   812fc:	d111      	bne.n	81322 <pio_configure_pin_group+0x46>
		pio_set_peripheral(p_pio, PIO_PERIPH_B, ul_mask);
   812fe:	460a      	mov	r2, r1
   81300:	f04f 5180 	mov.w	r1, #268435456	; 0x10000000
   81304:	4b19      	ldr	r3, [pc, #100]	; (8136c <pio_configure_pin_group+0x90>)
   81306:	4798      	blx	r3
	if (ul_pull_up_enable) {
   81308:	f014 0f01 	tst.w	r4, #1
		p_pio->PIO_PUER = ul_mask;
   8130c:	bf14      	ite	ne
   8130e:	666e      	strne	r6, [r5, #100]	; 0x64
		p_pio->PIO_PUDR = ul_mask;
   81310:	662e      	streq	r6, [r5, #96]	; 0x60
	return 1;
   81312:	2001      	movs	r0, #1
   81314:	e012      	b.n	8133c <pio_configure_pin_group+0x60>
	switch (ul_flags & PIO_TYPE_Msk) {
   81316:	f1b3 5f40 	cmp.w	r3, #805306368	; 0x30000000
   8131a:	d015      	beq.n	81348 <pio_configure_pin_group+0x6c>
   8131c:	f1b3 5f60 	cmp.w	r3, #939524096	; 0x38000000
   81320:	d012      	beq.n	81348 <pio_configure_pin_group+0x6c>
		return 0;
   81322:	2000      	movs	r0, #0
   81324:	e00a      	b.n	8133c <pio_configure_pin_group+0x60>
		pio_set_peripheral(p_pio, PIO_PERIPH_A, ul_mask);
   81326:	460a      	mov	r2, r1
   81328:	f04f 6100 	mov.w	r1, #134217728	; 0x8000000
   8132c:	4b0f      	ldr	r3, [pc, #60]	; (8136c <pio_configure_pin_group+0x90>)
   8132e:	4798      	blx	r3
	if (ul_pull_up_enable) {
   81330:	f014 0f01 	tst.w	r4, #1
		p_pio->PIO_PUER = ul_mask;
   81334:	bf14      	ite	ne
   81336:	666e      	strne	r6, [r5, #100]	; 0x64
		p_pio->PIO_PUDR = ul_mask;
   81338:	662e      	streq	r6, [r5, #96]	; 0x60
	return 1;
   8133a:	2001      	movs	r0, #1
}
   8133c:	b002      	add	sp, #8
   8133e:	bd70      	pop	{r4, r5, r6, pc}
		pio_set_input(p_pio, ul_mask, ul_flags);
   81340:	4b0b      	ldr	r3, [pc, #44]	; (81370 <pio_configure_pin_group+0x94>)
   81342:	4798      	blx	r3
	return 1;
   81344:	2001      	movs	r0, #1
		break;
   81346:	e7f9      	b.n	8133c <pio_configure_pin_group+0x60>
				((ul_flags & PIO_TYPE_PIO_OUTPUT_1)
   81348:	f004 5260 	and.w	r2, r4, #939524096	; 0x38000000
		pio_set_output(p_pio, ul_mask,
   8134c:	f004 0301 	and.w	r3, r4, #1
   81350:	9300      	str	r3, [sp, #0]
   81352:	f3c4 0380 	ubfx	r3, r4, #2, #1
   81356:	f1b2 5f60 	cmp.w	r2, #939524096	; 0x38000000
   8135a:	bf14      	ite	ne
   8135c:	2200      	movne	r2, #0
   8135e:	2201      	moveq	r2, #1
   81360:	4631      	mov	r1, r6
   81362:	4628      	mov	r0, r5
   81364:	4c03      	ldr	r4, [pc, #12]	; (81374 <pio_configure_pin_group+0x98>)
   81366:	47a0      	blx	r4
	return 1;
   81368:	2001      	movs	r0, #1
		break;
   8136a:	e7e7      	b.n	8133c <pio_configure_pin_group+0x60>
   8136c:	0008111d 	.word	0x0008111d
   81370:	0008115b 	.word	0x0008115b
   81374:	0008118d 	.word	0x0008118d

00081378 <pio_handler_process>:
 *
 * \param p_pio PIO controller base address.
 * \param ul_id PIO controller ID.
 */
void pio_handler_process(Pio *p_pio, uint32_t ul_id)
{
   81378:	e92d 41f0 	stmdb	sp!, {r4, r5, r6, r7, r8, lr}
   8137c:	4604      	mov	r4, r0
   8137e:	4688      	mov	r8, r1
	uint32_t status;
	uint32_t i;

	/* Read PIO controller status */
	status = pio_get_interrupt_status(p_pio);
   81380:	4b0e      	ldr	r3, [pc, #56]	; (813bc <pio_handler_process+0x44>)
   81382:	4798      	blx	r3
   81384:	4605      	mov	r5, r0
	status &= pio_get_interrupt_mask(p_pio);
   81386:	4620      	mov	r0, r4
   81388:	4b0d      	ldr	r3, [pc, #52]	; (813c0 <pio_handler_process+0x48>)
   8138a:	4798      	blx	r3

	/* Check pending events */
	if (status != 0) {
   8138c:	4005      	ands	r5, r0
   8138e:	d013      	beq.n	813b8 <pio_handler_process+0x40>
   81390:	4c0c      	ldr	r4, [pc, #48]	; (813c4 <pio_handler_process+0x4c>)
   81392:	f104 0660 	add.w	r6, r4, #96	; 0x60
   81396:	e003      	b.n	813a0 <pio_handler_process+0x28>
							gs_interrupt_sources[i].mask);
					status &= ~(gs_interrupt_sources[i].mask);
				}
			}
			i++;
			if (i >= MAX_INTERRUPT_SOURCES) {
   81398:	42b4      	cmp	r4, r6
   8139a:	d00d      	beq.n	813b8 <pio_handler_process+0x40>
   8139c:	3410      	adds	r4, #16
		while (status != 0) {
   8139e:	b15d      	cbz	r5, 813b8 <pio_handler_process+0x40>
			if (gs_interrupt_sources[i].id == ul_id) {
   813a0:	6820      	ldr	r0, [r4, #0]
   813a2:	4540      	cmp	r0, r8
   813a4:	d1f8      	bne.n	81398 <pio_handler_process+0x20>
				if ((status & gs_interrupt_sources[i].mask) != 0) {
   813a6:	6861      	ldr	r1, [r4, #4]
   813a8:	4229      	tst	r1, r5
   813aa:	d0f5      	beq.n	81398 <pio_handler_process+0x20>
					gs_interrupt_sources[i].handler(gs_interrupt_sources[i].id,
   813ac:	68e3      	ldr	r3, [r4, #12]
   813ae:	4798      	blx	r3
					status &= ~(gs_interrupt_sources[i].mask);
   813b0:	6863      	ldr	r3, [r4, #4]
   813b2:	ea25 0503 	bic.w	r5, r5, r3
   813b6:	e7ef      	b.n	81398 <pio_handler_process+0x20>
   813b8:	e8bd 81f0 	ldmia.w	sp!, {r4, r5, r6, r7, r8, pc}
   813bc:	000811b3 	.word	0x000811b3
   813c0:	000811b7 	.word	0x000811b7
   813c4:	20070fc0 	.word	0x20070fc0

000813c8 <PIOA_Handler>:
/**
 * \brief Parallel IO Controller A interrupt handler.
 * Redefined PIOA interrupt handler for NVIC interrupt table.
 */
void PIOA_Handler(void)
{
   813c8:	b508      	push	{r3, lr}
	pio_handler_process(PIOA, ID_PIOA);
   813ca:	210b      	movs	r1, #11
   813cc:	4801      	ldr	r0, [pc, #4]	; (813d4 <PIOA_Handler+0xc>)
   813ce:	4b02      	ldr	r3, [pc, #8]	; (813d8 <PIOA_Handler+0x10>)
   813d0:	4798      	blx	r3
   813d2:	bd08      	pop	{r3, pc}
   813d4:	400e0e00 	.word	0x400e0e00
   813d8:	00081379 	.word	0x00081379

000813dc <PIOB_Handler>:
/**
 * \brief Parallel IO Controller B interrupt handler
 * Redefined PIOB interrupt handler for NVIC interrupt table.
 */
void PIOB_Handler(void)
{
   813dc:	b508      	push	{r3, lr}
    pio_handler_process(PIOB, ID_PIOB);
   813de:	210c      	movs	r1, #12
   813e0:	4801      	ldr	r0, [pc, #4]	; (813e8 <PIOB_Handler+0xc>)
   813e2:	4b02      	ldr	r3, [pc, #8]	; (813ec <PIOB_Handler+0x10>)
   813e4:	4798      	blx	r3
   813e6:	bd08      	pop	{r3, pc}
   813e8:	400e1000 	.word	0x400e1000
   813ec:	00081379 	.word	0x00081379

000813f0 <PIOC_Handler>:
/**
 * \brief Parallel IO Controller C interrupt handler.
 * Redefined PIOC interrupt handler for NVIC interrupt table.
 */
void PIOC_Handler(void)
{
   813f0:	b508      	push	{r3, lr}
	pio_handler_process(PIOC, ID_PIOC);
   813f2:	210d      	movs	r1, #13
   813f4:	4801      	ldr	r0, [pc, #4]	; (813fc <PIOC_Handler+0xc>)
   813f6:	4b02      	ldr	r3, [pc, #8]	; (81400 <PIOC_Handler+0x10>)
   813f8:	4798      	blx	r3
   813fa:	bd08      	pop	{r3, pc}
   813fc:	400e1200 	.word	0x400e1200
   81400:	00081379 	.word	0x00081379

00081404 <PIOD_Handler>:
/**
 * \brief Parallel IO Controller D interrupt handler.
 * Redefined PIOD interrupt handler for NVIC interrupt table.
 */
void PIOD_Handler(void)
{
   81404:	b508      	push	{r3, lr}
	pio_handler_process(PIOD, ID_PIOD);
   81406:	210e      	movs	r1, #14
   81408:	4801      	ldr	r0, [pc, #4]	; (81410 <PIOD_Handler+0xc>)
   8140a:	4b02      	ldr	r3, [pc, #8]	; (81414 <PIOD_Handler+0x10>)
   8140c:	4798      	blx	r3
   8140e:	bd08      	pop	{r3, pc}
   81410:	400e1400 	.word	0x400e1400
   81414:	00081379 	.word	0x00081379

00081418 <pmc_switch_mck_to_pllack>:
 */
uint32_t pmc_switch_mck_to_pllack(uint32_t ul_pres)
{
	uint32_t ul_timeout;

	PMC->PMC_MCKR = (PMC->PMC_MCKR & (~PMC_MCKR_PRES_Msk)) | ul_pres;
   81418:	4a17      	ldr	r2, [pc, #92]	; (81478 <pmc_switch_mck_to_pllack+0x60>)
   8141a:	6b13      	ldr	r3, [r2, #48]	; 0x30
   8141c:	f023 0370 	bic.w	r3, r3, #112	; 0x70
   81420:	4318      	orrs	r0, r3
   81422:	6310      	str	r0, [r2, #48]	; 0x30
	for (ul_timeout = PMC_TIMEOUT; !(PMC->PMC_SR & PMC_SR_MCKRDY);
   81424:	6e93      	ldr	r3, [r2, #104]	; 0x68
   81426:	f013 0f08 	tst.w	r3, #8
   8142a:	d10a      	bne.n	81442 <pmc_switch_mck_to_pllack+0x2a>
   8142c:	f44f 6300 	mov.w	r3, #2048	; 0x800
   81430:	4911      	ldr	r1, [pc, #68]	; (81478 <pmc_switch_mck_to_pllack+0x60>)
   81432:	6e8a      	ldr	r2, [r1, #104]	; 0x68
   81434:	f012 0f08 	tst.w	r2, #8
   81438:	d103      	bne.n	81442 <pmc_switch_mck_to_pllack+0x2a>
			--ul_timeout) {
		if (ul_timeout == 0) {
   8143a:	3b01      	subs	r3, #1
   8143c:	d1f9      	bne.n	81432 <pmc_switch_mck_to_pllack+0x1a>
			return 1;
   8143e:	2001      	movs	r0, #1
   81440:	4770      	bx	lr
		}
	}

	PMC->PMC_MCKR = (PMC->PMC_MCKR & (~PMC_MCKR_CSS_Msk)) |
   81442:	4a0d      	ldr	r2, [pc, #52]	; (81478 <pmc_switch_mck_to_pllack+0x60>)
   81444:	6b13      	ldr	r3, [r2, #48]	; 0x30
   81446:	f023 0303 	bic.w	r3, r3, #3
   8144a:	f043 0302 	orr.w	r3, r3, #2
   8144e:	6313      	str	r3, [r2, #48]	; 0x30
			PMC_MCKR_CSS_PLLA_CLK;

	for (ul_timeout = PMC_TIMEOUT; !(PMC->PMC_SR & PMC_SR_MCKRDY);
   81450:	6e93      	ldr	r3, [r2, #104]	; 0x68
   81452:	f013 0f08 	tst.w	r3, #8
   81456:	d10a      	bne.n	8146e <pmc_switch_mck_to_pllack+0x56>
   81458:	f44f 6300 	mov.w	r3, #2048	; 0x800
   8145c:	4906      	ldr	r1, [pc, #24]	; (81478 <pmc_switch_mck_to_pllack+0x60>)
   8145e:	6e8a      	ldr	r2, [r1, #104]	; 0x68
   81460:	f012 0f08 	tst.w	r2, #8
   81464:	d105      	bne.n	81472 <pmc_switch_mck_to_pllack+0x5a>
			--ul_timeout) {
		if (ul_timeout == 0) {
   81466:	3b01      	subs	r3, #1
   81468:	d1f9      	bne.n	8145e <pmc_switch_mck_to_pllack+0x46>
			return 1;
   8146a:	2001      	movs	r0, #1
		}
	}

	return 0;
}
   8146c:	4770      	bx	lr
	return 0;
   8146e:	2000      	movs	r0, #0
   81470:	4770      	bx	lr
   81472:	2000      	movs	r0, #0
   81474:	4770      	bx	lr
   81476:	bf00      	nop
   81478:	400e0600 	.word	0x400e0600

0008147c <pmc_switch_mainck_to_xtal>:
 */
void pmc_switch_mainck_to_xtal(uint32_t ul_bypass,
		uint32_t ul_xtal_startup_time)
{
	/* Enable Main Xtal oscillator */
	if (ul_bypass) {
   8147c:	b9c8      	cbnz	r0, 814b2 <pmc_switch_mainck_to_xtal+0x36>
		PMC->CKGR_MOR = (PMC->CKGR_MOR & ~CKGR_MOR_MOSCXTEN) |
				CKGR_MOR_KEY_PASSWD | CKGR_MOR_MOSCXTBY |
				CKGR_MOR_MOSCSEL;
	} else {
		PMC->CKGR_MOR = (PMC->CKGR_MOR & ~CKGR_MOR_MOSCXTBY) |
   8147e:	4a11      	ldr	r2, [pc, #68]	; (814c4 <pmc_switch_mainck_to_xtal+0x48>)
   81480:	6a13      	ldr	r3, [r2, #32]
				CKGR_MOR_KEY_PASSWD | CKGR_MOR_MOSCXTEN |
				CKGR_MOR_MOSCXTST(ul_xtal_startup_time);
   81482:	0209      	lsls	r1, r1, #8
   81484:	b289      	uxth	r1, r1
				CKGR_MOR_KEY_PASSWD | CKGR_MOR_MOSCXTEN |
   81486:	f423 135c 	bic.w	r3, r3, #3604480	; 0x370000
   8148a:	f023 0303 	bic.w	r3, r3, #3
   8148e:	f443 135c 	orr.w	r3, r3, #3604480	; 0x370000
   81492:	f043 0301 	orr.w	r3, r3, #1
   81496:	430b      	orrs	r3, r1
		PMC->CKGR_MOR = (PMC->CKGR_MOR & ~CKGR_MOR_MOSCXTBY) |
   81498:	6213      	str	r3, [r2, #32]
		/* Wait the Xtal to stabilize */
		while (!(PMC->PMC_SR & PMC_SR_MOSCXTS));
   8149a:	6e93      	ldr	r3, [r2, #104]	; 0x68
   8149c:	f013 0f01 	tst.w	r3, #1
   814a0:	d0fb      	beq.n	8149a <pmc_switch_mainck_to_xtal+0x1e>

		PMC->CKGR_MOR |= CKGR_MOR_KEY_PASSWD | CKGR_MOR_MOSCSEL;
   814a2:	4a08      	ldr	r2, [pc, #32]	; (814c4 <pmc_switch_mainck_to_xtal+0x48>)
   814a4:	6a13      	ldr	r3, [r2, #32]
   814a6:	f043 739b 	orr.w	r3, r3, #20316160	; 0x1360000
   814aa:	f443 3380 	orr.w	r3, r3, #65536	; 0x10000
   814ae:	6213      	str	r3, [r2, #32]
   814b0:	4770      	bx	lr
		PMC->CKGR_MOR = (PMC->CKGR_MOR & ~CKGR_MOR_MOSCXTEN) |
   814b2:	4904      	ldr	r1, [pc, #16]	; (814c4 <pmc_switch_mainck_to_xtal+0x48>)
   814b4:	6a0b      	ldr	r3, [r1, #32]
				CKGR_MOR_KEY_PASSWD | CKGR_MOR_MOSCXTBY |
   814b6:	4a04      	ldr	r2, [pc, #16]	; (814c8 <pmc_switch_mainck_to_xtal+0x4c>)
   814b8:	401a      	ands	r2, r3
   814ba:	4b04      	ldr	r3, [pc, #16]	; (814cc <pmc_switch_mainck_to_xtal+0x50>)
   814bc:	4313      	orrs	r3, r2
		PMC->CKGR_MOR = (PMC->CKGR_MOR & ~CKGR_MOR_MOSCXTEN) |
   814be:	620b      	str	r3, [r1, #32]
   814c0:	4770      	bx	lr
   814c2:	bf00      	nop
   814c4:	400e0600 	.word	0x400e0600
   814c8:	fec8fffc 	.word	0xfec8fffc
   814cc:	01370002 	.word	0x01370002

000814d0 <pmc_osc_is_ready_mainck>:
 * \retval 1 Xtal is ready.
 * \retval 0 Xtal is not ready.
 */
uint32_t pmc_osc_is_ready_mainck(void)
{
	return PMC->PMC_SR & PMC_SR_MOSCSELS;
   814d0:	4b02      	ldr	r3, [pc, #8]	; (814dc <pmc_osc_is_ready_mainck+0xc>)
   814d2:	6e98      	ldr	r0, [r3, #104]	; 0x68
}
   814d4:	f400 3080 	and.w	r0, r0, #65536	; 0x10000
   814d8:	4770      	bx	lr
   814da:	bf00      	nop
   814dc:	400e0600 	.word	0x400e0600

000814e0 <pmc_disable_pllack>:
void pmc_disable_pllack(void)
{
#if (SAM4C || SAM4CM || SAM4CP || SAMG)
	PMC->CKGR_PLLAR = CKGR_PLLAR_MULA(0);
#else
	PMC->CKGR_PLLAR = CKGR_PLLAR_ONE | CKGR_PLLAR_MULA(0);
   814e0:	f04f 5200 	mov.w	r2, #536870912	; 0x20000000
   814e4:	4b01      	ldr	r3, [pc, #4]	; (814ec <pmc_disable_pllack+0xc>)
   814e6:	629a      	str	r2, [r3, #40]	; 0x28
   814e8:	4770      	bx	lr
   814ea:	bf00      	nop
   814ec:	400e0600 	.word	0x400e0600

000814f0 <pmc_is_locked_pllack>:
 * \retval 0 Not locked.
 * \retval 1 Locked.
 */
uint32_t pmc_is_locked_pllack(void)
{
	return (PMC->PMC_SR & PMC_SR_LOCKA);
   814f0:	4b02      	ldr	r3, [pc, #8]	; (814fc <pmc_is_locked_pllack+0xc>)
   814f2:	6e98      	ldr	r0, [r3, #104]	; 0x68
}
   814f4:	f000 0002 	and.w	r0, r0, #2
   814f8:	4770      	bx	lr
   814fa:	bf00      	nop
   814fc:	400e0600 	.word	0x400e0600

00081500 <pmc_enable_periph_clk>:
 */
uint32_t pmc_enable_periph_clk(uint32_t ul_id)
{
#if defined(REG_PMC_PCR) && !SAMG55
	uint32_t pcr;
	PMC->PMC_PCR = ul_id & 0x7F;
   81500:	f000 007f 	and.w	r0, r0, #127	; 0x7f
   81504:	4b05      	ldr	r3, [pc, #20]	; (8151c <pmc_enable_periph_clk+0x1c>)
   81506:	f8c3 010c 	str.w	r0, [r3, #268]	; 0x10c
	pcr = PMC->PMC_PCR | PMC_PCR_EN | PMC_PCR_CMD;
   8150a:	f8d3 210c 	ldr.w	r2, [r3, #268]	; 0x10c
   8150e:	f042 2210 	orr.w	r2, r2, #268439552	; 0x10001000
	PMC->PMC_PCR = pcr;
   81512:	f8c3 210c 	str.w	r2, [r3, #268]	; 0x10c
#endif
	}

	return 0;
#endif /* defined(REG_PMC_PCR) && !SAMG55 */
}
   81516:	2000      	movs	r0, #0
   81518:	4770      	bx	lr
   8151a:	bf00      	nop
   8151c:	400e0600 	.word	0x400e0600

00081520 <Dummy_Handler>:

/**
 * \brief Default interrupt handler for unused IRQs.
 */
void Dummy_Handler(void)
{
   81520:	e7fe      	b.n	81520 <Dummy_Handler>
	...

00081524 <Reset_Handler>:
/**
 * \brief This is the code that gets called on processor reset.
 * To initialize the device, and call the main() routine.
 */
void Reset_Handler(void)
{
   81524:	b508      	push	{r3, lr}

	/* Initialize the relocate segment */
	pSrc = &_etext;
	pDest = &_srelocate;

	if (pSrc != pDest) {
   81526:	4b1c      	ldr	r3, [pc, #112]	; (81598 <Reset_Handler+0x74>)
   81528:	4a1c      	ldr	r2, [pc, #112]	; (8159c <Reset_Handler+0x78>)
   8152a:	429a      	cmp	r2, r3
   8152c:	d010      	beq.n	81550 <Reset_Handler+0x2c>
		for (; pDest < &_erelocate;) {
   8152e:	4b1c      	ldr	r3, [pc, #112]	; (815a0 <Reset_Handler+0x7c>)
   81530:	4a19      	ldr	r2, [pc, #100]	; (81598 <Reset_Handler+0x74>)
   81532:	429a      	cmp	r2, r3
   81534:	d20c      	bcs.n	81550 <Reset_Handler+0x2c>
   81536:	3b01      	subs	r3, #1
   81538:	1a9b      	subs	r3, r3, r2
   8153a:	f023 0303 	bic.w	r3, r3, #3
   8153e:	3304      	adds	r3, #4
   81540:	4413      	add	r3, r2
   81542:	4916      	ldr	r1, [pc, #88]	; (8159c <Reset_Handler+0x78>)
			*pDest++ = *pSrc++;
   81544:	f851 0b04 	ldr.w	r0, [r1], #4
   81548:	f842 0b04 	str.w	r0, [r2], #4
		for (; pDest < &_erelocate;) {
   8154c:	429a      	cmp	r2, r3
   8154e:	d1f9      	bne.n	81544 <Reset_Handler+0x20>
		}
	}

	/* Clear the zero segment */
	for (pDest = &_szero; pDest < &_ezero;) {
   81550:	4b14      	ldr	r3, [pc, #80]	; (815a4 <Reset_Handler+0x80>)
   81552:	4a15      	ldr	r2, [pc, #84]	; (815a8 <Reset_Handler+0x84>)
   81554:	429a      	cmp	r2, r3
   81556:	d20a      	bcs.n	8156e <Reset_Handler+0x4a>
   81558:	3b01      	subs	r3, #1
   8155a:	1a9b      	subs	r3, r3, r2
   8155c:	f023 0303 	bic.w	r3, r3, #3
   81560:	3304      	adds	r3, #4
   81562:	4413      	add	r3, r2
		*pDest++ = 0;
   81564:	2100      	movs	r1, #0
   81566:	f842 1b04 	str.w	r1, [r2], #4
	for (pDest = &_szero; pDest < &_ezero;) {
   8156a:	4293      	cmp	r3, r2
   8156c:	d1fb      	bne.n	81566 <Reset_Handler+0x42>
	}

	/* Set the vector table base address */
	pSrc = (uint32_t *) & _sfixed;
	SCB->VTOR = ((uint32_t) pSrc & SCB_VTOR_TBLOFF_Msk);
   8156e:	4b0f      	ldr	r3, [pc, #60]	; (815ac <Reset_Handler+0x88>)
   81570:	f023 4260 	bic.w	r2, r3, #3758096384	; 0xe0000000
   81574:	f022 027f 	bic.w	r2, r2, #127	; 0x7f
   81578:	490d      	ldr	r1, [pc, #52]	; (815b0 <Reset_Handler+0x8c>)
   8157a:	608a      	str	r2, [r1, #8]

	if (((uint32_t) pSrc >= IRAM0_ADDR) && ((uint32_t) pSrc < NFC_RAM_ADDR)) {
   8157c:	f103 4360 	add.w	r3, r3, #3758096384	; 0xe0000000
   81580:	f5b3 1f80 	cmp.w	r3, #1048576	; 0x100000
   81584:	d203      	bcs.n	8158e <Reset_Handler+0x6a>
		SCB->VTOR |= 1 << SCB_VTOR_TBLBASE_Pos;
   81586:	688b      	ldr	r3, [r1, #8]
   81588:	f043 5300 	orr.w	r3, r3, #536870912	; 0x20000000
   8158c:	608b      	str	r3, [r1, #8]
	}

	/* Initialize the C library */
	__libc_init_array();
   8158e:	4b09      	ldr	r3, [pc, #36]	; (815b4 <Reset_Handler+0x90>)
   81590:	4798      	blx	r3

	/* Branch to main function */
	main();
   81592:	4b09      	ldr	r3, [pc, #36]	; (815b8 <Reset_Handler+0x94>)
   81594:	4798      	blx	r3
   81596:	e7fe      	b.n	81596 <Reset_Handler+0x72>
   81598:	20070000 	.word	0x20070000
   8159c:	0008662c 	.word	0x0008662c
   815a0:	20070ea0 	.word	0x20070ea0
   815a4:	20071128 	.word	0x20071128
   815a8:	20070ea0 	.word	0x20070ea0
   815ac:	00080000 	.word	0x00080000
   815b0:	e000ed00 	.word	0xe000ed00
   815b4:	00081a05 	.word	0x00081a05
   815b8:	00081761 	.word	0x00081761

000815bc <SystemCoreClockUpdate>:
}

void SystemCoreClockUpdate(void)
{
	/* Determine clock frequency according to clock register values */
	switch (PMC->PMC_MCKR & PMC_MCKR_CSS_Msk) {
   815bc:	4b3d      	ldr	r3, [pc, #244]	; (816b4 <SystemCoreClockUpdate+0xf8>)
   815be:	6b1b      	ldr	r3, [r3, #48]	; 0x30
   815c0:	f003 0303 	and.w	r3, r3, #3
   815c4:	2b03      	cmp	r3, #3
   815c6:	d80e      	bhi.n	815e6 <SystemCoreClockUpdate+0x2a>
   815c8:	e8df f003 	tbb	[pc, r3]
   815cc:	38381c02 	.word	0x38381c02
	case PMC_MCKR_CSS_SLOW_CLK:	/* Slow clock */
		if (SUPC->SUPC_SR & SUPC_SR_OSCSEL) {
   815d0:	4b39      	ldr	r3, [pc, #228]	; (816b8 <SystemCoreClockUpdate+0xfc>)
   815d2:	695b      	ldr	r3, [r3, #20]
   815d4:	f013 0f80 	tst.w	r3, #128	; 0x80
			SystemCoreClock = CHIP_FREQ_XTAL_32K;
   815d8:	bf14      	ite	ne
   815da:	f44f 4200 	movne.w	r2, #32768	; 0x8000
		} else {
			SystemCoreClock = CHIP_FREQ_SLCK_RC;
   815de:	f44f 42fa 	moveq.w	r2, #32000	; 0x7d00
   815e2:	4b36      	ldr	r3, [pc, #216]	; (816bc <SystemCoreClockUpdate+0x100>)
   815e4:	601a      	str	r2, [r3, #0]
			SystemCoreClock = SYS_UTMIPLL / 2U;
		}
		break;
	}

	if ((PMC->PMC_MCKR & PMC_MCKR_PRES_Msk) == PMC_MCKR_PRES_CLK_3) {
   815e6:	4b33      	ldr	r3, [pc, #204]	; (816b4 <SystemCoreClockUpdate+0xf8>)
   815e8:	6b1b      	ldr	r3, [r3, #48]	; 0x30
   815ea:	f003 0370 	and.w	r3, r3, #112	; 0x70
   815ee:	2b70      	cmp	r3, #112	; 0x70
   815f0:	d057      	beq.n	816a2 <SystemCoreClockUpdate+0xe6>
		SystemCoreClock /= 3U;
	} else {
		SystemCoreClock >>= ((PMC->PMC_MCKR & PMC_MCKR_PRES_Msk) >> 
   815f2:	4b30      	ldr	r3, [pc, #192]	; (816b4 <SystemCoreClockUpdate+0xf8>)
   815f4:	6b1a      	ldr	r2, [r3, #48]	; 0x30
   815f6:	4931      	ldr	r1, [pc, #196]	; (816bc <SystemCoreClockUpdate+0x100>)
   815f8:	f3c2 1202 	ubfx	r2, r2, #4, #3
   815fc:	680b      	ldr	r3, [r1, #0]
   815fe:	40d3      	lsrs	r3, r2
   81600:	600b      	str	r3, [r1, #0]
   81602:	4770      	bx	lr
		if (PMC->CKGR_MOR & CKGR_MOR_MOSCSEL) {
   81604:	4b2b      	ldr	r3, [pc, #172]	; (816b4 <SystemCoreClockUpdate+0xf8>)
   81606:	6a1b      	ldr	r3, [r3, #32]
   81608:	f013 7f80 	tst.w	r3, #16777216	; 0x1000000
   8160c:	d003      	beq.n	81616 <SystemCoreClockUpdate+0x5a>
			SystemCoreClock = CHIP_FREQ_XTAL_12M;
   8160e:	4a2c      	ldr	r2, [pc, #176]	; (816c0 <SystemCoreClockUpdate+0x104>)
   81610:	4b2a      	ldr	r3, [pc, #168]	; (816bc <SystemCoreClockUpdate+0x100>)
   81612:	601a      	str	r2, [r3, #0]
   81614:	e7e7      	b.n	815e6 <SystemCoreClockUpdate+0x2a>
			SystemCoreClock = CHIP_FREQ_MAINCK_RC_4MHZ;
   81616:	4a2b      	ldr	r2, [pc, #172]	; (816c4 <SystemCoreClockUpdate+0x108>)
   81618:	4b28      	ldr	r3, [pc, #160]	; (816bc <SystemCoreClockUpdate+0x100>)
   8161a:	601a      	str	r2, [r3, #0]
			switch (PMC->CKGR_MOR & CKGR_MOR_MOSCRCF_Msk) {
   8161c:	4b25      	ldr	r3, [pc, #148]	; (816b4 <SystemCoreClockUpdate+0xf8>)
   8161e:	6a1b      	ldr	r3, [r3, #32]
   81620:	f003 0370 	and.w	r3, r3, #112	; 0x70
   81624:	2b10      	cmp	r3, #16
   81626:	d005      	beq.n	81634 <SystemCoreClockUpdate+0x78>
   81628:	2b20      	cmp	r3, #32
   8162a:	d1dc      	bne.n	815e6 <SystemCoreClockUpdate+0x2a>
				SystemCoreClock *= 3U;
   8162c:	4a24      	ldr	r2, [pc, #144]	; (816c0 <SystemCoreClockUpdate+0x104>)
   8162e:	4b23      	ldr	r3, [pc, #140]	; (816bc <SystemCoreClockUpdate+0x100>)
   81630:	601a      	str	r2, [r3, #0]
				break;
   81632:	e7d8      	b.n	815e6 <SystemCoreClockUpdate+0x2a>
				SystemCoreClock *= 2U;
   81634:	4a24      	ldr	r2, [pc, #144]	; (816c8 <SystemCoreClockUpdate+0x10c>)
   81636:	4b21      	ldr	r3, [pc, #132]	; (816bc <SystemCoreClockUpdate+0x100>)
   81638:	601a      	str	r2, [r3, #0]
				break;
   8163a:	e7d4      	b.n	815e6 <SystemCoreClockUpdate+0x2a>
		if (PMC->CKGR_MOR & CKGR_MOR_MOSCSEL) {
   8163c:	4b1d      	ldr	r3, [pc, #116]	; (816b4 <SystemCoreClockUpdate+0xf8>)
   8163e:	6a1b      	ldr	r3, [r3, #32]
   81640:	f013 7f80 	tst.w	r3, #16777216	; 0x1000000
   81644:	d00c      	beq.n	81660 <SystemCoreClockUpdate+0xa4>
			SystemCoreClock = CHIP_FREQ_XTAL_12M;
   81646:	4a1e      	ldr	r2, [pc, #120]	; (816c0 <SystemCoreClockUpdate+0x104>)
   81648:	4b1c      	ldr	r3, [pc, #112]	; (816bc <SystemCoreClockUpdate+0x100>)
   8164a:	601a      	str	r2, [r3, #0]
		if ((PMC->PMC_MCKR & PMC_MCKR_CSS_Msk) == PMC_MCKR_CSS_PLLA_CLK) {
   8164c:	4b19      	ldr	r3, [pc, #100]	; (816b4 <SystemCoreClockUpdate+0xf8>)
   8164e:	6b1b      	ldr	r3, [r3, #48]	; 0x30
   81650:	f003 0303 	and.w	r3, r3, #3
   81654:	2b02      	cmp	r3, #2
   81656:	d016      	beq.n	81686 <SystemCoreClockUpdate+0xca>
			SystemCoreClock = SYS_UTMIPLL / 2U;
   81658:	4a1c      	ldr	r2, [pc, #112]	; (816cc <SystemCoreClockUpdate+0x110>)
   8165a:	4b18      	ldr	r3, [pc, #96]	; (816bc <SystemCoreClockUpdate+0x100>)
   8165c:	601a      	str	r2, [r3, #0]
   8165e:	e7c2      	b.n	815e6 <SystemCoreClockUpdate+0x2a>
			SystemCoreClock = CHIP_FREQ_MAINCK_RC_4MHZ;
   81660:	4a18      	ldr	r2, [pc, #96]	; (816c4 <SystemCoreClockUpdate+0x108>)
   81662:	4b16      	ldr	r3, [pc, #88]	; (816bc <SystemCoreClockUpdate+0x100>)
   81664:	601a      	str	r2, [r3, #0]
			switch (PMC->CKGR_MOR & CKGR_MOR_MOSCRCF_Msk) {
   81666:	4b13      	ldr	r3, [pc, #76]	; (816b4 <SystemCoreClockUpdate+0xf8>)
   81668:	6a1b      	ldr	r3, [r3, #32]
   8166a:	f003 0370 	and.w	r3, r3, #112	; 0x70
   8166e:	2b10      	cmp	r3, #16
   81670:	d005      	beq.n	8167e <SystemCoreClockUpdate+0xc2>
   81672:	2b20      	cmp	r3, #32
   81674:	d1ea      	bne.n	8164c <SystemCoreClockUpdate+0x90>
				SystemCoreClock *= 3U;
   81676:	4a12      	ldr	r2, [pc, #72]	; (816c0 <SystemCoreClockUpdate+0x104>)
   81678:	4b10      	ldr	r3, [pc, #64]	; (816bc <SystemCoreClockUpdate+0x100>)
   8167a:	601a      	str	r2, [r3, #0]
				break;
   8167c:	e7e6      	b.n	8164c <SystemCoreClockUpdate+0x90>
				SystemCoreClock *= 2U;
   8167e:	4a12      	ldr	r2, [pc, #72]	; (816c8 <SystemCoreClockUpdate+0x10c>)
   81680:	4b0e      	ldr	r3, [pc, #56]	; (816bc <SystemCoreClockUpdate+0x100>)
   81682:	601a      	str	r2, [r3, #0]
				break;
   81684:	e7e2      	b.n	8164c <SystemCoreClockUpdate+0x90>
			SystemCoreClock *= ((((PMC->CKGR_PLLAR) & CKGR_PLLAR_MULA_Msk) >> 
   81686:	4a0b      	ldr	r2, [pc, #44]	; (816b4 <SystemCoreClockUpdate+0xf8>)
   81688:	6a91      	ldr	r1, [r2, #40]	; 0x28
			SystemCoreClock /= ((((PMC->CKGR_PLLAR) & CKGR_PLLAR_DIVA_Msk) >> 
   8168a:	6a92      	ldr	r2, [r2, #40]	; 0x28
   8168c:	480b      	ldr	r0, [pc, #44]	; (816bc <SystemCoreClockUpdate+0x100>)
			SystemCoreClock *= ((((PMC->CKGR_PLLAR) & CKGR_PLLAR_MULA_Msk) >> 
   8168e:	f3c1 410a 	ubfx	r1, r1, #16, #11
   81692:	6803      	ldr	r3, [r0, #0]
   81694:	fb01 3303 	mla	r3, r1, r3, r3
			SystemCoreClock /= ((((PMC->CKGR_PLLAR) & CKGR_PLLAR_DIVA_Msk) >> 
   81698:	b2d2      	uxtb	r2, r2
   8169a:	fbb3 f3f2 	udiv	r3, r3, r2
   8169e:	6003      	str	r3, [r0, #0]
   816a0:	e7a1      	b.n	815e6 <SystemCoreClockUpdate+0x2a>
		SystemCoreClock /= 3U;
   816a2:	4a06      	ldr	r2, [pc, #24]	; (816bc <SystemCoreClockUpdate+0x100>)
   816a4:	6813      	ldr	r3, [r2, #0]
   816a6:	490a      	ldr	r1, [pc, #40]	; (816d0 <SystemCoreClockUpdate+0x114>)
   816a8:	fba1 1303 	umull	r1, r3, r1, r3
   816ac:	085b      	lsrs	r3, r3, #1
   816ae:	6013      	str	r3, [r2, #0]
   816b0:	4770      	bx	lr
   816b2:	bf00      	nop
   816b4:	400e0600 	.word	0x400e0600
   816b8:	400e1a10 	.word	0x400e1a10
   816bc:	200704e4 	.word	0x200704e4
   816c0:	00b71b00 	.word	0x00b71b00
   816c4:	003d0900 	.word	0x003d0900
   816c8:	007a1200 	.word	0x007a1200
   816cc:	0e4e1c00 	.word	0x0e4e1c00
   816d0:	aaaaaaab 	.word	0xaaaaaaab

000816d4 <_sbrk>:
{
	static unsigned char *heap = NULL;
	unsigned char *prev_heap;
	int ramend = (int)&__ram_end__;

	if (heap == NULL) {
   816d4:	4b0a      	ldr	r3, [pc, #40]	; (81700 <_sbrk+0x2c>)
   816d6:	681b      	ldr	r3, [r3, #0]
   816d8:	b153      	cbz	r3, 816f0 <_sbrk+0x1c>
		heap = (unsigned char *)&_end;
	}
	prev_heap = heap;
   816da:	4b09      	ldr	r3, [pc, #36]	; (81700 <_sbrk+0x2c>)
   816dc:	681b      	ldr	r3, [r3, #0]

	if (((int)prev_heap + incr) > ramend) {
   816de:	181a      	adds	r2, r3, r0
   816e0:	4908      	ldr	r1, [pc, #32]	; (81704 <_sbrk+0x30>)
   816e2:	4291      	cmp	r1, r2
   816e4:	db08      	blt.n	816f8 <_sbrk+0x24>
		return (caddr_t) -1;	
	}

	heap += incr;
   816e6:	4610      	mov	r0, r2
   816e8:	4a05      	ldr	r2, [pc, #20]	; (81700 <_sbrk+0x2c>)
   816ea:	6010      	str	r0, [r2, #0]

	return (caddr_t) prev_heap;
   816ec:	4618      	mov	r0, r3
   816ee:	4770      	bx	lr
		heap = (unsigned char *)&_end;
   816f0:	4a05      	ldr	r2, [pc, #20]	; (81708 <_sbrk+0x34>)
   816f2:	4b03      	ldr	r3, [pc, #12]	; (81700 <_sbrk+0x2c>)
   816f4:	601a      	str	r2, [r3, #0]
   816f6:	e7f0      	b.n	816da <_sbrk+0x6>
		return (caddr_t) -1;	
   816f8:	f04f 30ff 	mov.w	r0, #4294967295
}
   816fc:	4770      	bx	lr
   816fe:	bf00      	nop
   81700:	20071030 	.word	0x20071030
   81704:	20087ffc 	.word	0x20087ffc
   81708:	20073128 	.word	0x20073128

0008170c <GetDetectState>:

uint GetDetectState(void);
void Detector_Calib2Regular(void);

uint GetDetectState()
{
   8170c:	b508      	push	{r3, lr}
	uint32_t inputpin;
	uint RetVal;
	inputpin = pio_get_pin_value(PIO_PB26_IDX);
   8170e:	203a      	movs	r0, #58	; 0x3a
   81710:	4b04      	ldr	r3, [pc, #16]	; (81724 <GetDetectState+0x18>)
   81712:	4798      	blx	r3
	switch(inputpin)
   81714:	b120      	cbz	r0, 81720 <GetDetectState+0x14>
		break;
		case CALIBRATE_Detector:
		RetVal = CALIBRATE_Detector;
		break;
		default:
		RetVal = UNKNOWN_Detector;
   81716:	2801      	cmp	r0, #1
   81718:	bf0c      	ite	eq
   8171a:	2001      	moveq	r0, #1
   8171c:	2002      	movne	r0, #2
   8171e:	bd08      	pop	{r3, pc}
		RetVal = REGULAR_Detector;
   81720:	2000      	movs	r0, #0
		break;
	}
	return RetVal;
}
   81722:	bd08      	pop	{r3, pc}
   81724:	000811bb 	.word	0x000811bb

00081728 <Detector_Calib2Regular>:

void Detector_Calib2Regular()
{
   81728:	b500      	push	{lr}
   8172a:	b085      	sub	sp, #20
	// stop ADC channel 1 
	// save Calibration in FLASH (NFC)	
	Byte b2[10];
	FilterState = 6;
   8172c:	2206      	movs	r2, #6
   8172e:	4b07      	ldr	r3, [pc, #28]	; (8174c <Detector_Calib2Regular+0x24>)
   81730:	601a      	str	r2, [r3, #0]
	memcpy(b2,&Threshold,sizeof(uint32_t));
   81732:	4b07      	ldr	r3, [pc, #28]	; (81750 <Detector_Calib2Regular+0x28>)
   81734:	681b      	ldr	r3, [r3, #0]
   81736:	a804      	add	r0, sp, #16
   81738:	f840 3d0c 	str.w	r3, [r0, #-12]!
	//memcpy(b2,&TTest,sizeof(uint32_t));
	WriteCalibToFlash(b2);
   8173c:	4b05      	ldr	r3, [pc, #20]	; (81754 <Detector_Calib2Regular+0x2c>)
   8173e:	4798      	blx	r3
	PrintLn("Write to flash\n");
   81740:	4805      	ldr	r0, [pc, #20]	; (81758 <Detector_Calib2Regular+0x30>)
   81742:	4b06      	ldr	r3, [pc, #24]	; (8175c <Detector_Calib2Regular+0x34>)
   81744:	4798      	blx	r3
//	adc_disable_interrupt(ADC,ADC_IER_EOC0);	
	
}
   81746:	b005      	add	sp, #20
   81748:	f85d fb04 	ldr.w	pc, [sp], #4
   8174c:	200704e8 	.word	0x200704e8
   81750:	200704f0 	.word	0x200704f0
   81754:	000805e9 	.word	0x000805e9
   81758:	00086354 	.word	0x00086354
   8175c:	00080661 	.word	0x00080661

00081760 <main>:
	// start ADC Channel 1 
	// Update Calibration according to potentiometer ADC ch1	
}*/

int main (void)
{
   81760:	e92d 43f8 	stmdb	sp!, {r3, r4, r5, r6, r7, r8, r9, lr}
	char out_str[70] = {0};
	int i;	


	/* Insert system clock initialization code here (sysclk_init()). */
	sysclk_init();
   81764:	4b81      	ldr	r3, [pc, #516]	; (8196c <main+0x20c>)
   81766:	4798      	blx	r3
	//Allow UART to control PB2 and PB3
	pio_set_peripheral(PIOA, PIO_PERIPH_A, PINS_UART);
	//Enable UART1 Clock	
	sysclk_enable_peripheral_clock(ID_UART);
	#endif
	gpio_configure_group(PIOB, PIO_PB26, PIO_INPUT|PIO_DEBOUNCE); // arduino due pin # 22
   81768:	4e81      	ldr	r6, [pc, #516]	; (81970 <main+0x210>)
   8176a:	4d82      	ldr	r5, [pc, #520]	; (81974 <main+0x214>)
   8176c:	4632      	mov	r2, r6
   8176e:	f04f 6180 	mov.w	r1, #67108864	; 0x4000000
   81772:	4628      	mov	r0, r5
   81774:	4c80      	ldr	r4, [pc, #512]	; (81978 <main+0x218>)
   81776:	47a0      	blx	r4
	gpio_configure_group(PIOD, PIO_PD1, PIO_OUTPUT_0); // arduino due pin # 26 OUTPUT red LED error
   81778:	f04f 5240 	mov.w	r2, #805306368	; 0x30000000
   8177c:	2102      	movs	r1, #2
   8177e:	487f      	ldr	r0, [pc, #508]	; (8197c <main+0x21c>)
   81780:	47a0      	blx	r4
	gpio_configure_group(PIOB, PIO_PB21, PIO_OUTPUT_0); // arduino Blue LED
   81782:	f04f 5240 	mov.w	r2, #805306368	; 0x30000000
   81786:	f44f 1100 	mov.w	r1, #2097152	; 0x200000
   8178a:	4628      	mov	r0, r5
   8178c:	47a0      	blx	r4
	gpio_configure_group(PIOA, PIO_PA7, PIO_OUTPUT_0); // arduino RT meas
   8178e:	f5a5 7500 	sub.w	r5, r5, #512	; 0x200
   81792:	f04f 5240 	mov.w	r2, #805306368	; 0x30000000
   81796:	2180      	movs	r1, #128	; 0x80
   81798:	4628      	mov	r0, r5
   8179a:	47a0      	blx	r4
	gpio_configure_group(PIOA, PIO_PA15, PIO_INPUT|PIO_DEBOUNCE); // arduino due pin # 24 BUTTON
   8179c:	4632      	mov	r2, r6
   8179e:	f44f 4100 	mov.w	r1, #32768	; 0x8000
   817a2:	4628      	mov	r0, r5
   817a4:	47a0      	blx	r4
	// might conister to use pull down instead of debouncer
	board_init();
   817a6:	4b76      	ldr	r3, [pc, #472]	; (81980 <main+0x220>)
   817a8:	4798      	blx	r3
	pio_set_pin_low(LED2_GPIO);	
   817aa:	2056      	movs	r0, #86	; 0x56
   817ac:	4c75      	ldr	r4, [pc, #468]	; (81984 <main+0x224>)
   817ae:	47a0      	blx	r4
	pio_set_pin_low(PIO_PD1_IDX);
   817b0:	2061      	movs	r0, #97	; 0x61
   817b2:	47a0      	blx	r4
	pio_set_pin_low(PIO_PB21_IDX);
   817b4:	2035      	movs	r0, #53	; 0x35
   817b6:	47a0      	blx	r4
	pio_set_pin_low(PIO_PA7_IDX);
   817b8:	2007      	movs	r0, #7
   817ba:	47a0      	blx	r4
	
	
	// Init FIFO's
	FIFO_Init(&Fifo);
   817bc:	4872      	ldr	r0, [pc, #456]	; (81988 <main+0x228>)
   817be:	4b73      	ldr	r3, [pc, #460]	; (8198c <main+0x22c>)
   817c0:	4798      	blx	r3
	FIFO2_Init(&WaveArray,FIFO2_LEN);
   817c2:	f44f 6180 	mov.w	r1, #1024	; 0x400
   817c6:	4872      	ldr	r0, [pc, #456]	; (81990 <main+0x230>)
   817c8:	4c72      	ldr	r4, [pc, #456]	; (81994 <main+0x234>)
   817ca:	47a0      	blx	r4
	//Fifo2LenAverage = 1.0f/((float)Fifo2p1.len);
	//FIFO2_Init(&Fifo2p2,5435);
	FIFO2_Init(&fifoDebug,3000);
   817cc:	f640 31b8 	movw	r1, #3000	; 0xbb8
   817d0:	4871      	ldr	r0, [pc, #452]	; (81998 <main+0x238>)
   817d2:	47a0      	blx	r4
		
	
	Timer_init();
   817d4:	4b71      	ldr	r3, [pc, #452]	; (8199c <main+0x23c>)
   817d6:	4798      	blx	r3
	
	SPI_Init();
   817d8:	4b71      	ldr	r3, [pc, #452]	; (819a0 <main+0x240>)
   817da:	4798      	blx	r3
	FLASH_Init();
   817dc:	4b71      	ldr	r3, [pc, #452]	; (819a4 <main+0x244>)
   817de:	4798      	blx	r3
	#if DEBUG_UART
	uart_init(UART, &uart1Settings);
	//irq_register_handler(UART_IRQn, 0);
	#endif
	
	RF_InitTX();
   817e0:	4b71      	ldr	r3, [pc, #452]	; (819a8 <main+0x248>)
   817e2:	4798      	blx	r3
   817e4:	23ff      	movs	r3, #255	; 0xff
	for(i=0;i<0xff;i++)
   817e6:	3b01      	subs	r3, #1
   817e8:	d1fd      	bne.n	817e6 <main+0x86>
		__NOP;
	RF_SendBell(RF24_TEST);
   817ea:	2000      	movs	r0, #0
   817ec:	4b6f      	ldr	r3, [pc, #444]	; (819ac <main+0x24c>)
   817ee:	4798      	blx	r3
	pio_set_pin_high(LED2_GPIO);
   817f0:	2056      	movs	r0, #86	; 0x56
   817f2:	4c6f      	ldr	r4, [pc, #444]	; (819b0 <main+0x250>)
   817f4:	47a0      	blx	r4
	pio_set_pin_high(PIO_PD1_IDX);
   817f6:	2061      	movs	r0, #97	; 0x61
   817f8:	47a0      	blx	r4
	pio_set_pin_high(PIO_PB21_IDX);
   817fa:	2035      	movs	r0, #53	; 0x35
   817fc:	47a0      	blx	r4
	Timer_Sleep(1000);
   817fe:	f44f 707a 	mov.w	r0, #1000	; 0x3e8
   81802:	4b6c      	ldr	r3, [pc, #432]	; (819b4 <main+0x254>)
   81804:	4798      	blx	r3
	pio_set_pin_low(LED2_GPIO);
   81806:	2056      	movs	r0, #86	; 0x56
   81808:	4c5e      	ldr	r4, [pc, #376]	; (81984 <main+0x224>)
   8180a:	47a0      	blx	r4
	pio_set_pin_low(PIO_PD1_IDX);
   8180c:	2061      	movs	r0, #97	; 0x61
   8180e:	47a0      	blx	r4
	pio_set_pin_low(PIO_PB21_IDX);
   81810:	2035      	movs	r0, #53	; 0x35
   81812:	47a0      	blx	r4
	
	//Timer_Sleep(10000);
	DetectorState = GetDetectState();
   81814:	4b68      	ldr	r3, [pc, #416]	; (819b8 <main+0x258>)
   81816:	4798      	blx	r3
   81818:	b2c0      	uxtb	r0, r0
   8181a:	4b68      	ldr	r3, [pc, #416]	; (819bc <main+0x25c>)
   8181c:	7018      	strb	r0, [r3, #0]
	PrevDetectorState = DetectorState;
   8181e:	4b68      	ldr	r3, [pc, #416]	; (819c0 <main+0x260>)
   81820:	7018      	strb	r0, [r3, #0]

	if(DetectorState == REGULAR_Detector)
   81822:	b138      	cbz	r0, 81834 <main+0xd4>
		Byte *p;
		p = ReadCalibFromFlash();
		memcpy(&Threshold,p,sizeof(uint32_t));
	}
		
	ADCC_Init();
   81824:	4b67      	ldr	r3, [pc, #412]	; (819c4 <main+0x264>)
   81826:	4798      	blx	r3
	DAC3X8E_Init();
   81828:	4b67      	ldr	r3, [pc, #412]	; (819c8 <main+0x268>)
   8182a:	4798      	blx	r3
	/*
	Insert application code here, after the board has been initialized. */
	while(1)
	{	
		Calibration = ADC->ADC_CDR[1];		
		DetectorState = GetDetectState();
   8182c:	4d63      	ldr	r5, [pc, #396]	; (819bc <main+0x25c>)
			{
				case REGULAR_Detector:				
				Detector_Calib2Regular();
				break;
				case CALIBRATE_Detector:
				FilterState = 6;				
   8182e:	4f67      	ldr	r7, [pc, #412]	; (819cc <main+0x26c>)
			FIFO_Init(&Fifo);
			FIFO2_Reset(&WaveArray);
			FilterState = 6;
			delay = 0;
			//FIFO2_Reset(&Fifo2p2);
			Timer_Sleep(20);
   81830:	4e60      	ldr	r6, [pc, #384]	; (819b4 <main+0x254>)
   81832:	e048      	b.n	818c6 <main+0x166>
		p = ReadCalibFromFlash();
   81834:	4b66      	ldr	r3, [pc, #408]	; (819d0 <main+0x270>)
   81836:	4798      	blx	r3
		memcpy(&Threshold,p,sizeof(uint32_t));
   81838:	6802      	ldr	r2, [r0, #0]
   8183a:	4b66      	ldr	r3, [pc, #408]	; (819d4 <main+0x274>)
   8183c:	601a      	str	r2, [r3, #0]
   8183e:	e7f1      	b.n	81824 <main+0xc4>
				Detector_Calib2Regular();
   81840:	4b65      	ldr	r3, [pc, #404]	; (819d8 <main+0x278>)
   81842:	4798      	blx	r3
			PrevDetectorState = DetectorState;
   81844:	782a      	ldrb	r2, [r5, #0]
   81846:	4b5e      	ldr	r3, [pc, #376]	; (819c0 <main+0x260>)
   81848:	701a      	strb	r2, [r3, #0]
		switch(DetectorState)
   8184a:	782b      	ldrb	r3, [r5, #0]
   8184c:	b163      	cbz	r3, 81868 <main+0x108>
   8184e:	2b01      	cmp	r3, #1
   81850:	d110      	bne.n	81874 <main+0x114>
			pio_set_pin_low(PIO_PD1_IDX);
   81852:	2061      	movs	r0, #97	; 0x61
   81854:	4b4b      	ldr	r3, [pc, #300]	; (81984 <main+0x224>)
   81856:	4798      	blx	r3
			MaxAllowedFirstVal = UINT32_MAX;
   81858:	f04f 32ff 	mov.w	r2, #4294967295
   8185c:	4b5f      	ldr	r3, [pc, #380]	; (819dc <main+0x27c>)
   8185e:	601a      	str	r2, [r3, #0]
			break;
   81860:	e008      	b.n	81874 <main+0x114>
				FilterState = 6;				
   81862:	2306      	movs	r3, #6
   81864:	603b      	str	r3, [r7, #0]
				break;
   81866:	e7ed      	b.n	81844 <main+0xe4>
			MaxAllowedFirstVal = Threshold + (4<<17);//(29<<17)/10;
   81868:	4b5a      	ldr	r3, [pc, #360]	; (819d4 <main+0x274>)
   8186a:	681b      	ldr	r3, [r3, #0]
   8186c:	f503 2300 	add.w	r3, r3, #524288	; 0x80000
   81870:	4a5a      	ldr	r2, [pc, #360]	; (819dc <main+0x27c>)
   81872:	6013      	str	r3, [r2, #0]
		if(FilterState == 5)
   81874:	683b      	ldr	r3, [r7, #0]
   81876:	2b05      	cmp	r3, #5
			pio_set_pin_high(PIO_PD1_IDX);
   81878:	f04f 0061 	mov.w	r0, #97	; 0x61
   8187c:	bf0c      	ite	eq
   8187e:	4b4c      	ldreq	r3, [pc, #304]	; (819b0 <main+0x250>)
			pio_set_pin_low(PIO_PD1_IDX);
   81880:	4b40      	ldrne	r3, [pc, #256]	; (81984 <main+0x224>)
   81882:	4798      	blx	r3
		if(Det_flag)
   81884:	4b56      	ldr	r3, [pc, #344]	; (819e0 <main+0x280>)
   81886:	681b      	ldr	r3, [r3, #0]
   81888:	b1c3      	cbz	r3, 818bc <main+0x15c>
			Det_flag = 0;				
   8188a:	2200      	movs	r2, #0
   8188c:	4b54      	ldr	r3, [pc, #336]	; (819e0 <main+0x280>)
   8188e:	601a      	str	r2, [r3, #0]
			switch (DetectorState)
   81890:	782b      	ldrb	r3, [r5, #0]
   81892:	2b00      	cmp	r3, #0
   81894:	d030      	beq.n	818f8 <main+0x198>
   81896:	2b01      	cmp	r3, #1
   81898:	d043      	beq.n	81922 <main+0x1c2>
			FIFO_Init(&Fifo);
   8189a:	483b      	ldr	r0, [pc, #236]	; (81988 <main+0x228>)
   8189c:	4b3b      	ldr	r3, [pc, #236]	; (8198c <main+0x22c>)
   8189e:	4798      	blx	r3
			FIFO2_Reset(&WaveArray);
   818a0:	483b      	ldr	r0, [pc, #236]	; (81990 <main+0x230>)
   818a2:	4b50      	ldr	r3, [pc, #320]	; (819e4 <main+0x284>)
   818a4:	4798      	blx	r3
			FilterState = 6;
   818a6:	2306      	movs	r3, #6
   818a8:	603b      	str	r3, [r7, #0]
			delay = 0;
   818aa:	2200      	movs	r2, #0
   818ac:	4b4e      	ldr	r3, [pc, #312]	; (819e8 <main+0x288>)
   818ae:	601a      	str	r2, [r3, #0]
			Timer_Sleep(20);
   818b0:	2014      	movs	r0, #20
   818b2:	47b0      	blx	r6
			adc_enable_interrupt(ADC,ADC_IER_EOC0);
   818b4:	2101      	movs	r1, #1
   818b6:	484d      	ldr	r0, [pc, #308]	; (819ec <main+0x28c>)
   818b8:	4b4d      	ldr	r3, [pc, #308]	; (819f0 <main+0x290>)
   818ba:	4798      	blx	r3
		}
		if(DetectorState == CALIBRATE_Detector){
   818bc:	782b      	ldrb	r3, [r5, #0]
   818be:	2b01      	cmp	r3, #1
   818c0:	d04b      	beq.n	8195a <main+0x1fa>
		#if DEBUG_UART
		Timer_Sleep(10);
		sprintf(out_str,"%lu\n", FilterState);
		PrintLn(out_str);		
		#endif
		Timer_Sleep(100);
   818c2:	2064      	movs	r0, #100	; 0x64
   818c4:	47b0      	blx	r6
		Calibration = ADC->ADC_CDR[1];		
   818c6:	4b49      	ldr	r3, [pc, #292]	; (819ec <main+0x28c>)
   818c8:	6d5a      	ldr	r2, [r3, #84]	; 0x54
   818ca:	4b4a      	ldr	r3, [pc, #296]	; (819f4 <main+0x294>)
   818cc:	601a      	str	r2, [r3, #0]
		DetectorState = GetDetectState();
   818ce:	4b3a      	ldr	r3, [pc, #232]	; (819b8 <main+0x258>)
   818d0:	4798      	blx	r3
   818d2:	b2c0      	uxtb	r0, r0
   818d4:	7028      	strb	r0, [r5, #0]
		if((DetectorState != UNKNOWN_Detector) &&(DetectorState != PrevDetectorState)) // State changed
   818d6:	2802      	cmp	r0, #2
   818d8:	d0cc      	beq.n	81874 <main+0x114>
   818da:	4b39      	ldr	r3, [pc, #228]	; (819c0 <main+0x260>)
   818dc:	781b      	ldrb	r3, [r3, #0]
   818de:	4283      	cmp	r3, r0
   818e0:	d0b3      	beq.n	8184a <main+0xea>
			PrintLn("State change\n");
   818e2:	4845      	ldr	r0, [pc, #276]	; (819f8 <main+0x298>)
   818e4:	4b45      	ldr	r3, [pc, #276]	; (819fc <main+0x29c>)
   818e6:	4798      	blx	r3
			switch(DetectorState)
   818e8:	782b      	ldrb	r3, [r5, #0]
   818ea:	2b00      	cmp	r3, #0
   818ec:	d0a8      	beq.n	81840 <main+0xe0>
   818ee:	2b01      	cmp	r3, #1
   818f0:	d0b7      	beq.n	81862 <main+0x102>
				Detector_Calib2Regular();
   818f2:	4b39      	ldr	r3, [pc, #228]	; (819d8 <main+0x278>)
   818f4:	4798      	blx	r3
   818f6:	e7a5      	b.n	81844 <main+0xe4>
			switch (DetectorState)
   818f8:	240a      	movs	r4, #10
					Timer_Sleep(20);				
   818fa:	f04f 0914 	mov.w	r9, #20
					RF_SendBell(RF24_BELLDOOR);
   818fe:	f8df 80ac 	ldr.w	r8, [pc, #172]	; 819ac <main+0x24c>
					Timer_Sleep(20);				
   81902:	4648      	mov	r0, r9
   81904:	47b0      	blx	r6
					RF_SendBell(RF24_BELLDOOR);
   81906:	2001      	movs	r0, #1
   81908:	47c0      	blx	r8
				for(i=0;i<10;i++)
   8190a:	3c01      	subs	r4, #1
   8190c:	d1f9      	bne.n	81902 <main+0x1a2>
				pio_set_pin_high(LED2_GPIO);
   8190e:	2056      	movs	r0, #86	; 0x56
   81910:	4b27      	ldr	r3, [pc, #156]	; (819b0 <main+0x250>)
   81912:	4798      	blx	r3
				Timer_Sleep(500);
   81914:	f44f 70fa 	mov.w	r0, #500	; 0x1f4
   81918:	47b0      	blx	r6
				pio_set_pin_low(LED2_GPIO);
   8191a:	2056      	movs	r0, #86	; 0x56
   8191c:	4b19      	ldr	r3, [pc, #100]	; (81984 <main+0x224>)
   8191e:	4798      	blx	r3
				break;
   81920:	e7bb      	b.n	8189a <main+0x13a>
				pio_set_pin_high(LED2_GPIO);
   81922:	2056      	movs	r0, #86	; 0x56
   81924:	4b22      	ldr	r3, [pc, #136]	; (819b0 <main+0x250>)
   81926:	4798      	blx	r3
				if((FirstDetVal>(Threshold+(1<<17))) && (FirstDetVal<(Threshold+(3<<17))))
   81928:	4b2a      	ldr	r3, [pc, #168]	; (819d4 <main+0x274>)
   8192a:	681b      	ldr	r3, [r3, #0]
   8192c:	4a34      	ldr	r2, [pc, #208]	; (81a00 <main+0x2a0>)
   8192e:	6812      	ldr	r2, [r2, #0]
   81930:	f503 3100 	add.w	r1, r3, #131072	; 0x20000
   81934:	4291      	cmp	r1, r2
   81936:	d203      	bcs.n	81940 <main+0x1e0>
   81938:	f503 23c0 	add.w	r3, r3, #393216	; 0x60000
   8193c:	429a      	cmp	r2, r3
   8193e:	d308      	bcc.n	81952 <main+0x1f2>
				Timer_Sleep(3000);				
   81940:	f640 30b8 	movw	r0, #3000	; 0xbb8
   81944:	47b0      	blx	r6
				pio_set_pin_low(LED2_GPIO);
   81946:	2056      	movs	r0, #86	; 0x56
   81948:	4c0e      	ldr	r4, [pc, #56]	; (81984 <main+0x224>)
   8194a:	47a0      	blx	r4
				pio_set_pin_low(PIO_PB21_IDX);
   8194c:	2035      	movs	r0, #53	; 0x35
   8194e:	47a0      	blx	r4
				break;
   81950:	e7a3      	b.n	8189a <main+0x13a>
					pio_set_pin_high(PIO_PB21_IDX);
   81952:	2035      	movs	r0, #53	; 0x35
   81954:	4b16      	ldr	r3, [pc, #88]	; (819b0 <main+0x250>)
   81956:	4798      	blx	r3
   81958:	e7f2      	b.n	81940 <main+0x1e0>
			Threshold = Calibration*(1<<5)*MAX_CALIBRATION;
   8195a:	4b26      	ldr	r3, [pc, #152]	; (819f4 <main+0x294>)
   8195c:	681b      	ldr	r3, [r3, #0]
   8195e:	eb03 0343 	add.w	r3, r3, r3, lsl #1
   81962:	019b      	lsls	r3, r3, #6
   81964:	4a1b      	ldr	r2, [pc, #108]	; (819d4 <main+0x274>)
   81966:	6013      	str	r3, [r2, #0]
   81968:	e7ab      	b.n	818c2 <main+0x162>
   8196a:	bf00      	nop
   8196c:	00081039 	.word	0x00081039
   81970:	28000008 	.word	0x28000008
   81974:	400e1000 	.word	0x400e1000
   81978:	000812dd 	.word	0x000812dd
   8197c:	400e1400 	.word	0x400e1400
   81980:	0008109d 	.word	0x0008109d
   81984:	000811f1 	.word	0x000811f1
   81988:	200710b4 	.word	0x200710b4
   8198c:	00080289 	.word	0x00080289
   81990:	20071074 	.word	0x20071074
   81994:	000802b5 	.word	0x000802b5
   81998:	200710f0 	.word	0x200710f0
   8199c:	00080f8d 	.word	0x00080f8d
   819a0:	00080d2d 	.word	0x00080d2d
   819a4:	000803ed 	.word	0x000803ed
   819a8:	00080945 	.word	0x00080945
   819ac:	000809f5 	.word	0x000809f5
   819b0:	000811d7 	.word	0x000811d7
   819b4:	00081005 	.word	0x00081005
   819b8:	0008170d 	.word	0x0008170d
   819bc:	200710a0 	.word	0x200710a0
   819c0:	20071070 	.word	0x20071070
   819c4:	00080c19 	.word	0x00080c19
   819c8:	0008033d 	.word	0x0008033d
   819cc:	200704e8 	.word	0x200704e8
   819d0:	00080405 	.word	0x00080405
   819d4:	200704f0 	.word	0x200704f0
   819d8:	00081729 	.word	0x00081729
   819dc:	200704ec 	.word	0x200704ec
   819e0:	20071034 	.word	0x20071034
   819e4:	00080319 	.word	0x00080319
   819e8:	200710a8 	.word	0x200710a8
   819ec:	400c0000 	.word	0x400c0000
   819f0:	000801e7 	.word	0x000801e7
   819f4:	20071094 	.word	0x20071094
   819f8:	00086364 	.word	0x00086364
   819fc:	00080661 	.word	0x00080661
   81a00:	200710a4 	.word	0x200710a4

00081a04 <__libc_init_array>:
   81a04:	b570      	push	{r4, r5, r6, lr}
   81a06:	4e0f      	ldr	r6, [pc, #60]	; (81a44 <__libc_init_array+0x40>)
   81a08:	4d0f      	ldr	r5, [pc, #60]	; (81a48 <__libc_init_array+0x44>)
   81a0a:	1b76      	subs	r6, r6, r5
   81a0c:	10b6      	asrs	r6, r6, #2
   81a0e:	bf18      	it	ne
   81a10:	2400      	movne	r4, #0
   81a12:	d005      	beq.n	81a20 <__libc_init_array+0x1c>
   81a14:	3401      	adds	r4, #1
   81a16:	f855 3b04 	ldr.w	r3, [r5], #4
   81a1a:	4798      	blx	r3
   81a1c:	42a6      	cmp	r6, r4
   81a1e:	d1f9      	bne.n	81a14 <__libc_init_array+0x10>
   81a20:	4e0a      	ldr	r6, [pc, #40]	; (81a4c <__libc_init_array+0x48>)
   81a22:	4d0b      	ldr	r5, [pc, #44]	; (81a50 <__libc_init_array+0x4c>)
   81a24:	f004 fdec 	bl	86600 <_init>
   81a28:	1b76      	subs	r6, r6, r5
   81a2a:	10b6      	asrs	r6, r6, #2
   81a2c:	bf18      	it	ne
   81a2e:	2400      	movne	r4, #0
   81a30:	d006      	beq.n	81a40 <__libc_init_array+0x3c>
   81a32:	3401      	adds	r4, #1
   81a34:	f855 3b04 	ldr.w	r3, [r5], #4
   81a38:	4798      	blx	r3
   81a3a:	42a6      	cmp	r6, r4
   81a3c:	d1f9      	bne.n	81a32 <__libc_init_array+0x2e>
   81a3e:	bd70      	pop	{r4, r5, r6, pc}
   81a40:	bd70      	pop	{r4, r5, r6, pc}
   81a42:	bf00      	nop
   81a44:	0008660c 	.word	0x0008660c
   81a48:	0008660c 	.word	0x0008660c
   81a4c:	00086614 	.word	0x00086614
   81a50:	0008660c 	.word	0x0008660c

00081a54 <malloc>:
   81a54:	4b02      	ldr	r3, [pc, #8]	; (81a60 <malloc+0xc>)
   81a56:	4601      	mov	r1, r0
   81a58:	6818      	ldr	r0, [r3, #0]
   81a5a:	f000 b803 	b.w	81a64 <_malloc_r>
   81a5e:	bf00      	nop
   81a60:	200704f4 	.word	0x200704f4

00081a64 <_malloc_r>:
   81a64:	e92d 4ff0 	stmdb	sp!, {r4, r5, r6, r7, r8, r9, sl, fp, lr}
   81a68:	f101 060b 	add.w	r6, r1, #11
   81a6c:	2e16      	cmp	r6, #22
   81a6e:	b083      	sub	sp, #12
   81a70:	4605      	mov	r5, r0
   81a72:	f240 809e 	bls.w	81bb2 <_malloc_r+0x14e>
   81a76:	f036 0607 	bics.w	r6, r6, #7
   81a7a:	f100 80bd 	bmi.w	81bf8 <_malloc_r+0x194>
   81a7e:	42b1      	cmp	r1, r6
   81a80:	f200 80ba 	bhi.w	81bf8 <_malloc_r+0x194>
   81a84:	f000 fb54 	bl	82130 <__malloc_lock>
   81a88:	f5b6 7ffc 	cmp.w	r6, #504	; 0x1f8
   81a8c:	f0c0 8285 	bcc.w	81f9a <_malloc_r+0x536>
   81a90:	0a73      	lsrs	r3, r6, #9
   81a92:	f000 80b8 	beq.w	81c06 <_malloc_r+0x1a2>
   81a96:	2b04      	cmp	r3, #4
   81a98:	f200 816c 	bhi.w	81d74 <_malloc_r+0x310>
   81a9c:	09b3      	lsrs	r3, r6, #6
   81a9e:	f103 0039 	add.w	r0, r3, #57	; 0x39
   81aa2:	f103 0e38 	add.w	lr, r3, #56	; 0x38
   81aa6:	00c1      	lsls	r1, r0, #3
   81aa8:	4fb8      	ldr	r7, [pc, #736]	; (81d8c <_malloc_r+0x328>)
   81aaa:	4439      	add	r1, r7
   81aac:	684c      	ldr	r4, [r1, #4]
   81aae:	3908      	subs	r1, #8
   81ab0:	42a1      	cmp	r1, r4
   81ab2:	d106      	bne.n	81ac2 <_malloc_r+0x5e>
   81ab4:	e00c      	b.n	81ad0 <_malloc_r+0x6c>
   81ab6:	2a00      	cmp	r2, #0
   81ab8:	f280 80ab 	bge.w	81c12 <_malloc_r+0x1ae>
   81abc:	68e4      	ldr	r4, [r4, #12]
   81abe:	42a1      	cmp	r1, r4
   81ac0:	d006      	beq.n	81ad0 <_malloc_r+0x6c>
   81ac2:	6863      	ldr	r3, [r4, #4]
   81ac4:	f023 0303 	bic.w	r3, r3, #3
   81ac8:	1b9a      	subs	r2, r3, r6
   81aca:	2a0f      	cmp	r2, #15
   81acc:	ddf3      	ble.n	81ab6 <_malloc_r+0x52>
   81ace:	4670      	mov	r0, lr
   81ad0:	693c      	ldr	r4, [r7, #16]
   81ad2:	f8df e2cc 	ldr.w	lr, [pc, #716]	; 81da0 <_malloc_r+0x33c>
   81ad6:	4574      	cmp	r4, lr
   81ad8:	f000 819e 	beq.w	81e18 <_malloc_r+0x3b4>
   81adc:	6863      	ldr	r3, [r4, #4]
   81ade:	f023 0303 	bic.w	r3, r3, #3
   81ae2:	1b9a      	subs	r2, r3, r6
   81ae4:	2a0f      	cmp	r2, #15
   81ae6:	f300 8183 	bgt.w	81df0 <_malloc_r+0x38c>
   81aea:	2a00      	cmp	r2, #0
   81aec:	f8c7 e014 	str.w	lr, [r7, #20]
   81af0:	f8c7 e010 	str.w	lr, [r7, #16]
   81af4:	f280 8091 	bge.w	81c1a <_malloc_r+0x1b6>
   81af8:	f5b3 7f00 	cmp.w	r3, #512	; 0x200
   81afc:	f080 8154 	bcs.w	81da8 <_malloc_r+0x344>
   81b00:	2201      	movs	r2, #1
   81b02:	08db      	lsrs	r3, r3, #3
   81b04:	6879      	ldr	r1, [r7, #4]
   81b06:	ea4f 0ca3 	mov.w	ip, r3, asr #2
   81b0a:	4413      	add	r3, r2
   81b0c:	f857 8033 	ldr.w	r8, [r7, r3, lsl #3]
   81b10:	fa02 f20c 	lsl.w	r2, r2, ip
   81b14:	eb07 0cc3 	add.w	ip, r7, r3, lsl #3
   81b18:	430a      	orrs	r2, r1
   81b1a:	f1ac 0108 	sub.w	r1, ip, #8
   81b1e:	60e1      	str	r1, [r4, #12]
   81b20:	f8c4 8008 	str.w	r8, [r4, #8]
   81b24:	607a      	str	r2, [r7, #4]
   81b26:	f847 4033 	str.w	r4, [r7, r3, lsl #3]
   81b2a:	f8c8 400c 	str.w	r4, [r8, #12]
   81b2e:	2401      	movs	r4, #1
   81b30:	1083      	asrs	r3, r0, #2
   81b32:	409c      	lsls	r4, r3
   81b34:	4294      	cmp	r4, r2
   81b36:	d87d      	bhi.n	81c34 <_malloc_r+0x1d0>
   81b38:	4214      	tst	r4, r2
   81b3a:	d106      	bne.n	81b4a <_malloc_r+0xe6>
   81b3c:	f020 0003 	bic.w	r0, r0, #3
   81b40:	0064      	lsls	r4, r4, #1
   81b42:	4214      	tst	r4, r2
   81b44:	f100 0004 	add.w	r0, r0, #4
   81b48:	d0fa      	beq.n	81b40 <_malloc_r+0xdc>
   81b4a:	eb07 09c0 	add.w	r9, r7, r0, lsl #3
   81b4e:	46cc      	mov	ip, r9
   81b50:	4680      	mov	r8, r0
   81b52:	f8dc 300c 	ldr.w	r3, [ip, #12]
   81b56:	459c      	cmp	ip, r3
   81b58:	d107      	bne.n	81b6a <_malloc_r+0x106>
   81b5a:	e15f      	b.n	81e1c <_malloc_r+0x3b8>
   81b5c:	2a00      	cmp	r2, #0
   81b5e:	f280 816d 	bge.w	81e3c <_malloc_r+0x3d8>
   81b62:	68db      	ldr	r3, [r3, #12]
   81b64:	459c      	cmp	ip, r3
   81b66:	f000 8159 	beq.w	81e1c <_malloc_r+0x3b8>
   81b6a:	6859      	ldr	r1, [r3, #4]
   81b6c:	f021 0103 	bic.w	r1, r1, #3
   81b70:	1b8a      	subs	r2, r1, r6
   81b72:	2a0f      	cmp	r2, #15
   81b74:	ddf2      	ble.n	81b5c <_malloc_r+0xf8>
   81b76:	68dc      	ldr	r4, [r3, #12]
   81b78:	f8d3 c008 	ldr.w	ip, [r3, #8]
   81b7c:	f046 0801 	orr.w	r8, r6, #1
   81b80:	4628      	mov	r0, r5
   81b82:	441e      	add	r6, r3
   81b84:	f042 0501 	orr.w	r5, r2, #1
   81b88:	f8c3 8004 	str.w	r8, [r3, #4]
   81b8c:	f8cc 400c 	str.w	r4, [ip, #12]
   81b90:	f8c4 c008 	str.w	ip, [r4, #8]
   81b94:	617e      	str	r6, [r7, #20]
   81b96:	613e      	str	r6, [r7, #16]
   81b98:	f8c6 e00c 	str.w	lr, [r6, #12]
   81b9c:	f8c6 e008 	str.w	lr, [r6, #8]
   81ba0:	6075      	str	r5, [r6, #4]
   81ba2:	505a      	str	r2, [r3, r1]
   81ba4:	9300      	str	r3, [sp, #0]
   81ba6:	f000 fac9 	bl	8213c <__malloc_unlock>
   81baa:	9b00      	ldr	r3, [sp, #0]
   81bac:	f103 0408 	add.w	r4, r3, #8
   81bb0:	e01e      	b.n	81bf0 <_malloc_r+0x18c>
   81bb2:	2910      	cmp	r1, #16
   81bb4:	d820      	bhi.n	81bf8 <_malloc_r+0x194>
   81bb6:	f000 fabb 	bl	82130 <__malloc_lock>
   81bba:	2610      	movs	r6, #16
   81bbc:	2318      	movs	r3, #24
   81bbe:	2002      	movs	r0, #2
   81bc0:	4f72      	ldr	r7, [pc, #456]	; (81d8c <_malloc_r+0x328>)
   81bc2:	443b      	add	r3, r7
   81bc4:	685c      	ldr	r4, [r3, #4]
   81bc6:	f1a3 0208 	sub.w	r2, r3, #8
   81bca:	4294      	cmp	r4, r2
   81bcc:	f000 812f 	beq.w	81e2e <_malloc_r+0x3ca>
   81bd0:	6863      	ldr	r3, [r4, #4]
   81bd2:	68e1      	ldr	r1, [r4, #12]
   81bd4:	f023 0303 	bic.w	r3, r3, #3
   81bd8:	4423      	add	r3, r4
   81bda:	685a      	ldr	r2, [r3, #4]
   81bdc:	68a6      	ldr	r6, [r4, #8]
   81bde:	f042 0201 	orr.w	r2, r2, #1
   81be2:	60f1      	str	r1, [r6, #12]
   81be4:	4628      	mov	r0, r5
   81be6:	608e      	str	r6, [r1, #8]
   81be8:	605a      	str	r2, [r3, #4]
   81bea:	f000 faa7 	bl	8213c <__malloc_unlock>
   81bee:	3408      	adds	r4, #8
   81bf0:	4620      	mov	r0, r4
   81bf2:	b003      	add	sp, #12
   81bf4:	e8bd 8ff0 	ldmia.w	sp!, {r4, r5, r6, r7, r8, r9, sl, fp, pc}
   81bf8:	2400      	movs	r4, #0
   81bfa:	230c      	movs	r3, #12
   81bfc:	4620      	mov	r0, r4
   81bfe:	602b      	str	r3, [r5, #0]
   81c00:	b003      	add	sp, #12
   81c02:	e8bd 8ff0 	ldmia.w	sp!, {r4, r5, r6, r7, r8, r9, sl, fp, pc}
   81c06:	2040      	movs	r0, #64	; 0x40
   81c08:	f44f 7100 	mov.w	r1, #512	; 0x200
   81c0c:	f04f 0e3f 	mov.w	lr, #63	; 0x3f
   81c10:	e74a      	b.n	81aa8 <_malloc_r+0x44>
   81c12:	4423      	add	r3, r4
   81c14:	685a      	ldr	r2, [r3, #4]
   81c16:	68e1      	ldr	r1, [r4, #12]
   81c18:	e7e0      	b.n	81bdc <_malloc_r+0x178>
   81c1a:	4423      	add	r3, r4
   81c1c:	685a      	ldr	r2, [r3, #4]
   81c1e:	4628      	mov	r0, r5
   81c20:	f042 0201 	orr.w	r2, r2, #1
   81c24:	605a      	str	r2, [r3, #4]
   81c26:	3408      	adds	r4, #8
   81c28:	f000 fa88 	bl	8213c <__malloc_unlock>
   81c2c:	4620      	mov	r0, r4
   81c2e:	b003      	add	sp, #12
   81c30:	e8bd 8ff0 	ldmia.w	sp!, {r4, r5, r6, r7, r8, r9, sl, fp, pc}
   81c34:	68bc      	ldr	r4, [r7, #8]
   81c36:	6863      	ldr	r3, [r4, #4]
   81c38:	f023 0803 	bic.w	r8, r3, #3
   81c3c:	45b0      	cmp	r8, r6
   81c3e:	d304      	bcc.n	81c4a <_malloc_r+0x1e6>
   81c40:	eba8 0306 	sub.w	r3, r8, r6
   81c44:	2b0f      	cmp	r3, #15
   81c46:	f300 8085 	bgt.w	81d54 <_malloc_r+0x2f0>
   81c4a:	f8df 9158 	ldr.w	r9, [pc, #344]	; 81da4 <_malloc_r+0x340>
   81c4e:	4b50      	ldr	r3, [pc, #320]	; (81d90 <_malloc_r+0x32c>)
   81c50:	f8d9 2000 	ldr.w	r2, [r9]
   81c54:	681b      	ldr	r3, [r3, #0]
   81c56:	3201      	adds	r2, #1
   81c58:	4433      	add	r3, r6
   81c5a:	eb04 0a08 	add.w	sl, r4, r8
   81c5e:	f000 8154 	beq.w	81f0a <_malloc_r+0x4a6>
   81c62:	f503 5380 	add.w	r3, r3, #4096	; 0x1000
   81c66:	330f      	adds	r3, #15
   81c68:	f423 6b7f 	bic.w	fp, r3, #4080	; 0xff0
   81c6c:	f02b 0b0f 	bic.w	fp, fp, #15
   81c70:	4659      	mov	r1, fp
   81c72:	4628      	mov	r0, r5
   81c74:	f000 fa68 	bl	82148 <_sbrk_r>
   81c78:	1c41      	adds	r1, r0, #1
   81c7a:	4602      	mov	r2, r0
   81c7c:	f000 80fb 	beq.w	81e76 <_malloc_r+0x412>
   81c80:	4582      	cmp	sl, r0
   81c82:	f200 80f6 	bhi.w	81e72 <_malloc_r+0x40e>
   81c86:	4b43      	ldr	r3, [pc, #268]	; (81d94 <_malloc_r+0x330>)
   81c88:	6819      	ldr	r1, [r3, #0]
   81c8a:	4459      	add	r1, fp
   81c8c:	6019      	str	r1, [r3, #0]
   81c8e:	f000 814c 	beq.w	81f2a <_malloc_r+0x4c6>
   81c92:	f8d9 0000 	ldr.w	r0, [r9]
   81c96:	3001      	adds	r0, #1
   81c98:	bf1b      	ittet	ne
   81c9a:	eba2 0a0a 	subne.w	sl, r2, sl
   81c9e:	4451      	addne	r1, sl
   81ca0:	f8c9 2000 	streq.w	r2, [r9]
   81ca4:	6019      	strne	r1, [r3, #0]
   81ca6:	f012 0107 	ands.w	r1, r2, #7
   81caa:	f000 8114 	beq.w	81ed6 <_malloc_r+0x472>
   81cae:	f1c1 0008 	rsb	r0, r1, #8
   81cb2:	f5c1 5180 	rsb	r1, r1, #4096	; 0x1000
   81cb6:	4402      	add	r2, r0
   81cb8:	3108      	adds	r1, #8
   81cba:	eb02 090b 	add.w	r9, r2, fp
   81cbe:	f3c9 090b 	ubfx	r9, r9, #0, #12
   81cc2:	eba1 0909 	sub.w	r9, r1, r9
   81cc6:	4649      	mov	r1, r9
   81cc8:	4628      	mov	r0, r5
   81cca:	9301      	str	r3, [sp, #4]
   81ccc:	9200      	str	r2, [sp, #0]
   81cce:	f000 fa3b 	bl	82148 <_sbrk_r>
   81cd2:	1c43      	adds	r3, r0, #1
   81cd4:	e89d 000c 	ldmia.w	sp, {r2, r3}
   81cd8:	f000 8142 	beq.w	81f60 <_malloc_r+0x4fc>
   81cdc:	1a80      	subs	r0, r0, r2
   81cde:	4448      	add	r0, r9
   81ce0:	f040 0001 	orr.w	r0, r0, #1
   81ce4:	6819      	ldr	r1, [r3, #0]
   81ce6:	42bc      	cmp	r4, r7
   81ce8:	4449      	add	r1, r9
   81cea:	60ba      	str	r2, [r7, #8]
   81cec:	6019      	str	r1, [r3, #0]
   81cee:	6050      	str	r0, [r2, #4]
   81cf0:	d017      	beq.n	81d22 <_malloc_r+0x2be>
   81cf2:	f1b8 0f0f 	cmp.w	r8, #15
   81cf6:	f240 80fa 	bls.w	81eee <_malloc_r+0x48a>
   81cfa:	f04f 0c05 	mov.w	ip, #5
   81cfe:	6862      	ldr	r2, [r4, #4]
   81d00:	f1a8 000c 	sub.w	r0, r8, #12
   81d04:	f020 0007 	bic.w	r0, r0, #7
   81d08:	f002 0201 	and.w	r2, r2, #1
   81d0c:	eb04 0e00 	add.w	lr, r4, r0
   81d10:	4302      	orrs	r2, r0
   81d12:	280f      	cmp	r0, #15
   81d14:	6062      	str	r2, [r4, #4]
   81d16:	f8ce c004 	str.w	ip, [lr, #4]
   81d1a:	f8ce c008 	str.w	ip, [lr, #8]
   81d1e:	f200 8116 	bhi.w	81f4e <_malloc_r+0x4ea>
   81d22:	4b1d      	ldr	r3, [pc, #116]	; (81d98 <_malloc_r+0x334>)
   81d24:	68bc      	ldr	r4, [r7, #8]
   81d26:	681a      	ldr	r2, [r3, #0]
   81d28:	4291      	cmp	r1, r2
   81d2a:	bf88      	it	hi
   81d2c:	6019      	strhi	r1, [r3, #0]
   81d2e:	4b1b      	ldr	r3, [pc, #108]	; (81d9c <_malloc_r+0x338>)
   81d30:	681a      	ldr	r2, [r3, #0]
   81d32:	4291      	cmp	r1, r2
   81d34:	6862      	ldr	r2, [r4, #4]
   81d36:	bf88      	it	hi
   81d38:	6019      	strhi	r1, [r3, #0]
   81d3a:	f022 0203 	bic.w	r2, r2, #3
   81d3e:	4296      	cmp	r6, r2
   81d40:	eba2 0306 	sub.w	r3, r2, r6
   81d44:	d801      	bhi.n	81d4a <_malloc_r+0x2e6>
   81d46:	2b0f      	cmp	r3, #15
   81d48:	dc04      	bgt.n	81d54 <_malloc_r+0x2f0>
   81d4a:	4628      	mov	r0, r5
   81d4c:	f000 f9f6 	bl	8213c <__malloc_unlock>
   81d50:	2400      	movs	r4, #0
   81d52:	e74d      	b.n	81bf0 <_malloc_r+0x18c>
   81d54:	f046 0201 	orr.w	r2, r6, #1
   81d58:	f043 0301 	orr.w	r3, r3, #1
   81d5c:	4426      	add	r6, r4
   81d5e:	6062      	str	r2, [r4, #4]
   81d60:	4628      	mov	r0, r5
   81d62:	60be      	str	r6, [r7, #8]
   81d64:	3408      	adds	r4, #8
   81d66:	6073      	str	r3, [r6, #4]
   81d68:	f000 f9e8 	bl	8213c <__malloc_unlock>
   81d6c:	4620      	mov	r0, r4
   81d6e:	b003      	add	sp, #12
   81d70:	e8bd 8ff0 	ldmia.w	sp!, {r4, r5, r6, r7, r8, r9, sl, fp, pc}
   81d74:	2b14      	cmp	r3, #20
   81d76:	d970      	bls.n	81e5a <_malloc_r+0x3f6>
   81d78:	2b54      	cmp	r3, #84	; 0x54
   81d7a:	f200 80a2 	bhi.w	81ec2 <_malloc_r+0x45e>
   81d7e:	0b33      	lsrs	r3, r6, #12
   81d80:	f103 006f 	add.w	r0, r3, #111	; 0x6f
   81d84:	f103 0e6e 	add.w	lr, r3, #110	; 0x6e
   81d88:	00c1      	lsls	r1, r0, #3
   81d8a:	e68d      	b.n	81aa8 <_malloc_r+0x44>
   81d8c:	20070920 	.word	0x20070920
   81d90:	2007106c 	.word	0x2007106c
   81d94:	2007103c 	.word	0x2007103c
   81d98:	20071064 	.word	0x20071064
   81d9c:	20071068 	.word	0x20071068
   81da0:	20070928 	.word	0x20070928
   81da4:	20070d28 	.word	0x20070d28
   81da8:	0a5a      	lsrs	r2, r3, #9
   81daa:	2a04      	cmp	r2, #4
   81dac:	d95b      	bls.n	81e66 <_malloc_r+0x402>
   81dae:	2a14      	cmp	r2, #20
   81db0:	f200 80ae 	bhi.w	81f10 <_malloc_r+0x4ac>
   81db4:	f102 015c 	add.w	r1, r2, #92	; 0x5c
   81db8:	00c9      	lsls	r1, r1, #3
   81dba:	325b      	adds	r2, #91	; 0x5b
   81dbc:	eb07 0c01 	add.w	ip, r7, r1
   81dc0:	5879      	ldr	r1, [r7, r1]
   81dc2:	f1ac 0c08 	sub.w	ip, ip, #8
   81dc6:	458c      	cmp	ip, r1
   81dc8:	f000 8088 	beq.w	81edc <_malloc_r+0x478>
   81dcc:	684a      	ldr	r2, [r1, #4]
   81dce:	f022 0203 	bic.w	r2, r2, #3
   81dd2:	4293      	cmp	r3, r2
   81dd4:	d273      	bcs.n	81ebe <_malloc_r+0x45a>
   81dd6:	6889      	ldr	r1, [r1, #8]
   81dd8:	458c      	cmp	ip, r1
   81dda:	d1f7      	bne.n	81dcc <_malloc_r+0x368>
   81ddc:	f8dc 300c 	ldr.w	r3, [ip, #12]
   81de0:	687a      	ldr	r2, [r7, #4]
   81de2:	60e3      	str	r3, [r4, #12]
   81de4:	f8c4 c008 	str.w	ip, [r4, #8]
   81de8:	609c      	str	r4, [r3, #8]
   81dea:	f8cc 400c 	str.w	r4, [ip, #12]
   81dee:	e69e      	b.n	81b2e <_malloc_r+0xca>
   81df0:	f046 0c01 	orr.w	ip, r6, #1
   81df4:	f042 0101 	orr.w	r1, r2, #1
   81df8:	4426      	add	r6, r4
   81dfa:	f8c4 c004 	str.w	ip, [r4, #4]
   81dfe:	4628      	mov	r0, r5
   81e00:	617e      	str	r6, [r7, #20]
   81e02:	613e      	str	r6, [r7, #16]
   81e04:	f8c6 e00c 	str.w	lr, [r6, #12]
   81e08:	f8c6 e008 	str.w	lr, [r6, #8]
   81e0c:	6071      	str	r1, [r6, #4]
   81e0e:	50e2      	str	r2, [r4, r3]
   81e10:	f000 f994 	bl	8213c <__malloc_unlock>
   81e14:	3408      	adds	r4, #8
   81e16:	e6eb      	b.n	81bf0 <_malloc_r+0x18c>
   81e18:	687a      	ldr	r2, [r7, #4]
   81e1a:	e688      	b.n	81b2e <_malloc_r+0xca>
   81e1c:	f108 0801 	add.w	r8, r8, #1
   81e20:	f018 0f03 	tst.w	r8, #3
   81e24:	f10c 0c08 	add.w	ip, ip, #8
   81e28:	f47f ae93 	bne.w	81b52 <_malloc_r+0xee>
   81e2c:	e02d      	b.n	81e8a <_malloc_r+0x426>
   81e2e:	68dc      	ldr	r4, [r3, #12]
   81e30:	42a3      	cmp	r3, r4
   81e32:	bf08      	it	eq
   81e34:	3002      	addeq	r0, #2
   81e36:	f43f ae4b 	beq.w	81ad0 <_malloc_r+0x6c>
   81e3a:	e6c9      	b.n	81bd0 <_malloc_r+0x16c>
   81e3c:	461c      	mov	r4, r3
   81e3e:	4419      	add	r1, r3
   81e40:	684a      	ldr	r2, [r1, #4]
   81e42:	68db      	ldr	r3, [r3, #12]
   81e44:	f854 6f08 	ldr.w	r6, [r4, #8]!
   81e48:	f042 0201 	orr.w	r2, r2, #1
   81e4c:	604a      	str	r2, [r1, #4]
   81e4e:	4628      	mov	r0, r5
   81e50:	60f3      	str	r3, [r6, #12]
   81e52:	609e      	str	r6, [r3, #8]
   81e54:	f000 f972 	bl	8213c <__malloc_unlock>
   81e58:	e6ca      	b.n	81bf0 <_malloc_r+0x18c>
   81e5a:	f103 005c 	add.w	r0, r3, #92	; 0x5c
   81e5e:	f103 0e5b 	add.w	lr, r3, #91	; 0x5b
   81e62:	00c1      	lsls	r1, r0, #3
   81e64:	e620      	b.n	81aa8 <_malloc_r+0x44>
   81e66:	099a      	lsrs	r2, r3, #6
   81e68:	f102 0139 	add.w	r1, r2, #57	; 0x39
   81e6c:	00c9      	lsls	r1, r1, #3
   81e6e:	3238      	adds	r2, #56	; 0x38
   81e70:	e7a4      	b.n	81dbc <_malloc_r+0x358>
   81e72:	42bc      	cmp	r4, r7
   81e74:	d054      	beq.n	81f20 <_malloc_r+0x4bc>
   81e76:	68bc      	ldr	r4, [r7, #8]
   81e78:	6862      	ldr	r2, [r4, #4]
   81e7a:	f022 0203 	bic.w	r2, r2, #3
   81e7e:	e75e      	b.n	81d3e <_malloc_r+0x2da>
   81e80:	f859 3908 	ldr.w	r3, [r9], #-8
   81e84:	4599      	cmp	r9, r3
   81e86:	f040 8086 	bne.w	81f96 <_malloc_r+0x532>
   81e8a:	f010 0f03 	tst.w	r0, #3
   81e8e:	f100 30ff 	add.w	r0, r0, #4294967295
   81e92:	d1f5      	bne.n	81e80 <_malloc_r+0x41c>
   81e94:	687b      	ldr	r3, [r7, #4]
   81e96:	ea23 0304 	bic.w	r3, r3, r4
   81e9a:	607b      	str	r3, [r7, #4]
   81e9c:	0064      	lsls	r4, r4, #1
   81e9e:	429c      	cmp	r4, r3
   81ea0:	f63f aec8 	bhi.w	81c34 <_malloc_r+0x1d0>
   81ea4:	2c00      	cmp	r4, #0
   81ea6:	f43f aec5 	beq.w	81c34 <_malloc_r+0x1d0>
   81eaa:	421c      	tst	r4, r3
   81eac:	4640      	mov	r0, r8
   81eae:	f47f ae4c 	bne.w	81b4a <_malloc_r+0xe6>
   81eb2:	0064      	lsls	r4, r4, #1
   81eb4:	421c      	tst	r4, r3
   81eb6:	f100 0004 	add.w	r0, r0, #4
   81eba:	d0fa      	beq.n	81eb2 <_malloc_r+0x44e>
   81ebc:	e645      	b.n	81b4a <_malloc_r+0xe6>
   81ebe:	468c      	mov	ip, r1
   81ec0:	e78c      	b.n	81ddc <_malloc_r+0x378>
   81ec2:	f5b3 7faa 	cmp.w	r3, #340	; 0x154
   81ec6:	d815      	bhi.n	81ef4 <_malloc_r+0x490>
   81ec8:	0bf3      	lsrs	r3, r6, #15
   81eca:	f103 0078 	add.w	r0, r3, #120	; 0x78
   81ece:	f103 0e77 	add.w	lr, r3, #119	; 0x77
   81ed2:	00c1      	lsls	r1, r0, #3
   81ed4:	e5e8      	b.n	81aa8 <_malloc_r+0x44>
   81ed6:	f44f 5180 	mov.w	r1, #4096	; 0x1000
   81eda:	e6ee      	b.n	81cba <_malloc_r+0x256>
   81edc:	2101      	movs	r1, #1
   81ede:	687b      	ldr	r3, [r7, #4]
   81ee0:	1092      	asrs	r2, r2, #2
   81ee2:	fa01 f202 	lsl.w	r2, r1, r2
   81ee6:	431a      	orrs	r2, r3
   81ee8:	607a      	str	r2, [r7, #4]
   81eea:	4663      	mov	r3, ip
   81eec:	e779      	b.n	81de2 <_malloc_r+0x37e>
   81eee:	2301      	movs	r3, #1
   81ef0:	6053      	str	r3, [r2, #4]
   81ef2:	e72a      	b.n	81d4a <_malloc_r+0x2e6>
   81ef4:	f240 5254 	movw	r2, #1364	; 0x554
   81ef8:	4293      	cmp	r3, r2
   81efa:	d822      	bhi.n	81f42 <_malloc_r+0x4de>
   81efc:	0cb3      	lsrs	r3, r6, #18
   81efe:	f103 007d 	add.w	r0, r3, #125	; 0x7d
   81f02:	f103 0e7c 	add.w	lr, r3, #124	; 0x7c
   81f06:	00c1      	lsls	r1, r0, #3
   81f08:	e5ce      	b.n	81aa8 <_malloc_r+0x44>
   81f0a:	f103 0b10 	add.w	fp, r3, #16
   81f0e:	e6af      	b.n	81c70 <_malloc_r+0x20c>
   81f10:	2a54      	cmp	r2, #84	; 0x54
   81f12:	d829      	bhi.n	81f68 <_malloc_r+0x504>
   81f14:	0b1a      	lsrs	r2, r3, #12
   81f16:	f102 016f 	add.w	r1, r2, #111	; 0x6f
   81f1a:	00c9      	lsls	r1, r1, #3
   81f1c:	326e      	adds	r2, #110	; 0x6e
   81f1e:	e74d      	b.n	81dbc <_malloc_r+0x358>
   81f20:	4b20      	ldr	r3, [pc, #128]	; (81fa4 <_malloc_r+0x540>)
   81f22:	6819      	ldr	r1, [r3, #0]
   81f24:	4459      	add	r1, fp
   81f26:	6019      	str	r1, [r3, #0]
   81f28:	e6b3      	b.n	81c92 <_malloc_r+0x22e>
   81f2a:	f3ca 000b 	ubfx	r0, sl, #0, #12
   81f2e:	2800      	cmp	r0, #0
   81f30:	f47f aeaf 	bne.w	81c92 <_malloc_r+0x22e>
   81f34:	eb08 030b 	add.w	r3, r8, fp
   81f38:	68ba      	ldr	r2, [r7, #8]
   81f3a:	f043 0301 	orr.w	r3, r3, #1
   81f3e:	6053      	str	r3, [r2, #4]
   81f40:	e6ef      	b.n	81d22 <_malloc_r+0x2be>
   81f42:	207f      	movs	r0, #127	; 0x7f
   81f44:	f44f 717e 	mov.w	r1, #1016	; 0x3f8
   81f48:	f04f 0e7e 	mov.w	lr, #126	; 0x7e
   81f4c:	e5ac      	b.n	81aa8 <_malloc_r+0x44>
   81f4e:	f104 0108 	add.w	r1, r4, #8
   81f52:	4628      	mov	r0, r5
   81f54:	9300      	str	r3, [sp, #0]
   81f56:	f002 fc0f 	bl	84778 <_free_r>
   81f5a:	9b00      	ldr	r3, [sp, #0]
   81f5c:	6819      	ldr	r1, [r3, #0]
   81f5e:	e6e0      	b.n	81d22 <_malloc_r+0x2be>
   81f60:	2001      	movs	r0, #1
   81f62:	f04f 0900 	mov.w	r9, #0
   81f66:	e6bd      	b.n	81ce4 <_malloc_r+0x280>
   81f68:	f5b2 7faa 	cmp.w	r2, #340	; 0x154
   81f6c:	d805      	bhi.n	81f7a <_malloc_r+0x516>
   81f6e:	0bda      	lsrs	r2, r3, #15
   81f70:	f102 0178 	add.w	r1, r2, #120	; 0x78
   81f74:	00c9      	lsls	r1, r1, #3
   81f76:	3277      	adds	r2, #119	; 0x77
   81f78:	e720      	b.n	81dbc <_malloc_r+0x358>
   81f7a:	f240 5154 	movw	r1, #1364	; 0x554
   81f7e:	428a      	cmp	r2, r1
   81f80:	d805      	bhi.n	81f8e <_malloc_r+0x52a>
   81f82:	0c9a      	lsrs	r2, r3, #18
   81f84:	f102 017d 	add.w	r1, r2, #125	; 0x7d
   81f88:	00c9      	lsls	r1, r1, #3
   81f8a:	327c      	adds	r2, #124	; 0x7c
   81f8c:	e716      	b.n	81dbc <_malloc_r+0x358>
   81f8e:	f44f 717e 	mov.w	r1, #1016	; 0x3f8
   81f92:	227e      	movs	r2, #126	; 0x7e
   81f94:	e712      	b.n	81dbc <_malloc_r+0x358>
   81f96:	687b      	ldr	r3, [r7, #4]
   81f98:	e780      	b.n	81e9c <_malloc_r+0x438>
   81f9a:	08f0      	lsrs	r0, r6, #3
   81f9c:	f106 0308 	add.w	r3, r6, #8
   81fa0:	e60e      	b.n	81bc0 <_malloc_r+0x15c>
   81fa2:	bf00      	nop
   81fa4:	2007103c 	.word	0x2007103c

00081fa8 <memcpy>:
   81fa8:	4684      	mov	ip, r0
   81faa:	ea41 0300 	orr.w	r3, r1, r0
   81fae:	f013 0303 	ands.w	r3, r3, #3
   81fb2:	d149      	bne.n	82048 <memcpy+0xa0>
   81fb4:	3a40      	subs	r2, #64	; 0x40
   81fb6:	d323      	bcc.n	82000 <memcpy+0x58>
   81fb8:	680b      	ldr	r3, [r1, #0]
   81fba:	6003      	str	r3, [r0, #0]
   81fbc:	684b      	ldr	r3, [r1, #4]
   81fbe:	6043      	str	r3, [r0, #4]
   81fc0:	688b      	ldr	r3, [r1, #8]
   81fc2:	6083      	str	r3, [r0, #8]
   81fc4:	68cb      	ldr	r3, [r1, #12]
   81fc6:	60c3      	str	r3, [r0, #12]
   81fc8:	690b      	ldr	r3, [r1, #16]
   81fca:	6103      	str	r3, [r0, #16]
   81fcc:	694b      	ldr	r3, [r1, #20]
   81fce:	6143      	str	r3, [r0, #20]
   81fd0:	698b      	ldr	r3, [r1, #24]
   81fd2:	6183      	str	r3, [r0, #24]
   81fd4:	69cb      	ldr	r3, [r1, #28]
   81fd6:	61c3      	str	r3, [r0, #28]
   81fd8:	6a0b      	ldr	r3, [r1, #32]
   81fda:	6203      	str	r3, [r0, #32]
   81fdc:	6a4b      	ldr	r3, [r1, #36]	; 0x24
   81fde:	6243      	str	r3, [r0, #36]	; 0x24
   81fe0:	6a8b      	ldr	r3, [r1, #40]	; 0x28
   81fe2:	6283      	str	r3, [r0, #40]	; 0x28
   81fe4:	6acb      	ldr	r3, [r1, #44]	; 0x2c
   81fe6:	62c3      	str	r3, [r0, #44]	; 0x2c
   81fe8:	6b0b      	ldr	r3, [r1, #48]	; 0x30
   81fea:	6303      	str	r3, [r0, #48]	; 0x30
   81fec:	6b4b      	ldr	r3, [r1, #52]	; 0x34
   81fee:	6343      	str	r3, [r0, #52]	; 0x34
   81ff0:	6b8b      	ldr	r3, [r1, #56]	; 0x38
   81ff2:	6383      	str	r3, [r0, #56]	; 0x38
   81ff4:	6bcb      	ldr	r3, [r1, #60]	; 0x3c
   81ff6:	63c3      	str	r3, [r0, #60]	; 0x3c
   81ff8:	3040      	adds	r0, #64	; 0x40
   81ffa:	3140      	adds	r1, #64	; 0x40
   81ffc:	3a40      	subs	r2, #64	; 0x40
   81ffe:	d2db      	bcs.n	81fb8 <memcpy+0x10>
   82000:	3230      	adds	r2, #48	; 0x30
   82002:	d30b      	bcc.n	8201c <memcpy+0x74>
   82004:	680b      	ldr	r3, [r1, #0]
   82006:	6003      	str	r3, [r0, #0]
   82008:	684b      	ldr	r3, [r1, #4]
   8200a:	6043      	str	r3, [r0, #4]
   8200c:	688b      	ldr	r3, [r1, #8]
   8200e:	6083      	str	r3, [r0, #8]
   82010:	68cb      	ldr	r3, [r1, #12]
   82012:	60c3      	str	r3, [r0, #12]
   82014:	3010      	adds	r0, #16
   82016:	3110      	adds	r1, #16
   82018:	3a10      	subs	r2, #16
   8201a:	d2f3      	bcs.n	82004 <memcpy+0x5c>
   8201c:	320c      	adds	r2, #12
   8201e:	d305      	bcc.n	8202c <memcpy+0x84>
   82020:	f851 3b04 	ldr.w	r3, [r1], #4
   82024:	f840 3b04 	str.w	r3, [r0], #4
   82028:	3a04      	subs	r2, #4
   8202a:	d2f9      	bcs.n	82020 <memcpy+0x78>
   8202c:	3204      	adds	r2, #4
   8202e:	d008      	beq.n	82042 <memcpy+0x9a>
   82030:	07d2      	lsls	r2, r2, #31
   82032:	bf1c      	itt	ne
   82034:	f811 3b01 	ldrbne.w	r3, [r1], #1
   82038:	f800 3b01 	strbne.w	r3, [r0], #1
   8203c:	d301      	bcc.n	82042 <memcpy+0x9a>
   8203e:	880b      	ldrh	r3, [r1, #0]
   82040:	8003      	strh	r3, [r0, #0]
   82042:	4660      	mov	r0, ip
   82044:	4770      	bx	lr
   82046:	bf00      	nop
   82048:	2a08      	cmp	r2, #8
   8204a:	d313      	bcc.n	82074 <memcpy+0xcc>
   8204c:	078b      	lsls	r3, r1, #30
   8204e:	d0b1      	beq.n	81fb4 <memcpy+0xc>
   82050:	f010 0303 	ands.w	r3, r0, #3
   82054:	d0ae      	beq.n	81fb4 <memcpy+0xc>
   82056:	f1c3 0304 	rsb	r3, r3, #4
   8205a:	1ad2      	subs	r2, r2, r3
   8205c:	07db      	lsls	r3, r3, #31
   8205e:	bf1c      	itt	ne
   82060:	f811 3b01 	ldrbne.w	r3, [r1], #1
   82064:	f800 3b01 	strbne.w	r3, [r0], #1
   82068:	d3a4      	bcc.n	81fb4 <memcpy+0xc>
   8206a:	f831 3b02 	ldrh.w	r3, [r1], #2
   8206e:	f820 3b02 	strh.w	r3, [r0], #2
   82072:	e79f      	b.n	81fb4 <memcpy+0xc>
   82074:	3a04      	subs	r2, #4
   82076:	d3d9      	bcc.n	8202c <memcpy+0x84>
   82078:	3a01      	subs	r2, #1
   8207a:	f811 3b01 	ldrb.w	r3, [r1], #1
   8207e:	f800 3b01 	strb.w	r3, [r0], #1
   82082:	d2f9      	bcs.n	82078 <memcpy+0xd0>
   82084:	780b      	ldrb	r3, [r1, #0]
   82086:	7003      	strb	r3, [r0, #0]
   82088:	784b      	ldrb	r3, [r1, #1]
   8208a:	7043      	strb	r3, [r0, #1]
   8208c:	788b      	ldrb	r3, [r1, #2]
   8208e:	7083      	strb	r3, [r0, #2]
   82090:	4660      	mov	r0, ip
   82092:	4770      	bx	lr

00082094 <memset>:
   82094:	b470      	push	{r4, r5, r6}
   82096:	0786      	lsls	r6, r0, #30
   82098:	d046      	beq.n	82128 <memset+0x94>
   8209a:	1e54      	subs	r4, r2, #1
   8209c:	2a00      	cmp	r2, #0
   8209e:	d041      	beq.n	82124 <memset+0x90>
   820a0:	b2ca      	uxtb	r2, r1
   820a2:	4603      	mov	r3, r0
   820a4:	e002      	b.n	820ac <memset+0x18>
   820a6:	f114 34ff 	adds.w	r4, r4, #4294967295
   820aa:	d33b      	bcc.n	82124 <memset+0x90>
   820ac:	f803 2b01 	strb.w	r2, [r3], #1
   820b0:	079d      	lsls	r5, r3, #30
   820b2:	d1f8      	bne.n	820a6 <memset+0x12>
   820b4:	2c03      	cmp	r4, #3
   820b6:	d92e      	bls.n	82116 <memset+0x82>
   820b8:	b2cd      	uxtb	r5, r1
   820ba:	ea45 2505 	orr.w	r5, r5, r5, lsl #8
   820be:	2c0f      	cmp	r4, #15
   820c0:	ea45 4505 	orr.w	r5, r5, r5, lsl #16
   820c4:	d919      	bls.n	820fa <memset+0x66>
   820c6:	4626      	mov	r6, r4
   820c8:	f103 0210 	add.w	r2, r3, #16
   820cc:	3e10      	subs	r6, #16
   820ce:	2e0f      	cmp	r6, #15
   820d0:	f842 5c10 	str.w	r5, [r2, #-16]
   820d4:	f842 5c0c 	str.w	r5, [r2, #-12]
   820d8:	f842 5c08 	str.w	r5, [r2, #-8]
   820dc:	f842 5c04 	str.w	r5, [r2, #-4]
   820e0:	f102 0210 	add.w	r2, r2, #16
   820e4:	d8f2      	bhi.n	820cc <memset+0x38>
   820e6:	f1a4 0210 	sub.w	r2, r4, #16
   820ea:	f022 020f 	bic.w	r2, r2, #15
   820ee:	f004 040f 	and.w	r4, r4, #15
   820f2:	3210      	adds	r2, #16
   820f4:	2c03      	cmp	r4, #3
   820f6:	4413      	add	r3, r2
   820f8:	d90d      	bls.n	82116 <memset+0x82>
   820fa:	461e      	mov	r6, r3
   820fc:	4622      	mov	r2, r4
   820fe:	3a04      	subs	r2, #4
   82100:	2a03      	cmp	r2, #3
   82102:	f846 5b04 	str.w	r5, [r6], #4
   82106:	d8fa      	bhi.n	820fe <memset+0x6a>
   82108:	1f22      	subs	r2, r4, #4
   8210a:	f022 0203 	bic.w	r2, r2, #3
   8210e:	3204      	adds	r2, #4
   82110:	4413      	add	r3, r2
   82112:	f004 0403 	and.w	r4, r4, #3
   82116:	b12c      	cbz	r4, 82124 <memset+0x90>
   82118:	b2c9      	uxtb	r1, r1
   8211a:	441c      	add	r4, r3
   8211c:	f803 1b01 	strb.w	r1, [r3], #1
   82120:	429c      	cmp	r4, r3
   82122:	d1fb      	bne.n	8211c <memset+0x88>
   82124:	bc70      	pop	{r4, r5, r6}
   82126:	4770      	bx	lr
   82128:	4614      	mov	r4, r2
   8212a:	4603      	mov	r3, r0
   8212c:	e7c2      	b.n	820b4 <memset+0x20>
   8212e:	bf00      	nop

00082130 <__malloc_lock>:
   82130:	4801      	ldr	r0, [pc, #4]	; (82138 <__malloc_lock+0x8>)
   82132:	f002 bc15 	b.w	84960 <__retarget_lock_acquire_recursive>
   82136:	bf00      	nop
   82138:	20071110 	.word	0x20071110

0008213c <__malloc_unlock>:
   8213c:	4801      	ldr	r0, [pc, #4]	; (82144 <__malloc_unlock+0x8>)
   8213e:	f002 bc11 	b.w	84964 <__retarget_lock_release_recursive>
   82142:	bf00      	nop
   82144:	20071110 	.word	0x20071110

00082148 <_sbrk_r>:
   82148:	b538      	push	{r3, r4, r5, lr}
   8214a:	2300      	movs	r3, #0
   8214c:	4c06      	ldr	r4, [pc, #24]	; (82168 <_sbrk_r+0x20>)
   8214e:	4605      	mov	r5, r0
   82150:	4608      	mov	r0, r1
   82152:	6023      	str	r3, [r4, #0]
   82154:	f7ff fabe 	bl	816d4 <_sbrk>
   82158:	1c43      	adds	r3, r0, #1
   8215a:	d000      	beq.n	8215e <_sbrk_r+0x16>
   8215c:	bd38      	pop	{r3, r4, r5, pc}
   8215e:	6823      	ldr	r3, [r4, #0]
   82160:	2b00      	cmp	r3, #0
   82162:	d0fb      	beq.n	8215c <_sbrk_r+0x14>
   82164:	602b      	str	r3, [r5, #0]
   82166:	bd38      	pop	{r3, r4, r5, pc}
   82168:	20071124 	.word	0x20071124

0008216c <sprintf>:
   8216c:	b40e      	push	{r1, r2, r3}
   8216e:	4601      	mov	r1, r0
   82170:	b5f0      	push	{r4, r5, r6, r7, lr}
   82172:	f06f 4500 	mvn.w	r5, #2147483648	; 0x80000000
   82176:	f44f 7702 	mov.w	r7, #520	; 0x208
   8217a:	f64f 76ff 	movw	r6, #65535	; 0xffff
   8217e:	b09c      	sub	sp, #112	; 0x70
   82180:	ac21      	add	r4, sp, #132	; 0x84
   82182:	f854 2b04 	ldr.w	r2, [r4], #4
   82186:	4b0b      	ldr	r3, [pc, #44]	; (821b4 <sprintf+0x48>)
   82188:	9102      	str	r1, [sp, #8]
   8218a:	9106      	str	r1, [sp, #24]
   8218c:	6818      	ldr	r0, [r3, #0]
   8218e:	a902      	add	r1, sp, #8
   82190:	4623      	mov	r3, r4
   82192:	9401      	str	r4, [sp, #4]
   82194:	f8ad 7014 	strh.w	r7, [sp, #20]
   82198:	9504      	str	r5, [sp, #16]
   8219a:	9507      	str	r5, [sp, #28]
   8219c:	f8ad 6016 	strh.w	r6, [sp, #22]
   821a0:	f000 f838 	bl	82214 <_svfprintf_r>
   821a4:	2200      	movs	r2, #0
   821a6:	9b02      	ldr	r3, [sp, #8]
   821a8:	701a      	strb	r2, [r3, #0]
   821aa:	b01c      	add	sp, #112	; 0x70
   821ac:	e8bd 40f0 	ldmia.w	sp!, {r4, r5, r6, r7, lr}
   821b0:	b003      	add	sp, #12
   821b2:	4770      	bx	lr
   821b4:	200704f4 	.word	0x200704f4

000821b8 <strlen>:
   821b8:	f020 0103 	bic.w	r1, r0, #3
   821bc:	f010 0003 	ands.w	r0, r0, #3
   821c0:	f1c0 0000 	rsb	r0, r0, #0
   821c4:	f851 3b04 	ldr.w	r3, [r1], #4
   821c8:	f100 0c04 	add.w	ip, r0, #4
   821cc:	ea4f 0ccc 	mov.w	ip, ip, lsl #3
   821d0:	f06f 0200 	mvn.w	r2, #0
   821d4:	bf1c      	itt	ne
   821d6:	fa22 f20c 	lsrne.w	r2, r2, ip
   821da:	4313      	orrne	r3, r2
   821dc:	f04f 0c01 	mov.w	ip, #1
   821e0:	ea4c 2c0c 	orr.w	ip, ip, ip, lsl #8
   821e4:	ea4c 4c0c 	orr.w	ip, ip, ip, lsl #16
   821e8:	eba3 020c 	sub.w	r2, r3, ip
   821ec:	ea22 0203 	bic.w	r2, r2, r3
   821f0:	ea12 12cc 	ands.w	r2, r2, ip, lsl #7
   821f4:	bf04      	itt	eq
   821f6:	f851 3b04 	ldreq.w	r3, [r1], #4
   821fa:	3004      	addeq	r0, #4
   821fc:	d0f4      	beq.n	821e8 <strlen+0x30>
   821fe:	f1c2 0100 	rsb	r1, r2, #0
   82202:	ea02 0201 	and.w	r2, r2, r1
   82206:	fab2 f282 	clz	r2, r2
   8220a:	f1c2 021f 	rsb	r2, r2, #31
   8220e:	eb00 00d2 	add.w	r0, r0, r2, lsr #3
   82212:	4770      	bx	lr

00082214 <_svfprintf_r>:
   82214:	e92d 4ff0 	stmdb	sp!, {r4, r5, r6, r7, r8, r9, sl, fp, lr}
   82218:	b0c3      	sub	sp, #268	; 0x10c
   8221a:	460c      	mov	r4, r1
   8221c:	910b      	str	r1, [sp, #44]	; 0x2c
   8221e:	4692      	mov	sl, r2
   82220:	930f      	str	r3, [sp, #60]	; 0x3c
   82222:	900c      	str	r0, [sp, #48]	; 0x30
   82224:	f002 fb8e 	bl	84944 <_localeconv_r>
   82228:	6803      	ldr	r3, [r0, #0]
   8222a:	4618      	mov	r0, r3
   8222c:	931a      	str	r3, [sp, #104]	; 0x68
   8222e:	f7ff ffc3 	bl	821b8 <strlen>
   82232:	89a3      	ldrh	r3, [r4, #12]
   82234:	9019      	str	r0, [sp, #100]	; 0x64
   82236:	0619      	lsls	r1, r3, #24
   82238:	d503      	bpl.n	82242 <_svfprintf_r+0x2e>
   8223a:	6923      	ldr	r3, [r4, #16]
   8223c:	2b00      	cmp	r3, #0
   8223e:	f001 8035 	beq.w	832ac <_svfprintf_r+0x1098>
   82242:	2300      	movs	r3, #0
   82244:	f10d 09c8 	add.w	r9, sp, #200	; 0xc8
   82248:	46c8      	mov	r8, r9
   8224a:	9315      	str	r3, [sp, #84]	; 0x54
   8224c:	9313      	str	r3, [sp, #76]	; 0x4c
   8224e:	9314      	str	r3, [sp, #80]	; 0x50
   82250:	9318      	str	r3, [sp, #96]	; 0x60
   82252:	931b      	str	r3, [sp, #108]	; 0x6c
   82254:	9309      	str	r3, [sp, #36]	; 0x24
   82256:	9316      	str	r3, [sp, #88]	; 0x58
   82258:	9317      	str	r3, [sp, #92]	; 0x5c
   8225a:	9327      	str	r3, [sp, #156]	; 0x9c
   8225c:	9326      	str	r3, [sp, #152]	; 0x98
   8225e:	f8cd 9094 	str.w	r9, [sp, #148]	; 0x94
   82262:	f89a 3000 	ldrb.w	r3, [sl]
   82266:	4654      	mov	r4, sl
   82268:	b1eb      	cbz	r3, 822a6 <_svfprintf_r+0x92>
   8226a:	2b25      	cmp	r3, #37	; 0x25
   8226c:	d102      	bne.n	82274 <_svfprintf_r+0x60>
   8226e:	e01a      	b.n	822a6 <_svfprintf_r+0x92>
   82270:	2b25      	cmp	r3, #37	; 0x25
   82272:	d003      	beq.n	8227c <_svfprintf_r+0x68>
   82274:	f814 3f01 	ldrb.w	r3, [r4, #1]!
   82278:	2b00      	cmp	r3, #0
   8227a:	d1f9      	bne.n	82270 <_svfprintf_r+0x5c>
   8227c:	eba4 050a 	sub.w	r5, r4, sl
   82280:	b18d      	cbz	r5, 822a6 <_svfprintf_r+0x92>
   82282:	9b26      	ldr	r3, [sp, #152]	; 0x98
   82284:	9a27      	ldr	r2, [sp, #156]	; 0x9c
   82286:	3301      	adds	r3, #1
   82288:	442a      	add	r2, r5
   8228a:	2b07      	cmp	r3, #7
   8228c:	f8c8 a000 	str.w	sl, [r8]
   82290:	f8c8 5004 	str.w	r5, [r8, #4]
   82294:	9227      	str	r2, [sp, #156]	; 0x9c
   82296:	9326      	str	r3, [sp, #152]	; 0x98
   82298:	f300 808a 	bgt.w	823b0 <_svfprintf_r+0x19c>
   8229c:	f108 0808 	add.w	r8, r8, #8
   822a0:	9b09      	ldr	r3, [sp, #36]	; 0x24
   822a2:	442b      	add	r3, r5
   822a4:	9309      	str	r3, [sp, #36]	; 0x24
   822a6:	7823      	ldrb	r3, [r4, #0]
   822a8:	2b00      	cmp	r3, #0
   822aa:	f000 8089 	beq.w	823c0 <_svfprintf_r+0x1ac>
   822ae:	2300      	movs	r3, #0
   822b0:	f04f 30ff 	mov.w	r0, #4294967295
   822b4:	461a      	mov	r2, r3
   822b6:	f88d 3077 	strb.w	r3, [sp, #119]	; 0x77
   822ba:	4619      	mov	r1, r3
   822bc:	930d      	str	r3, [sp, #52]	; 0x34
   822be:	469b      	mov	fp, r3
   822c0:	7863      	ldrb	r3, [r4, #1]
   822c2:	f104 0a01 	add.w	sl, r4, #1
   822c6:	900a      	str	r0, [sp, #40]	; 0x28
   822c8:	f10a 0a01 	add.w	sl, sl, #1
   822cc:	f1a3 0020 	sub.w	r0, r3, #32
   822d0:	2858      	cmp	r0, #88	; 0x58
   822d2:	f200 83b7 	bhi.w	82a44 <_svfprintf_r+0x830>
   822d6:	e8df f010 	tbh	[pc, r0, lsl #1]
   822da:	034c      	.short	0x034c
   822dc:	03b503b5 	.word	0x03b503b5
   822e0:	03b50354 	.word	0x03b50354
   822e4:	03b503b5 	.word	0x03b503b5
   822e8:	03b503b5 	.word	0x03b503b5
   822ec:	005903b5 	.word	0x005903b5
   822f0:	03b50359 	.word	0x03b50359
   822f4:	02140066 	.word	0x02140066
   822f8:	022f03b5 	.word	0x022f03b5
   822fc:	03a503a5 	.word	0x03a503a5
   82300:	03a503a5 	.word	0x03a503a5
   82304:	03a503a5 	.word	0x03a503a5
   82308:	03a503a5 	.word	0x03a503a5
   8230c:	03b503a5 	.word	0x03b503a5
   82310:	03b503b5 	.word	0x03b503b5
   82314:	03b503b5 	.word	0x03b503b5
   82318:	03b503b5 	.word	0x03b503b5
   8231c:	03b503b5 	.word	0x03b503b5
   82320:	028b03b5 	.word	0x028b03b5
   82324:	03b502d3 	.word	0x03b502d3
   82328:	03b502d3 	.word	0x03b502d3
   8232c:	03b503b5 	.word	0x03b503b5
   82330:	031b03b5 	.word	0x031b03b5
   82334:	03b503b5 	.word	0x03b503b5
   82338:	03b50320 	.word	0x03b50320
   8233c:	03b503b5 	.word	0x03b503b5
   82340:	03b503b5 	.word	0x03b503b5
   82344:	03b50234 	.word	0x03b50234
   82348:	024b03b5 	.word	0x024b03b5
   8234c:	03b503b5 	.word	0x03b503b5
   82350:	03b503b5 	.word	0x03b503b5
   82354:	03b503b5 	.word	0x03b503b5
   82358:	03b503b5 	.word	0x03b503b5
   8235c:	03b503b5 	.word	0x03b503b5
   82360:	039e0276 	.word	0x039e0276
   82364:	02d302d3 	.word	0x02d302d3
   82368:	036302d3 	.word	0x036302d3
   8236c:	03b5039e 	.word	0x03b5039e
   82370:	036803b5 	.word	0x036803b5
   82374:	037503b5 	.word	0x037503b5
   82378:	038c01dd 	.word	0x038c01dd
   8237c:	03b5035e 	.word	0x03b5035e
   82380:	03b501f2 	.word	0x03b501f2
   82384:	03b50087 	.word	0x03b50087
   82388:	033203b5 	.word	0x033203b5
   8238c:	9c0f      	ldr	r4, [sp, #60]	; 0x3c
   8238e:	6823      	ldr	r3, [r4, #0]
   82390:	4618      	mov	r0, r3
   82392:	930d      	str	r3, [sp, #52]	; 0x34
   82394:	4623      	mov	r3, r4
   82396:	2800      	cmp	r0, #0
   82398:	f103 0304 	add.w	r3, r3, #4
   8239c:	930f      	str	r3, [sp, #60]	; 0x3c
   8239e:	da04      	bge.n	823aa <_svfprintf_r+0x196>
   823a0:	9b0d      	ldr	r3, [sp, #52]	; 0x34
   823a2:	425b      	negs	r3, r3
   823a4:	930d      	str	r3, [sp, #52]	; 0x34
   823a6:	f04b 0b04 	orr.w	fp, fp, #4
   823aa:	f89a 3000 	ldrb.w	r3, [sl]
   823ae:	e78b      	b.n	822c8 <_svfprintf_r+0xb4>
   823b0:	aa25      	add	r2, sp, #148	; 0x94
   823b2:	990b      	ldr	r1, [sp, #44]	; 0x2c
   823b4:	980c      	ldr	r0, [sp, #48]	; 0x30
   823b6:	f003 f849 	bl	8544c <__ssprint_r>
   823ba:	b940      	cbnz	r0, 823ce <_svfprintf_r+0x1ba>
   823bc:	46c8      	mov	r8, r9
   823be:	e76f      	b.n	822a0 <_svfprintf_r+0x8c>
   823c0:	9b27      	ldr	r3, [sp, #156]	; 0x9c
   823c2:	b123      	cbz	r3, 823ce <_svfprintf_r+0x1ba>
   823c4:	980c      	ldr	r0, [sp, #48]	; 0x30
   823c6:	aa25      	add	r2, sp, #148	; 0x94
   823c8:	990b      	ldr	r1, [sp, #44]	; 0x2c
   823ca:	f003 f83f 	bl	8544c <__ssprint_r>
   823ce:	9b0b      	ldr	r3, [sp, #44]	; 0x2c
   823d0:	899b      	ldrh	r3, [r3, #12]
   823d2:	f013 0f40 	tst.w	r3, #64	; 0x40
   823d6:	9b09      	ldr	r3, [sp, #36]	; 0x24
   823d8:	bf18      	it	ne
   823da:	f04f 33ff 	movne.w	r3, #4294967295
   823de:	9309      	str	r3, [sp, #36]	; 0x24
   823e0:	9809      	ldr	r0, [sp, #36]	; 0x24
   823e2:	b043      	add	sp, #268	; 0x10c
   823e4:	e8bd 8ff0 	ldmia.w	sp!, {r4, r5, r6, r7, r8, r9, sl, fp, pc}
   823e8:	f01b 0f20 	tst.w	fp, #32
   823ec:	9311      	str	r3, [sp, #68]	; 0x44
   823ee:	f040 81af 	bne.w	82750 <_svfprintf_r+0x53c>
   823f2:	9a0f      	ldr	r2, [sp, #60]	; 0x3c
   823f4:	f01b 0f10 	tst.w	fp, #16
   823f8:	4613      	mov	r3, r2
   823fa:	f040 859a 	bne.w	82f32 <_svfprintf_r+0xd1e>
   823fe:	f01b 0f40 	tst.w	fp, #64	; 0x40
   82402:	f000 8596 	beq.w	82f32 <_svfprintf_r+0xd1e>
   82406:	2500      	movs	r5, #0
   82408:	2301      	movs	r3, #1
   8240a:	8814      	ldrh	r4, [r2, #0]
   8240c:	3204      	adds	r2, #4
   8240e:	920f      	str	r2, [sp, #60]	; 0x3c
   82410:	2200      	movs	r2, #0
   82412:	4617      	mov	r7, r2
   82414:	f88d 2077 	strb.w	r2, [sp, #119]	; 0x77
   82418:	990a      	ldr	r1, [sp, #40]	; 0x28
   8241a:	1c4a      	adds	r2, r1, #1
   8241c:	f000 8210 	beq.w	82840 <_svfprintf_r+0x62c>
   82420:	f02b 0280 	bic.w	r2, fp, #128	; 0x80
   82424:	9207      	str	r2, [sp, #28]
   82426:	ea54 0205 	orrs.w	r2, r4, r5
   8242a:	f040 820f 	bne.w	8284c <_svfprintf_r+0x638>
   8242e:	2900      	cmp	r1, #0
   82430:	f040 8431 	bne.w	82c96 <_svfprintf_r+0xa82>
   82434:	2b00      	cmp	r3, #0
   82436:	f040 8539 	bne.w	82eac <_svfprintf_r+0xc98>
   8243a:	f01b 0301 	ands.w	r3, fp, #1
   8243e:	930e      	str	r3, [sp, #56]	; 0x38
   82440:	f000 8662 	beq.w	83108 <_svfprintf_r+0xef4>
   82444:	2330      	movs	r3, #48	; 0x30
   82446:	ae42      	add	r6, sp, #264	; 0x108
   82448:	f806 3d41 	strb.w	r3, [r6, #-65]!
   8244c:	9b0a      	ldr	r3, [sp, #40]	; 0x28
   8244e:	9a0e      	ldr	r2, [sp, #56]	; 0x38
   82450:	4293      	cmp	r3, r2
   82452:	bfb8      	it	lt
   82454:	4613      	movlt	r3, r2
   82456:	9308      	str	r3, [sp, #32]
   82458:	2300      	movs	r3, #0
   8245a:	9312      	str	r3, [sp, #72]	; 0x48
   8245c:	b117      	cbz	r7, 82464 <_svfprintf_r+0x250>
   8245e:	9b08      	ldr	r3, [sp, #32]
   82460:	3301      	adds	r3, #1
   82462:	9308      	str	r3, [sp, #32]
   82464:	9b07      	ldr	r3, [sp, #28]
   82466:	f013 0302 	ands.w	r3, r3, #2
   8246a:	9310      	str	r3, [sp, #64]	; 0x40
   8246c:	d002      	beq.n	82474 <_svfprintf_r+0x260>
   8246e:	9b08      	ldr	r3, [sp, #32]
   82470:	3302      	adds	r3, #2
   82472:	9308      	str	r3, [sp, #32]
   82474:	9b07      	ldr	r3, [sp, #28]
   82476:	f013 0584 	ands.w	r5, r3, #132	; 0x84
   8247a:	f040 8310 	bne.w	82a9e <_svfprintf_r+0x88a>
   8247e:	9b0d      	ldr	r3, [sp, #52]	; 0x34
   82480:	9a08      	ldr	r2, [sp, #32]
   82482:	eba3 0b02 	sub.w	fp, r3, r2
   82486:	f1bb 0f00 	cmp.w	fp, #0
   8248a:	f340 8308 	ble.w	82a9e <_svfprintf_r+0x88a>
   8248e:	f1bb 0f10 	cmp.w	fp, #16
   82492:	f340 87b2 	ble.w	833fa <_svfprintf_r+0x11e6>
   82496:	9c27      	ldr	r4, [sp, #156]	; 0x9c
   82498:	4643      	mov	r3, r8
   8249a:	4621      	mov	r1, r4
   8249c:	46a8      	mov	r8, r5
   8249e:	2710      	movs	r7, #16
   824a0:	9a26      	ldr	r2, [sp, #152]	; 0x98
   824a2:	9c0c      	ldr	r4, [sp, #48]	; 0x30
   824a4:	9d0b      	ldr	r5, [sp, #44]	; 0x2c
   824a6:	e006      	b.n	824b6 <_svfprintf_r+0x2a2>
   824a8:	f1ab 0b10 	sub.w	fp, fp, #16
   824ac:	f1bb 0f10 	cmp.w	fp, #16
   824b0:	f103 0308 	add.w	r3, r3, #8
   824b4:	dd18      	ble.n	824e8 <_svfprintf_r+0x2d4>
   824b6:	3201      	adds	r2, #1
   824b8:	48ab      	ldr	r0, [pc, #684]	; (82768 <_svfprintf_r+0x554>)
   824ba:	3110      	adds	r1, #16
   824bc:	2a07      	cmp	r2, #7
   824be:	9127      	str	r1, [sp, #156]	; 0x9c
   824c0:	9226      	str	r2, [sp, #152]	; 0x98
   824c2:	e883 0081 	stmia.w	r3, {r0, r7}
   824c6:	ddef      	ble.n	824a8 <_svfprintf_r+0x294>
   824c8:	aa25      	add	r2, sp, #148	; 0x94
   824ca:	4629      	mov	r1, r5
   824cc:	4620      	mov	r0, r4
   824ce:	f002 ffbd 	bl	8544c <__ssprint_r>
   824d2:	2800      	cmp	r0, #0
   824d4:	f47f af7b 	bne.w	823ce <_svfprintf_r+0x1ba>
   824d8:	f1ab 0b10 	sub.w	fp, fp, #16
   824dc:	f1bb 0f10 	cmp.w	fp, #16
   824e0:	464b      	mov	r3, r9
   824e2:	9927      	ldr	r1, [sp, #156]	; 0x9c
   824e4:	9a26      	ldr	r2, [sp, #152]	; 0x98
   824e6:	dce6      	bgt.n	824b6 <_svfprintf_r+0x2a2>
   824e8:	4645      	mov	r5, r8
   824ea:	460c      	mov	r4, r1
   824ec:	4698      	mov	r8, r3
   824ee:	3201      	adds	r2, #1
   824f0:	4b9d      	ldr	r3, [pc, #628]	; (82768 <_svfprintf_r+0x554>)
   824f2:	445c      	add	r4, fp
   824f4:	2a07      	cmp	r2, #7
   824f6:	9427      	str	r4, [sp, #156]	; 0x9c
   824f8:	9226      	str	r2, [sp, #152]	; 0x98
   824fa:	e888 0808 	stmia.w	r8, {r3, fp}
   824fe:	f300 82c3 	bgt.w	82a88 <_svfprintf_r+0x874>
   82502:	f89d 7077 	ldrb.w	r7, [sp, #119]	; 0x77
   82506:	f108 0808 	add.w	r8, r8, #8
   8250a:	b187      	cbz	r7, 8252e <_svfprintf_r+0x31a>
   8250c:	2101      	movs	r1, #1
   8250e:	9b26      	ldr	r3, [sp, #152]	; 0x98
   82510:	440c      	add	r4, r1
   82512:	440b      	add	r3, r1
   82514:	f10d 0277 	add.w	r2, sp, #119	; 0x77
   82518:	2b07      	cmp	r3, #7
   8251a:	9427      	str	r4, [sp, #156]	; 0x9c
   8251c:	9326      	str	r3, [sp, #152]	; 0x98
   8251e:	f8c8 1004 	str.w	r1, [r8, #4]
   82522:	f8c8 2000 	str.w	r2, [r8]
   82526:	f300 83cd 	bgt.w	82cc4 <_svfprintf_r+0xab0>
   8252a:	f108 0808 	add.w	r8, r8, #8
   8252e:	9b10      	ldr	r3, [sp, #64]	; 0x40
   82530:	b17b      	cbz	r3, 82552 <_svfprintf_r+0x33e>
   82532:	2102      	movs	r1, #2
   82534:	9b26      	ldr	r3, [sp, #152]	; 0x98
   82536:	440c      	add	r4, r1
   82538:	3301      	adds	r3, #1
   8253a:	aa1e      	add	r2, sp, #120	; 0x78
   8253c:	2b07      	cmp	r3, #7
   8253e:	9427      	str	r4, [sp, #156]	; 0x9c
   82540:	9326      	str	r3, [sp, #152]	; 0x98
   82542:	f8c8 1004 	str.w	r1, [r8, #4]
   82546:	f8c8 2000 	str.w	r2, [r8]
   8254a:	f300 8411 	bgt.w	82d70 <_svfprintf_r+0xb5c>
   8254e:	f108 0808 	add.w	r8, r8, #8
   82552:	2d80      	cmp	r5, #128	; 0x80
   82554:	f000 8304 	beq.w	82b60 <_svfprintf_r+0x94c>
   82558:	9b0a      	ldr	r3, [sp, #40]	; 0x28
   8255a:	9a0e      	ldr	r2, [sp, #56]	; 0x38
   8255c:	1a9f      	subs	r7, r3, r2
   8255e:	2f00      	cmp	r7, #0
   82560:	dd37      	ble.n	825d2 <_svfprintf_r+0x3be>
   82562:	2f10      	cmp	r7, #16
   82564:	f340 8679 	ble.w	8325a <_svfprintf_r+0x1046>
   82568:	4d80      	ldr	r5, [pc, #512]	; (8276c <_svfprintf_r+0x558>)
   8256a:	4642      	mov	r2, r8
   8256c:	4621      	mov	r1, r4
   8256e:	46b0      	mov	r8, r6
   82570:	f04f 0b10 	mov.w	fp, #16
   82574:	462e      	mov	r6, r5
   82576:	9b26      	ldr	r3, [sp, #152]	; 0x98
   82578:	9c0c      	ldr	r4, [sp, #48]	; 0x30
   8257a:	9d0b      	ldr	r5, [sp, #44]	; 0x2c
   8257c:	e004      	b.n	82588 <_svfprintf_r+0x374>
   8257e:	3f10      	subs	r7, #16
   82580:	2f10      	cmp	r7, #16
   82582:	f102 0208 	add.w	r2, r2, #8
   82586:	dd15      	ble.n	825b4 <_svfprintf_r+0x3a0>
   82588:	3301      	adds	r3, #1
   8258a:	3110      	adds	r1, #16
   8258c:	2b07      	cmp	r3, #7
   8258e:	9127      	str	r1, [sp, #156]	; 0x9c
   82590:	9326      	str	r3, [sp, #152]	; 0x98
   82592:	e882 0840 	stmia.w	r2, {r6, fp}
   82596:	ddf2      	ble.n	8257e <_svfprintf_r+0x36a>
   82598:	aa25      	add	r2, sp, #148	; 0x94
   8259a:	4629      	mov	r1, r5
   8259c:	4620      	mov	r0, r4
   8259e:	f002 ff55 	bl	8544c <__ssprint_r>
   825a2:	2800      	cmp	r0, #0
   825a4:	f47f af13 	bne.w	823ce <_svfprintf_r+0x1ba>
   825a8:	3f10      	subs	r7, #16
   825aa:	2f10      	cmp	r7, #16
   825ac:	464a      	mov	r2, r9
   825ae:	9927      	ldr	r1, [sp, #156]	; 0x9c
   825b0:	9b26      	ldr	r3, [sp, #152]	; 0x98
   825b2:	dce9      	bgt.n	82588 <_svfprintf_r+0x374>
   825b4:	4635      	mov	r5, r6
   825b6:	460c      	mov	r4, r1
   825b8:	4646      	mov	r6, r8
   825ba:	4690      	mov	r8, r2
   825bc:	3301      	adds	r3, #1
   825be:	443c      	add	r4, r7
   825c0:	2b07      	cmp	r3, #7
   825c2:	9427      	str	r4, [sp, #156]	; 0x9c
   825c4:	9326      	str	r3, [sp, #152]	; 0x98
   825c6:	e888 00a0 	stmia.w	r8, {r5, r7}
   825ca:	f300 8370 	bgt.w	82cae <_svfprintf_r+0xa9a>
   825ce:	f108 0808 	add.w	r8, r8, #8
   825d2:	9b07      	ldr	r3, [sp, #28]
   825d4:	05df      	lsls	r7, r3, #23
   825d6:	f100 8264 	bmi.w	82aa2 <_svfprintf_r+0x88e>
   825da:	9b26      	ldr	r3, [sp, #152]	; 0x98
   825dc:	990e      	ldr	r1, [sp, #56]	; 0x38
   825de:	3301      	adds	r3, #1
   825e0:	440c      	add	r4, r1
   825e2:	2b07      	cmp	r3, #7
   825e4:	9427      	str	r4, [sp, #156]	; 0x9c
   825e6:	f8c8 6000 	str.w	r6, [r8]
   825ea:	f8c8 1004 	str.w	r1, [r8, #4]
   825ee:	9326      	str	r3, [sp, #152]	; 0x98
   825f0:	f300 83b3 	bgt.w	82d5a <_svfprintf_r+0xb46>
   825f4:	f108 0808 	add.w	r8, r8, #8
   825f8:	9b07      	ldr	r3, [sp, #28]
   825fa:	075b      	lsls	r3, r3, #29
   825fc:	d53b      	bpl.n	82676 <_svfprintf_r+0x462>
   825fe:	9b0d      	ldr	r3, [sp, #52]	; 0x34
   82600:	9a08      	ldr	r2, [sp, #32]
   82602:	1a9d      	subs	r5, r3, r2
   82604:	2d00      	cmp	r5, #0
   82606:	dd36      	ble.n	82676 <_svfprintf_r+0x462>
   82608:	2d10      	cmp	r5, #16
   8260a:	f340 8721 	ble.w	83450 <_svfprintf_r+0x123c>
   8260e:	2610      	movs	r6, #16
   82610:	9b26      	ldr	r3, [sp, #152]	; 0x98
   82612:	9f0c      	ldr	r7, [sp, #48]	; 0x30
   82614:	f8dd b02c 	ldr.w	fp, [sp, #44]	; 0x2c
   82618:	e004      	b.n	82624 <_svfprintf_r+0x410>
   8261a:	3d10      	subs	r5, #16
   8261c:	2d10      	cmp	r5, #16
   8261e:	f108 0808 	add.w	r8, r8, #8
   82622:	dd16      	ble.n	82652 <_svfprintf_r+0x43e>
   82624:	3301      	adds	r3, #1
   82626:	4a50      	ldr	r2, [pc, #320]	; (82768 <_svfprintf_r+0x554>)
   82628:	3410      	adds	r4, #16
   8262a:	2b07      	cmp	r3, #7
   8262c:	9427      	str	r4, [sp, #156]	; 0x9c
   8262e:	9326      	str	r3, [sp, #152]	; 0x98
   82630:	e888 0044 	stmia.w	r8, {r2, r6}
   82634:	ddf1      	ble.n	8261a <_svfprintf_r+0x406>
   82636:	aa25      	add	r2, sp, #148	; 0x94
   82638:	4659      	mov	r1, fp
   8263a:	4638      	mov	r0, r7
   8263c:	f002 ff06 	bl	8544c <__ssprint_r>
   82640:	2800      	cmp	r0, #0
   82642:	f47f aec4 	bne.w	823ce <_svfprintf_r+0x1ba>
   82646:	3d10      	subs	r5, #16
   82648:	2d10      	cmp	r5, #16
   8264a:	46c8      	mov	r8, r9
   8264c:	9c27      	ldr	r4, [sp, #156]	; 0x9c
   8264e:	9b26      	ldr	r3, [sp, #152]	; 0x98
   82650:	dce8      	bgt.n	82624 <_svfprintf_r+0x410>
   82652:	3301      	adds	r3, #1
   82654:	4a44      	ldr	r2, [pc, #272]	; (82768 <_svfprintf_r+0x554>)
   82656:	442c      	add	r4, r5
   82658:	2b07      	cmp	r3, #7
   8265a:	9427      	str	r4, [sp, #156]	; 0x9c
   8265c:	9326      	str	r3, [sp, #152]	; 0x98
   8265e:	e888 0024 	stmia.w	r8, {r2, r5}
   82662:	dd08      	ble.n	82676 <_svfprintf_r+0x462>
   82664:	aa25      	add	r2, sp, #148	; 0x94
   82666:	990b      	ldr	r1, [sp, #44]	; 0x2c
   82668:	980c      	ldr	r0, [sp, #48]	; 0x30
   8266a:	f002 feef 	bl	8544c <__ssprint_r>
   8266e:	2800      	cmp	r0, #0
   82670:	f47f aead 	bne.w	823ce <_svfprintf_r+0x1ba>
   82674:	9c27      	ldr	r4, [sp, #156]	; 0x9c
   82676:	9b09      	ldr	r3, [sp, #36]	; 0x24
   82678:	9a0d      	ldr	r2, [sp, #52]	; 0x34
   8267a:	9908      	ldr	r1, [sp, #32]
   8267c:	428a      	cmp	r2, r1
   8267e:	bfac      	ite	ge
   82680:	189b      	addge	r3, r3, r2
   82682:	185b      	addlt	r3, r3, r1
   82684:	9309      	str	r3, [sp, #36]	; 0x24
   82686:	2c00      	cmp	r4, #0
   82688:	f040 82fb 	bne.w	82c82 <_svfprintf_r+0xa6e>
   8268c:	2300      	movs	r3, #0
   8268e:	46c8      	mov	r8, r9
   82690:	9326      	str	r3, [sp, #152]	; 0x98
   82692:	e5e6      	b.n	82262 <_svfprintf_r+0x4e>
   82694:	9311      	str	r3, [sp, #68]	; 0x44
   82696:	f01b 0320 	ands.w	r3, fp, #32
   8269a:	f040 8145 	bne.w	82928 <_svfprintf_r+0x714>
   8269e:	f01b 0210 	ands.w	r2, fp, #16
   826a2:	f040 8466 	bne.w	82f72 <_svfprintf_r+0xd5e>
   826a6:	f01b 0340 	ands.w	r3, fp, #64	; 0x40
   826aa:	f000 8462 	beq.w	82f72 <_svfprintf_r+0xd5e>
   826ae:	990f      	ldr	r1, [sp, #60]	; 0x3c
   826b0:	4613      	mov	r3, r2
   826b2:	460a      	mov	r2, r1
   826b4:	3204      	adds	r2, #4
   826b6:	880c      	ldrh	r4, [r1, #0]
   826b8:	2500      	movs	r5, #0
   826ba:	920f      	str	r2, [sp, #60]	; 0x3c
   826bc:	e6a8      	b.n	82410 <_svfprintf_r+0x1fc>
   826be:	2500      	movs	r5, #0
   826c0:	9a0f      	ldr	r2, [sp, #60]	; 0x3c
   826c2:	9311      	str	r3, [sp, #68]	; 0x44
   826c4:	6816      	ldr	r6, [r2, #0]
   826c6:	f88d 5077 	strb.w	r5, [sp, #119]	; 0x77
   826ca:	1d14      	adds	r4, r2, #4
   826cc:	2e00      	cmp	r6, #0
   826ce:	f000 86cd 	beq.w	8346c <_svfprintf_r+0x1258>
   826d2:	9a0a      	ldr	r2, [sp, #40]	; 0x28
   826d4:	1c53      	adds	r3, r2, #1
   826d6:	f000 861b 	beq.w	83310 <_svfprintf_r+0x10fc>
   826da:	4629      	mov	r1, r5
   826dc:	4630      	mov	r0, r6
   826de:	f002 f959 	bl	84994 <memchr>
   826e2:	2800      	cmp	r0, #0
   826e4:	f000 870d 	beq.w	83502 <_svfprintf_r+0x12ee>
   826e8:	1b83      	subs	r3, r0, r6
   826ea:	950a      	str	r5, [sp, #40]	; 0x28
   826ec:	930e      	str	r3, [sp, #56]	; 0x38
   826ee:	940f      	str	r4, [sp, #60]	; 0x3c
   826f0:	f8cd b01c 	str.w	fp, [sp, #28]
   826f4:	ea23 73e3 	bic.w	r3, r3, r3, asr #31
   826f8:	9308      	str	r3, [sp, #32]
   826fa:	9512      	str	r5, [sp, #72]	; 0x48
   826fc:	f89d 7077 	ldrb.w	r7, [sp, #119]	; 0x77
   82700:	e6ac      	b.n	8245c <_svfprintf_r+0x248>
   82702:	f89a 3000 	ldrb.w	r3, [sl]
   82706:	f10a 0401 	add.w	r4, sl, #1
   8270a:	2b2a      	cmp	r3, #42	; 0x2a
   8270c:	f000 87c2 	beq.w	83694 <_svfprintf_r+0x1480>
   82710:	f1a3 0030 	sub.w	r0, r3, #48	; 0x30
   82714:	2809      	cmp	r0, #9
   82716:	46a2      	mov	sl, r4
   82718:	f200 8718 	bhi.w	8354c <_svfprintf_r+0x1338>
   8271c:	2300      	movs	r3, #0
   8271e:	461c      	mov	r4, r3
   82720:	f81a 3b01 	ldrb.w	r3, [sl], #1
   82724:	eb04 0484 	add.w	r4, r4, r4, lsl #2
   82728:	eb00 0444 	add.w	r4, r0, r4, lsl #1
   8272c:	f1a3 0030 	sub.w	r0, r3, #48	; 0x30
   82730:	2809      	cmp	r0, #9
   82732:	d9f5      	bls.n	82720 <_svfprintf_r+0x50c>
   82734:	940a      	str	r4, [sp, #40]	; 0x28
   82736:	e5c9      	b.n	822cc <_svfprintf_r+0xb8>
   82738:	f04b 0b80 	orr.w	fp, fp, #128	; 0x80
   8273c:	f89a 3000 	ldrb.w	r3, [sl]
   82740:	e5c2      	b.n	822c8 <_svfprintf_r+0xb4>
   82742:	f04b 0b10 	orr.w	fp, fp, #16
   82746:	f01b 0f20 	tst.w	fp, #32
   8274a:	9311      	str	r3, [sp, #68]	; 0x44
   8274c:	f43f ae51 	beq.w	823f2 <_svfprintf_r+0x1de>
   82750:	9c0f      	ldr	r4, [sp, #60]	; 0x3c
   82752:	3407      	adds	r4, #7
   82754:	f024 0307 	bic.w	r3, r4, #7
   82758:	f103 0208 	add.w	r2, r3, #8
   8275c:	e9d3 4500 	ldrd	r4, r5, [r3]
   82760:	920f      	str	r2, [sp, #60]	; 0x3c
   82762:	2301      	movs	r3, #1
   82764:	e654      	b.n	82410 <_svfprintf_r+0x1fc>
   82766:	bf00      	nop
   82768:	000863bc 	.word	0x000863bc
   8276c:	000863cc 	.word	0x000863cc
   82770:	9311      	str	r3, [sp, #68]	; 0x44
   82772:	2a00      	cmp	r2, #0
   82774:	f040 87ad 	bne.w	836d2 <_svfprintf_r+0x14be>
   82778:	4bbe      	ldr	r3, [pc, #760]	; (82a74 <_svfprintf_r+0x860>)
   8277a:	f01b 0f20 	tst.w	fp, #32
   8277e:	9318      	str	r3, [sp, #96]	; 0x60
   82780:	f040 80e7 	bne.w	82952 <_svfprintf_r+0x73e>
   82784:	9a0f      	ldr	r2, [sp, #60]	; 0x3c
   82786:	f01b 0f10 	tst.w	fp, #16
   8278a:	4613      	mov	r3, r2
   8278c:	f040 83d8 	bne.w	82f40 <_svfprintf_r+0xd2c>
   82790:	f01b 0f40 	tst.w	fp, #64	; 0x40
   82794:	f000 83d4 	beq.w	82f40 <_svfprintf_r+0xd2c>
   82798:	2500      	movs	r5, #0
   8279a:	3304      	adds	r3, #4
   8279c:	8814      	ldrh	r4, [r2, #0]
   8279e:	930f      	str	r3, [sp, #60]	; 0x3c
   827a0:	f01b 0f01 	tst.w	fp, #1
   827a4:	f000 80e3 	beq.w	8296e <_svfprintf_r+0x75a>
   827a8:	ea54 0305 	orrs.w	r3, r4, r5
   827ac:	f000 80df 	beq.w	8296e <_svfprintf_r+0x75a>
   827b0:	2330      	movs	r3, #48	; 0x30
   827b2:	f89d 2044 	ldrb.w	r2, [sp, #68]	; 0x44
   827b6:	f88d 3078 	strb.w	r3, [sp, #120]	; 0x78
   827ba:	f88d 2079 	strb.w	r2, [sp, #121]	; 0x79
   827be:	f04b 0b02 	orr.w	fp, fp, #2
   827c2:	2302      	movs	r3, #2
   827c4:	e624      	b.n	82410 <_svfprintf_r+0x1fc>
   827c6:	2201      	movs	r2, #1
   827c8:	9311      	str	r3, [sp, #68]	; 0x44
   827ca:	2300      	movs	r3, #0
   827cc:	4611      	mov	r1, r2
   827ce:	980f      	ldr	r0, [sp, #60]	; 0x3c
   827d0:	9208      	str	r2, [sp, #32]
   827d2:	6802      	ldr	r2, [r0, #0]
   827d4:	461f      	mov	r7, r3
   827d6:	f88d 3077 	strb.w	r3, [sp, #119]	; 0x77
   827da:	930a      	str	r3, [sp, #40]	; 0x28
   827dc:	9312      	str	r3, [sp, #72]	; 0x48
   827de:	1d03      	adds	r3, r0, #4
   827e0:	f8cd b01c 	str.w	fp, [sp, #28]
   827e4:	910e      	str	r1, [sp, #56]	; 0x38
   827e6:	f88d 20a0 	strb.w	r2, [sp, #160]	; 0xa0
   827ea:	930f      	str	r3, [sp, #60]	; 0x3c
   827ec:	ae28      	add	r6, sp, #160	; 0xa0
   827ee:	e639      	b.n	82464 <_svfprintf_r+0x250>
   827f0:	9311      	str	r3, [sp, #68]	; 0x44
   827f2:	2a00      	cmp	r2, #0
   827f4:	f040 8784 	bne.w	83700 <_svfprintf_r+0x14ec>
   827f8:	f04b 0b10 	orr.w	fp, fp, #16
   827fc:	f01b 0f20 	tst.w	fp, #32
   82800:	f040 8475 	bne.w	830ee <_svfprintf_r+0xeda>
   82804:	9a0f      	ldr	r2, [sp, #60]	; 0x3c
   82806:	f01b 0f10 	tst.w	fp, #16
   8280a:	4613      	mov	r3, r2
   8280c:	f040 839d 	bne.w	82f4a <_svfprintf_r+0xd36>
   82810:	f01b 0f40 	tst.w	fp, #64	; 0x40
   82814:	f000 8399 	beq.w	82f4a <_svfprintf_r+0xd36>
   82818:	f9b2 4000 	ldrsh.w	r4, [r2]
   8281c:	3304      	adds	r3, #4
   8281e:	17e5      	asrs	r5, r4, #31
   82820:	930f      	str	r3, [sp, #60]	; 0x3c
   82822:	4622      	mov	r2, r4
   82824:	462b      	mov	r3, r5
   82826:	2a00      	cmp	r2, #0
   82828:	f173 0300 	sbcs.w	r3, r3, #0
   8282c:	f2c0 8398 	blt.w	82f60 <_svfprintf_r+0xd4c>
   82830:	990a      	ldr	r1, [sp, #40]	; 0x28
   82832:	f89d 7077 	ldrb.w	r7, [sp, #119]	; 0x77
   82836:	1c4a      	adds	r2, r1, #1
   82838:	f04f 0301 	mov.w	r3, #1
   8283c:	f47f adf0 	bne.w	82420 <_svfprintf_r+0x20c>
   82840:	ea54 0205 	orrs.w	r2, r4, r5
   82844:	f000 8229 	beq.w	82c9a <_svfprintf_r+0xa86>
   82848:	f8cd b01c 	str.w	fp, [sp, #28]
   8284c:	2b01      	cmp	r3, #1
   8284e:	f000 830e 	beq.w	82e6e <_svfprintf_r+0xc5a>
   82852:	2b02      	cmp	r3, #2
   82854:	f040 829c 	bne.w	82d90 <_svfprintf_r+0xb7c>
   82858:	464e      	mov	r6, r9
   8285a:	9818      	ldr	r0, [sp, #96]	; 0x60
   8285c:	0923      	lsrs	r3, r4, #4
   8285e:	ea43 7305 	orr.w	r3, r3, r5, lsl #28
   82862:	0929      	lsrs	r1, r5, #4
   82864:	f004 020f 	and.w	r2, r4, #15
   82868:	460d      	mov	r5, r1
   8286a:	461c      	mov	r4, r3
   8286c:	5c83      	ldrb	r3, [r0, r2]
   8286e:	f806 3d01 	strb.w	r3, [r6, #-1]!
   82872:	ea54 0305 	orrs.w	r3, r4, r5
   82876:	d1f1      	bne.n	8285c <_svfprintf_r+0x648>
   82878:	eba9 0306 	sub.w	r3, r9, r6
   8287c:	930e      	str	r3, [sp, #56]	; 0x38
   8287e:	e5e5      	b.n	8244c <_svfprintf_r+0x238>
   82880:	9311      	str	r3, [sp, #68]	; 0x44
   82882:	2a00      	cmp	r2, #0
   82884:	f040 8738 	bne.w	836f8 <_svfprintf_r+0x14e4>
   82888:	9c0f      	ldr	r4, [sp, #60]	; 0x3c
   8288a:	f01b 0f08 	tst.w	fp, #8
   8288e:	f104 0407 	add.w	r4, r4, #7
   82892:	f000 84cf 	beq.w	83234 <_svfprintf_r+0x1020>
   82896:	f024 0307 	bic.w	r3, r4, #7
   8289a:	f103 0208 	add.w	r2, r3, #8
   8289e:	920f      	str	r2, [sp, #60]	; 0x3c
   828a0:	681a      	ldr	r2, [r3, #0]
   828a2:	685b      	ldr	r3, [r3, #4]
   828a4:	9215      	str	r2, [sp, #84]	; 0x54
   828a6:	9314      	str	r3, [sp, #80]	; 0x50
   828a8:	9b14      	ldr	r3, [sp, #80]	; 0x50
   828aa:	9d15      	ldr	r5, [sp, #84]	; 0x54
   828ac:	f023 4400 	bic.w	r4, r3, #2147483648	; 0x80000000
   828b0:	4628      	mov	r0, r5
   828b2:	4621      	mov	r1, r4
   828b4:	f04f 32ff 	mov.w	r2, #4294967295
   828b8:	4b6f      	ldr	r3, [pc, #444]	; (82a78 <_svfprintf_r+0x864>)
   828ba:	f003 fb35 	bl	85f28 <__aeabi_dcmpun>
   828be:	2800      	cmp	r0, #0
   828c0:	f040 8434 	bne.w	8312c <_svfprintf_r+0xf18>
   828c4:	4628      	mov	r0, r5
   828c6:	4621      	mov	r1, r4
   828c8:	f04f 32ff 	mov.w	r2, #4294967295
   828cc:	4b6a      	ldr	r3, [pc, #424]	; (82a78 <_svfprintf_r+0x864>)
   828ce:	f003 fb0d 	bl	85eec <__aeabi_dcmple>
   828d2:	2800      	cmp	r0, #0
   828d4:	f040 842a 	bne.w	8312c <_svfprintf_r+0xf18>
   828d8:	a815      	add	r0, sp, #84	; 0x54
   828da:	c80d      	ldmia	r0, {r0, r2, r3}
   828dc:	9914      	ldr	r1, [sp, #80]	; 0x50
   828de:	f003 fafb 	bl	85ed8 <__aeabi_dcmplt>
   828e2:	2800      	cmp	r0, #0
   828e4:	f040 85d4 	bne.w	83490 <_svfprintf_r+0x127c>
   828e8:	f89d 7077 	ldrb.w	r7, [sp, #119]	; 0x77
   828ec:	2303      	movs	r3, #3
   828ee:	461a      	mov	r2, r3
   828f0:	9308      	str	r3, [sp, #32]
   828f2:	2300      	movs	r3, #0
   828f4:	4e61      	ldr	r6, [pc, #388]	; (82a7c <_svfprintf_r+0x868>)
   828f6:	4619      	mov	r1, r3
   828f8:	930a      	str	r3, [sp, #40]	; 0x28
   828fa:	4b61      	ldr	r3, [pc, #388]	; (82a80 <_svfprintf_r+0x86c>)
   828fc:	920e      	str	r2, [sp, #56]	; 0x38
   828fe:	9a11      	ldr	r2, [sp, #68]	; 0x44
   82900:	f02b 0080 	bic.w	r0, fp, #128	; 0x80
   82904:	9007      	str	r0, [sp, #28]
   82906:	9112      	str	r1, [sp, #72]	; 0x48
   82908:	2a47      	cmp	r2, #71	; 0x47
   8290a:	bfd8      	it	le
   8290c:	461e      	movle	r6, r3
   8290e:	e5a5      	b.n	8245c <_svfprintf_r+0x248>
   82910:	f04b 0b08 	orr.w	fp, fp, #8
   82914:	f89a 3000 	ldrb.w	r3, [sl]
   82918:	e4d6      	b.n	822c8 <_svfprintf_r+0xb4>
   8291a:	f04b 0b10 	orr.w	fp, fp, #16
   8291e:	9311      	str	r3, [sp, #68]	; 0x44
   82920:	f01b 0320 	ands.w	r3, fp, #32
   82924:	f43f aebb 	beq.w	8269e <_svfprintf_r+0x48a>
   82928:	9c0f      	ldr	r4, [sp, #60]	; 0x3c
   8292a:	3407      	adds	r4, #7
   8292c:	f024 0307 	bic.w	r3, r4, #7
   82930:	f103 0208 	add.w	r2, r3, #8
   82934:	e9d3 4500 	ldrd	r4, r5, [r3]
   82938:	920f      	str	r2, [sp, #60]	; 0x3c
   8293a:	2300      	movs	r3, #0
   8293c:	e568      	b.n	82410 <_svfprintf_r+0x1fc>
   8293e:	9311      	str	r3, [sp, #68]	; 0x44
   82940:	2a00      	cmp	r2, #0
   82942:	f040 86c2 	bne.w	836ca <_svfprintf_r+0x14b6>
   82946:	4b4f      	ldr	r3, [pc, #316]	; (82a84 <_svfprintf_r+0x870>)
   82948:	f01b 0f20 	tst.w	fp, #32
   8294c:	9318      	str	r3, [sp, #96]	; 0x60
   8294e:	f43f af19 	beq.w	82784 <_svfprintf_r+0x570>
   82952:	9c0f      	ldr	r4, [sp, #60]	; 0x3c
   82954:	f01b 0f01 	tst.w	fp, #1
   82958:	f104 0407 	add.w	r4, r4, #7
   8295c:	f024 0307 	bic.w	r3, r4, #7
   82960:	f103 0208 	add.w	r2, r3, #8
   82964:	920f      	str	r2, [sp, #60]	; 0x3c
   82966:	e9d3 4500 	ldrd	r4, r5, [r3]
   8296a:	f47f af1d 	bne.w	827a8 <_svfprintf_r+0x594>
   8296e:	2302      	movs	r3, #2
   82970:	e54e      	b.n	82410 <_svfprintf_r+0x1fc>
   82972:	f89a 3000 	ldrb.w	r3, [sl]
   82976:	2900      	cmp	r1, #0
   82978:	f47f aca6 	bne.w	822c8 <_svfprintf_r+0xb4>
   8297c:	2201      	movs	r2, #1
   8297e:	2120      	movs	r1, #32
   82980:	e4a2      	b.n	822c8 <_svfprintf_r+0xb4>
   82982:	f04b 0b01 	orr.w	fp, fp, #1
   82986:	f89a 3000 	ldrb.w	r3, [sl]
   8298a:	e49d      	b.n	822c8 <_svfprintf_r+0xb4>
   8298c:	f89a 3000 	ldrb.w	r3, [sl]
   82990:	2201      	movs	r2, #1
   82992:	212b      	movs	r1, #43	; 0x2b
   82994:	e498      	b.n	822c8 <_svfprintf_r+0xb4>
   82996:	f04b 0b20 	orr.w	fp, fp, #32
   8299a:	f89a 3000 	ldrb.w	r3, [sl]
   8299e:	e493      	b.n	822c8 <_svfprintf_r+0xb4>
   829a0:	f04b 0b40 	orr.w	fp, fp, #64	; 0x40
   829a4:	f89a 3000 	ldrb.w	r3, [sl]
   829a8:	e48e      	b.n	822c8 <_svfprintf_r+0xb4>
   829aa:	f89a 3000 	ldrb.w	r3, [sl]
   829ae:	2b6c      	cmp	r3, #108	; 0x6c
   829b0:	bf03      	ittte	eq
   829b2:	f89a 3001 	ldrbeq.w	r3, [sl, #1]
   829b6:	f04b 0b20 	orreq.w	fp, fp, #32
   829ba:	f10a 0a01 	addeq.w	sl, sl, #1
   829be:	f04b 0b10 	orrne.w	fp, fp, #16
   829c2:	e481      	b.n	822c8 <_svfprintf_r+0xb4>
   829c4:	2a00      	cmp	r2, #0
   829c6:	f040 867c 	bne.w	836c2 <_svfprintf_r+0x14ae>
   829ca:	f01b 0f20 	tst.w	fp, #32
   829ce:	f040 8452 	bne.w	83276 <_svfprintf_r+0x1062>
   829d2:	f01b 0f10 	tst.w	fp, #16
   829d6:	f040 8438 	bne.w	8324a <_svfprintf_r+0x1036>
   829da:	f01b 0f40 	tst.w	fp, #64	; 0x40
   829de:	f000 8434 	beq.w	8324a <_svfprintf_r+0x1036>
   829e2:	9a0f      	ldr	r2, [sp, #60]	; 0x3c
   829e4:	6813      	ldr	r3, [r2, #0]
   829e6:	3204      	adds	r2, #4
   829e8:	920f      	str	r2, [sp, #60]	; 0x3c
   829ea:	f8bd 2024 	ldrh.w	r2, [sp, #36]	; 0x24
   829ee:	801a      	strh	r2, [r3, #0]
   829f0:	e437      	b.n	82262 <_svfprintf_r+0x4e>
   829f2:	2378      	movs	r3, #120	; 0x78
   829f4:	2230      	movs	r2, #48	; 0x30
   829f6:	980f      	ldr	r0, [sp, #60]	; 0x3c
   829f8:	f88d 3079 	strb.w	r3, [sp, #121]	; 0x79
   829fc:	9311      	str	r3, [sp, #68]	; 0x44
   829fe:	1d03      	adds	r3, r0, #4
   82a00:	930f      	str	r3, [sp, #60]	; 0x3c
   82a02:	4b20      	ldr	r3, [pc, #128]	; (82a84 <_svfprintf_r+0x870>)
   82a04:	6804      	ldr	r4, [r0, #0]
   82a06:	9318      	str	r3, [sp, #96]	; 0x60
   82a08:	f04b 0b02 	orr.w	fp, fp, #2
   82a0c:	f88d 2078 	strb.w	r2, [sp, #120]	; 0x78
   82a10:	2500      	movs	r5, #0
   82a12:	2302      	movs	r3, #2
   82a14:	e4fc      	b.n	82410 <_svfprintf_r+0x1fc>
   82a16:	9311      	str	r3, [sp, #68]	; 0x44
   82a18:	2a00      	cmp	r2, #0
   82a1a:	f43f aeef 	beq.w	827fc <_svfprintf_r+0x5e8>
   82a1e:	f88d 1077 	strb.w	r1, [sp, #119]	; 0x77
   82a22:	e6eb      	b.n	827fc <_svfprintf_r+0x5e8>
   82a24:	2000      	movs	r0, #0
   82a26:	4604      	mov	r4, r0
   82a28:	f1a3 0030 	sub.w	r0, r3, #48	; 0x30
   82a2c:	f81a 3b01 	ldrb.w	r3, [sl], #1
   82a30:	eb04 0484 	add.w	r4, r4, r4, lsl #2
   82a34:	eb00 0444 	add.w	r4, r0, r4, lsl #1
   82a38:	f1a3 0030 	sub.w	r0, r3, #48	; 0x30
   82a3c:	2809      	cmp	r0, #9
   82a3e:	d9f5      	bls.n	82a2c <_svfprintf_r+0x818>
   82a40:	940d      	str	r4, [sp, #52]	; 0x34
   82a42:	e443      	b.n	822cc <_svfprintf_r+0xb8>
   82a44:	9311      	str	r3, [sp, #68]	; 0x44
   82a46:	2a00      	cmp	r2, #0
   82a48:	f040 864a 	bne.w	836e0 <_svfprintf_r+0x14cc>
   82a4c:	9a11      	ldr	r2, [sp, #68]	; 0x44
   82a4e:	2a00      	cmp	r2, #0
   82a50:	f43f acb6 	beq.w	823c0 <_svfprintf_r+0x1ac>
   82a54:	2300      	movs	r3, #0
   82a56:	2101      	movs	r1, #1
   82a58:	461f      	mov	r7, r3
   82a5a:	9108      	str	r1, [sp, #32]
   82a5c:	f88d 20a0 	strb.w	r2, [sp, #160]	; 0xa0
   82a60:	f8cd b01c 	str.w	fp, [sp, #28]
   82a64:	f88d 3077 	strb.w	r3, [sp, #119]	; 0x77
   82a68:	930a      	str	r3, [sp, #40]	; 0x28
   82a6a:	9312      	str	r3, [sp, #72]	; 0x48
   82a6c:	910e      	str	r1, [sp, #56]	; 0x38
   82a6e:	ae28      	add	r6, sp, #160	; 0xa0
   82a70:	e4f8      	b.n	82464 <_svfprintf_r+0x250>
   82a72:	bf00      	nop
   82a74:	00086388 	.word	0x00086388
   82a78:	7fefffff 	.word	0x7fefffff
   82a7c:	0008637c 	.word	0x0008637c
   82a80:	00086378 	.word	0x00086378
   82a84:	0008639c 	.word	0x0008639c
   82a88:	aa25      	add	r2, sp, #148	; 0x94
   82a8a:	990b      	ldr	r1, [sp, #44]	; 0x2c
   82a8c:	980c      	ldr	r0, [sp, #48]	; 0x30
   82a8e:	f002 fcdd 	bl	8544c <__ssprint_r>
   82a92:	2800      	cmp	r0, #0
   82a94:	f47f ac9b 	bne.w	823ce <_svfprintf_r+0x1ba>
   82a98:	46c8      	mov	r8, r9
   82a9a:	f89d 7077 	ldrb.w	r7, [sp, #119]	; 0x77
   82a9e:	9c27      	ldr	r4, [sp, #156]	; 0x9c
   82aa0:	e533      	b.n	8250a <_svfprintf_r+0x2f6>
   82aa2:	9b11      	ldr	r3, [sp, #68]	; 0x44
   82aa4:	2b65      	cmp	r3, #101	; 0x65
   82aa6:	f340 809a 	ble.w	82bde <_svfprintf_r+0x9ca>
   82aaa:	a815      	add	r0, sp, #84	; 0x54
   82aac:	c80d      	ldmia	r0, {r0, r2, r3}
   82aae:	9914      	ldr	r1, [sp, #80]	; 0x50
   82ab0:	f003 fa08 	bl	85ec4 <__aeabi_dcmpeq>
   82ab4:	2800      	cmp	r0, #0
   82ab6:	f000 8193 	beq.w	82de0 <_svfprintf_r+0xbcc>
   82aba:	2101      	movs	r1, #1
   82abc:	9b26      	ldr	r3, [sp, #152]	; 0x98
   82abe:	4ab5      	ldr	r2, [pc, #724]	; (82d94 <_svfprintf_r+0xb80>)
   82ac0:	440b      	add	r3, r1
   82ac2:	440c      	add	r4, r1
   82ac4:	2b07      	cmp	r3, #7
   82ac6:	9427      	str	r4, [sp, #156]	; 0x9c
   82ac8:	9326      	str	r3, [sp, #152]	; 0x98
   82aca:	f8c8 1004 	str.w	r1, [r8, #4]
   82ace:	f8c8 2000 	str.w	r2, [r8]
   82ad2:	f300 83c6 	bgt.w	83262 <_svfprintf_r+0x104e>
   82ad6:	f108 0808 	add.w	r8, r8, #8
   82ada:	9b1f      	ldr	r3, [sp, #124]	; 0x7c
   82adc:	9a13      	ldr	r2, [sp, #76]	; 0x4c
   82ade:	9c27      	ldr	r4, [sp, #156]	; 0x9c
   82ae0:	4293      	cmp	r3, r2
   82ae2:	db03      	blt.n	82aec <_svfprintf_r+0x8d8>
   82ae4:	9b07      	ldr	r3, [sp, #28]
   82ae6:	07dd      	lsls	r5, r3, #31
   82ae8:	f57f ad86 	bpl.w	825f8 <_svfprintf_r+0x3e4>
   82aec:	9b26      	ldr	r3, [sp, #152]	; 0x98
   82aee:	9919      	ldr	r1, [sp, #100]	; 0x64
   82af0:	3301      	adds	r3, #1
   82af2:	9a1a      	ldr	r2, [sp, #104]	; 0x68
   82af4:	440c      	add	r4, r1
   82af6:	2b07      	cmp	r3, #7
   82af8:	f8c8 2000 	str.w	r2, [r8]
   82afc:	f8c8 1004 	str.w	r1, [r8, #4]
   82b00:	9427      	str	r4, [sp, #156]	; 0x9c
   82b02:	9326      	str	r3, [sp, #152]	; 0x98
   82b04:	f300 83c4 	bgt.w	83290 <_svfprintf_r+0x107c>
   82b08:	f108 0808 	add.w	r8, r8, #8
   82b0c:	9b13      	ldr	r3, [sp, #76]	; 0x4c
   82b0e:	1e5e      	subs	r6, r3, #1
   82b10:	2e00      	cmp	r6, #0
   82b12:	f77f ad71 	ble.w	825f8 <_svfprintf_r+0x3e4>
   82b16:	2e10      	cmp	r6, #16
   82b18:	f340 8575 	ble.w	83606 <_svfprintf_r+0x13f2>
   82b1c:	4622      	mov	r2, r4
   82b1e:	2710      	movs	r7, #16
   82b20:	9b26      	ldr	r3, [sp, #152]	; 0x98
   82b22:	4d9d      	ldr	r5, [pc, #628]	; (82d98 <_svfprintf_r+0xb84>)
   82b24:	f8dd b030 	ldr.w	fp, [sp, #48]	; 0x30
   82b28:	9c0b      	ldr	r4, [sp, #44]	; 0x2c
   82b2a:	e005      	b.n	82b38 <_svfprintf_r+0x924>
   82b2c:	f108 0808 	add.w	r8, r8, #8
   82b30:	3e10      	subs	r6, #16
   82b32:	2e10      	cmp	r6, #16
   82b34:	f340 8225 	ble.w	82f82 <_svfprintf_r+0xd6e>
   82b38:	3301      	adds	r3, #1
   82b3a:	3210      	adds	r2, #16
   82b3c:	2b07      	cmp	r3, #7
   82b3e:	9227      	str	r2, [sp, #156]	; 0x9c
   82b40:	9326      	str	r3, [sp, #152]	; 0x98
   82b42:	e888 00a0 	stmia.w	r8, {r5, r7}
   82b46:	ddf1      	ble.n	82b2c <_svfprintf_r+0x918>
   82b48:	aa25      	add	r2, sp, #148	; 0x94
   82b4a:	4621      	mov	r1, r4
   82b4c:	4658      	mov	r0, fp
   82b4e:	f002 fc7d 	bl	8544c <__ssprint_r>
   82b52:	2800      	cmp	r0, #0
   82b54:	f47f ac3b 	bne.w	823ce <_svfprintf_r+0x1ba>
   82b58:	46c8      	mov	r8, r9
   82b5a:	9a27      	ldr	r2, [sp, #156]	; 0x9c
   82b5c:	9b26      	ldr	r3, [sp, #152]	; 0x98
   82b5e:	e7e7      	b.n	82b30 <_svfprintf_r+0x91c>
   82b60:	9b0d      	ldr	r3, [sp, #52]	; 0x34
   82b62:	9a08      	ldr	r2, [sp, #32]
   82b64:	1a9f      	subs	r7, r3, r2
   82b66:	2f00      	cmp	r7, #0
   82b68:	f77f acf6 	ble.w	82558 <_svfprintf_r+0x344>
   82b6c:	2f10      	cmp	r7, #16
   82b6e:	f340 84a8 	ble.w	834c2 <_svfprintf_r+0x12ae>
   82b72:	4d89      	ldr	r5, [pc, #548]	; (82d98 <_svfprintf_r+0xb84>)
   82b74:	4642      	mov	r2, r8
   82b76:	4621      	mov	r1, r4
   82b78:	46b0      	mov	r8, r6
   82b7a:	f04f 0b10 	mov.w	fp, #16
   82b7e:	462e      	mov	r6, r5
   82b80:	9b26      	ldr	r3, [sp, #152]	; 0x98
   82b82:	9c0c      	ldr	r4, [sp, #48]	; 0x30
   82b84:	9d0b      	ldr	r5, [sp, #44]	; 0x2c
   82b86:	e004      	b.n	82b92 <_svfprintf_r+0x97e>
   82b88:	3f10      	subs	r7, #16
   82b8a:	2f10      	cmp	r7, #16
   82b8c:	f102 0208 	add.w	r2, r2, #8
   82b90:	dd15      	ble.n	82bbe <_svfprintf_r+0x9aa>
   82b92:	3301      	adds	r3, #1
   82b94:	3110      	adds	r1, #16
   82b96:	2b07      	cmp	r3, #7
   82b98:	9127      	str	r1, [sp, #156]	; 0x9c
   82b9a:	9326      	str	r3, [sp, #152]	; 0x98
   82b9c:	e882 0840 	stmia.w	r2, {r6, fp}
   82ba0:	ddf2      	ble.n	82b88 <_svfprintf_r+0x974>
   82ba2:	aa25      	add	r2, sp, #148	; 0x94
   82ba4:	4629      	mov	r1, r5
   82ba6:	4620      	mov	r0, r4
   82ba8:	f002 fc50 	bl	8544c <__ssprint_r>
   82bac:	2800      	cmp	r0, #0
   82bae:	f47f ac0e 	bne.w	823ce <_svfprintf_r+0x1ba>
   82bb2:	3f10      	subs	r7, #16
   82bb4:	2f10      	cmp	r7, #16
   82bb6:	464a      	mov	r2, r9
   82bb8:	9927      	ldr	r1, [sp, #156]	; 0x9c
   82bba:	9b26      	ldr	r3, [sp, #152]	; 0x98
   82bbc:	dce9      	bgt.n	82b92 <_svfprintf_r+0x97e>
   82bbe:	4635      	mov	r5, r6
   82bc0:	460c      	mov	r4, r1
   82bc2:	4646      	mov	r6, r8
   82bc4:	4690      	mov	r8, r2
   82bc6:	3301      	adds	r3, #1
   82bc8:	443c      	add	r4, r7
   82bca:	2b07      	cmp	r3, #7
   82bcc:	9427      	str	r4, [sp, #156]	; 0x9c
   82bce:	9326      	str	r3, [sp, #152]	; 0x98
   82bd0:	e888 00a0 	stmia.w	r8, {r5, r7}
   82bd4:	f300 829e 	bgt.w	83114 <_svfprintf_r+0xf00>
   82bd8:	f108 0808 	add.w	r8, r8, #8
   82bdc:	e4bc      	b.n	82558 <_svfprintf_r+0x344>
   82bde:	9b13      	ldr	r3, [sp, #76]	; 0x4c
   82be0:	2b01      	cmp	r3, #1
   82be2:	f340 824f 	ble.w	83084 <_svfprintf_r+0xe70>
   82be6:	2301      	movs	r3, #1
   82be8:	9f26      	ldr	r7, [sp, #152]	; 0x98
   82bea:	441c      	add	r4, r3
   82bec:	441f      	add	r7, r3
   82bee:	2f07      	cmp	r7, #7
   82bf0:	9427      	str	r4, [sp, #156]	; 0x9c
   82bf2:	f8c8 6000 	str.w	r6, [r8]
   82bf6:	9726      	str	r7, [sp, #152]	; 0x98
   82bf8:	f8c8 3004 	str.w	r3, [r8, #4]
   82bfc:	f300 825f 	bgt.w	830be <_svfprintf_r+0xeaa>
   82c00:	f108 0808 	add.w	r8, r8, #8
   82c04:	9a19      	ldr	r2, [sp, #100]	; 0x64
   82c06:	3701      	adds	r7, #1
   82c08:	9b1a      	ldr	r3, [sp, #104]	; 0x68
   82c0a:	4414      	add	r4, r2
   82c0c:	2f07      	cmp	r7, #7
   82c0e:	9427      	str	r4, [sp, #156]	; 0x9c
   82c10:	9726      	str	r7, [sp, #152]	; 0x98
   82c12:	f8c8 3000 	str.w	r3, [r8]
   82c16:	f8c8 2004 	str.w	r2, [r8, #4]
   82c1a:	f300 825c 	bgt.w	830d6 <_svfprintf_r+0xec2>
   82c1e:	f108 0808 	add.w	r8, r8, #8
   82c22:	a815      	add	r0, sp, #84	; 0x54
   82c24:	c80d      	ldmia	r0, {r0, r2, r3}
   82c26:	9914      	ldr	r1, [sp, #80]	; 0x50
   82c28:	f003 f94c 	bl	85ec4 <__aeabi_dcmpeq>
   82c2c:	9b13      	ldr	r3, [sp, #76]	; 0x4c
   82c2e:	2800      	cmp	r0, #0
   82c30:	f040 8141 	bne.w	82eb6 <_svfprintf_r+0xca2>
   82c34:	3b01      	subs	r3, #1
   82c36:	3701      	adds	r7, #1
   82c38:	3601      	adds	r6, #1
   82c3a:	441c      	add	r4, r3
   82c3c:	2f07      	cmp	r7, #7
   82c3e:	f8c8 6000 	str.w	r6, [r8]
   82c42:	9726      	str	r7, [sp, #152]	; 0x98
   82c44:	9427      	str	r4, [sp, #156]	; 0x9c
   82c46:	f8c8 3004 	str.w	r3, [r8, #4]
   82c4a:	f300 8166 	bgt.w	82f1a <_svfprintf_r+0xd06>
   82c4e:	f108 0808 	add.w	r8, r8, #8
   82c52:	9a1b      	ldr	r2, [sp, #108]	; 0x6c
   82c54:	3701      	adds	r7, #1
   82c56:	4414      	add	r4, r2
   82c58:	ab21      	add	r3, sp, #132	; 0x84
   82c5a:	2f07      	cmp	r7, #7
   82c5c:	9427      	str	r4, [sp, #156]	; 0x9c
   82c5e:	9726      	str	r7, [sp, #152]	; 0x98
   82c60:	f8c8 2004 	str.w	r2, [r8, #4]
   82c64:	f8c8 3000 	str.w	r3, [r8]
   82c68:	f77f acc4 	ble.w	825f4 <_svfprintf_r+0x3e0>
   82c6c:	aa25      	add	r2, sp, #148	; 0x94
   82c6e:	990b      	ldr	r1, [sp, #44]	; 0x2c
   82c70:	980c      	ldr	r0, [sp, #48]	; 0x30
   82c72:	f002 fbeb 	bl	8544c <__ssprint_r>
   82c76:	2800      	cmp	r0, #0
   82c78:	f47f aba9 	bne.w	823ce <_svfprintf_r+0x1ba>
   82c7c:	46c8      	mov	r8, r9
   82c7e:	9c27      	ldr	r4, [sp, #156]	; 0x9c
   82c80:	e4ba      	b.n	825f8 <_svfprintf_r+0x3e4>
   82c82:	aa25      	add	r2, sp, #148	; 0x94
   82c84:	990b      	ldr	r1, [sp, #44]	; 0x2c
   82c86:	980c      	ldr	r0, [sp, #48]	; 0x30
   82c88:	f002 fbe0 	bl	8544c <__ssprint_r>
   82c8c:	2800      	cmp	r0, #0
   82c8e:	f43f acfd 	beq.w	8268c <_svfprintf_r+0x478>
   82c92:	f7ff bb9c 	b.w	823ce <_svfprintf_r+0x1ba>
   82c96:	f8dd b01c 	ldr.w	fp, [sp, #28]
   82c9a:	2b01      	cmp	r3, #1
   82c9c:	f000 817e 	beq.w	82f9c <_svfprintf_r+0xd88>
   82ca0:	2b02      	cmp	r3, #2
   82ca2:	d171      	bne.n	82d88 <_svfprintf_r+0xb74>
   82ca4:	f8cd b01c 	str.w	fp, [sp, #28]
   82ca8:	2400      	movs	r4, #0
   82caa:	2500      	movs	r5, #0
   82cac:	e5d4      	b.n	82858 <_svfprintf_r+0x644>
   82cae:	aa25      	add	r2, sp, #148	; 0x94
   82cb0:	990b      	ldr	r1, [sp, #44]	; 0x2c
   82cb2:	980c      	ldr	r0, [sp, #48]	; 0x30
   82cb4:	f002 fbca 	bl	8544c <__ssprint_r>
   82cb8:	2800      	cmp	r0, #0
   82cba:	f47f ab88 	bne.w	823ce <_svfprintf_r+0x1ba>
   82cbe:	46c8      	mov	r8, r9
   82cc0:	9c27      	ldr	r4, [sp, #156]	; 0x9c
   82cc2:	e486      	b.n	825d2 <_svfprintf_r+0x3be>
   82cc4:	aa25      	add	r2, sp, #148	; 0x94
   82cc6:	990b      	ldr	r1, [sp, #44]	; 0x2c
   82cc8:	980c      	ldr	r0, [sp, #48]	; 0x30
   82cca:	f002 fbbf 	bl	8544c <__ssprint_r>
   82cce:	2800      	cmp	r0, #0
   82cd0:	f47f ab7d 	bne.w	823ce <_svfprintf_r+0x1ba>
   82cd4:	46c8      	mov	r8, r9
   82cd6:	9c27      	ldr	r4, [sp, #156]	; 0x9c
   82cd8:	e429      	b.n	8252e <_svfprintf_r+0x31a>
   82cda:	2001      	movs	r0, #1
   82cdc:	9b26      	ldr	r3, [sp, #152]	; 0x98
   82cde:	4a2d      	ldr	r2, [pc, #180]	; (82d94 <_svfprintf_r+0xb80>)
   82ce0:	4403      	add	r3, r0
   82ce2:	4404      	add	r4, r0
   82ce4:	2b07      	cmp	r3, #7
   82ce6:	9427      	str	r4, [sp, #156]	; 0x9c
   82ce8:	9326      	str	r3, [sp, #152]	; 0x98
   82cea:	f8c8 0004 	str.w	r0, [r8, #4]
   82cee:	f8c8 2000 	str.w	r2, [r8]
   82cf2:	f340 82d8 	ble.w	832a6 <_svfprintf_r+0x1092>
   82cf6:	aa25      	add	r2, sp, #148	; 0x94
   82cf8:	990b      	ldr	r1, [sp, #44]	; 0x2c
   82cfa:	980c      	ldr	r0, [sp, #48]	; 0x30
   82cfc:	f002 fba6 	bl	8544c <__ssprint_r>
   82d00:	2800      	cmp	r0, #0
   82d02:	f47f ab64 	bne.w	823ce <_svfprintf_r+0x1ba>
   82d06:	46c8      	mov	r8, r9
   82d08:	991f      	ldr	r1, [sp, #124]	; 0x7c
   82d0a:	9c27      	ldr	r4, [sp, #156]	; 0x9c
   82d0c:	b929      	cbnz	r1, 82d1a <_svfprintf_r+0xb06>
   82d0e:	9b13      	ldr	r3, [sp, #76]	; 0x4c
   82d10:	b91b      	cbnz	r3, 82d1a <_svfprintf_r+0xb06>
   82d12:	9b07      	ldr	r3, [sp, #28]
   82d14:	07d8      	lsls	r0, r3, #31
   82d16:	f57f ac6f 	bpl.w	825f8 <_svfprintf_r+0x3e4>
   82d1a:	9819      	ldr	r0, [sp, #100]	; 0x64
   82d1c:	9b26      	ldr	r3, [sp, #152]	; 0x98
   82d1e:	4602      	mov	r2, r0
   82d20:	3301      	adds	r3, #1
   82d22:	4422      	add	r2, r4
   82d24:	9c1a      	ldr	r4, [sp, #104]	; 0x68
   82d26:	2b07      	cmp	r3, #7
   82d28:	9227      	str	r2, [sp, #156]	; 0x9c
   82d2a:	f8c8 4000 	str.w	r4, [r8]
   82d2e:	f8c8 0004 	str.w	r0, [r8, #4]
   82d32:	9326      	str	r3, [sp, #152]	; 0x98
   82d34:	f300 8431 	bgt.w	8359a <_svfprintf_r+0x1386>
   82d38:	f108 0808 	add.w	r8, r8, #8
   82d3c:	2900      	cmp	r1, #0
   82d3e:	f2c0 8409 	blt.w	83554 <_svfprintf_r+0x1340>
   82d42:	9913      	ldr	r1, [sp, #76]	; 0x4c
   82d44:	3301      	adds	r3, #1
   82d46:	188c      	adds	r4, r1, r2
   82d48:	2b07      	cmp	r3, #7
   82d4a:	9427      	str	r4, [sp, #156]	; 0x9c
   82d4c:	9326      	str	r3, [sp, #152]	; 0x98
   82d4e:	f8c8 6000 	str.w	r6, [r8]
   82d52:	f8c8 1004 	str.w	r1, [r8, #4]
   82d56:	f77f ac4d 	ble.w	825f4 <_svfprintf_r+0x3e0>
   82d5a:	aa25      	add	r2, sp, #148	; 0x94
   82d5c:	990b      	ldr	r1, [sp, #44]	; 0x2c
   82d5e:	980c      	ldr	r0, [sp, #48]	; 0x30
   82d60:	f002 fb74 	bl	8544c <__ssprint_r>
   82d64:	2800      	cmp	r0, #0
   82d66:	f47f ab32 	bne.w	823ce <_svfprintf_r+0x1ba>
   82d6a:	9c27      	ldr	r4, [sp, #156]	; 0x9c
   82d6c:	46c8      	mov	r8, r9
   82d6e:	e443      	b.n	825f8 <_svfprintf_r+0x3e4>
   82d70:	aa25      	add	r2, sp, #148	; 0x94
   82d72:	990b      	ldr	r1, [sp, #44]	; 0x2c
   82d74:	980c      	ldr	r0, [sp, #48]	; 0x30
   82d76:	f002 fb69 	bl	8544c <__ssprint_r>
   82d7a:	2800      	cmp	r0, #0
   82d7c:	f47f ab27 	bne.w	823ce <_svfprintf_r+0x1ba>
   82d80:	46c8      	mov	r8, r9
   82d82:	9c27      	ldr	r4, [sp, #156]	; 0x9c
   82d84:	f7ff bbe5 	b.w	82552 <_svfprintf_r+0x33e>
   82d88:	2400      	movs	r4, #0
   82d8a:	2500      	movs	r5, #0
   82d8c:	f8cd b01c 	str.w	fp, [sp, #28]
   82d90:	4649      	mov	r1, r9
   82d92:	e004      	b.n	82d9e <_svfprintf_r+0xb8a>
   82d94:	000863b8 	.word	0x000863b8
   82d98:	000863cc 	.word	0x000863cc
   82d9c:	4631      	mov	r1, r6
   82d9e:	08e2      	lsrs	r2, r4, #3
   82da0:	ea42 7245 	orr.w	r2, r2, r5, lsl #29
   82da4:	08e8      	lsrs	r0, r5, #3
   82da6:	f004 0307 	and.w	r3, r4, #7
   82daa:	4605      	mov	r5, r0
   82dac:	4614      	mov	r4, r2
   82dae:	3330      	adds	r3, #48	; 0x30
   82db0:	ea54 0205 	orrs.w	r2, r4, r5
   82db4:	f801 3c01 	strb.w	r3, [r1, #-1]
   82db8:	f101 36ff 	add.w	r6, r1, #4294967295
   82dbc:	d1ee      	bne.n	82d9c <_svfprintf_r+0xb88>
   82dbe:	9a07      	ldr	r2, [sp, #28]
   82dc0:	07d2      	lsls	r2, r2, #31
   82dc2:	f57f ad59 	bpl.w	82878 <_svfprintf_r+0x664>
   82dc6:	2b30      	cmp	r3, #48	; 0x30
   82dc8:	f43f ad56 	beq.w	82878 <_svfprintf_r+0x664>
   82dcc:	2330      	movs	r3, #48	; 0x30
   82dce:	3902      	subs	r1, #2
   82dd0:	f806 3c01 	strb.w	r3, [r6, #-1]
   82dd4:	eba9 0301 	sub.w	r3, r9, r1
   82dd8:	930e      	str	r3, [sp, #56]	; 0x38
   82dda:	460e      	mov	r6, r1
   82ddc:	f7ff bb36 	b.w	8244c <_svfprintf_r+0x238>
   82de0:	991f      	ldr	r1, [sp, #124]	; 0x7c
   82de2:	2900      	cmp	r1, #0
   82de4:	f77f af79 	ble.w	82cda <_svfprintf_r+0xac6>
   82de8:	9b12      	ldr	r3, [sp, #72]	; 0x48
   82dea:	9a13      	ldr	r2, [sp, #76]	; 0x4c
   82dec:	4293      	cmp	r3, r2
   82dee:	bfa8      	it	ge
   82df0:	4613      	movge	r3, r2
   82df2:	2b00      	cmp	r3, #0
   82df4:	461f      	mov	r7, r3
   82df6:	dd0b      	ble.n	82e10 <_svfprintf_r+0xbfc>
   82df8:	9b26      	ldr	r3, [sp, #152]	; 0x98
   82dfa:	443c      	add	r4, r7
   82dfc:	3301      	adds	r3, #1
   82dfe:	2b07      	cmp	r3, #7
   82e00:	9427      	str	r4, [sp, #156]	; 0x9c
   82e02:	e888 00c0 	stmia.w	r8, {r6, r7}
   82e06:	9326      	str	r3, [sp, #152]	; 0x98
   82e08:	f300 82fb 	bgt.w	83402 <_svfprintf_r+0x11ee>
   82e0c:	f108 0808 	add.w	r8, r8, #8
   82e10:	9b12      	ldr	r3, [sp, #72]	; 0x48
   82e12:	2f00      	cmp	r7, #0
   82e14:	bfa8      	it	ge
   82e16:	1bdb      	subge	r3, r3, r7
   82e18:	2b00      	cmp	r3, #0
   82e1a:	461f      	mov	r7, r3
   82e1c:	f340 80d7 	ble.w	82fce <_svfprintf_r+0xdba>
   82e20:	2b10      	cmp	r3, #16
   82e22:	f340 8434 	ble.w	8368e <_svfprintf_r+0x147a>
   82e26:	4dba      	ldr	r5, [pc, #744]	; (83110 <_svfprintf_r+0xefc>)
   82e28:	4642      	mov	r2, r8
   82e2a:	4621      	mov	r1, r4
   82e2c:	46b0      	mov	r8, r6
   82e2e:	f04f 0b10 	mov.w	fp, #16
   82e32:	462e      	mov	r6, r5
   82e34:	9b26      	ldr	r3, [sp, #152]	; 0x98
   82e36:	9c0c      	ldr	r4, [sp, #48]	; 0x30
   82e38:	9d0b      	ldr	r5, [sp, #44]	; 0x2c
   82e3a:	e004      	b.n	82e46 <_svfprintf_r+0xc32>
   82e3c:	3208      	adds	r2, #8
   82e3e:	3f10      	subs	r7, #16
   82e40:	2f10      	cmp	r7, #16
   82e42:	f340 80b5 	ble.w	82fb0 <_svfprintf_r+0xd9c>
   82e46:	3301      	adds	r3, #1
   82e48:	3110      	adds	r1, #16
   82e4a:	2b07      	cmp	r3, #7
   82e4c:	9127      	str	r1, [sp, #156]	; 0x9c
   82e4e:	9326      	str	r3, [sp, #152]	; 0x98
   82e50:	e882 0840 	stmia.w	r2, {r6, fp}
   82e54:	ddf2      	ble.n	82e3c <_svfprintf_r+0xc28>
   82e56:	aa25      	add	r2, sp, #148	; 0x94
   82e58:	4629      	mov	r1, r5
   82e5a:	4620      	mov	r0, r4
   82e5c:	f002 faf6 	bl	8544c <__ssprint_r>
   82e60:	2800      	cmp	r0, #0
   82e62:	f47f aab4 	bne.w	823ce <_svfprintf_r+0x1ba>
   82e66:	464a      	mov	r2, r9
   82e68:	9927      	ldr	r1, [sp, #156]	; 0x9c
   82e6a:	9b26      	ldr	r3, [sp, #152]	; 0x98
   82e6c:	e7e7      	b.n	82e3e <_svfprintf_r+0xc2a>
   82e6e:	2d00      	cmp	r5, #0
   82e70:	bf08      	it	eq
   82e72:	2c0a      	cmpeq	r4, #10
   82e74:	f0c0 8090 	bcc.w	82f98 <_svfprintf_r+0xd84>
   82e78:	464e      	mov	r6, r9
   82e7a:	4620      	mov	r0, r4
   82e7c:	4629      	mov	r1, r5
   82e7e:	220a      	movs	r2, #10
   82e80:	2300      	movs	r3, #0
   82e82:	f003 f88f 	bl	85fa4 <__aeabi_uldivmod>
   82e86:	3230      	adds	r2, #48	; 0x30
   82e88:	f806 2d01 	strb.w	r2, [r6, #-1]!
   82e8c:	4620      	mov	r0, r4
   82e8e:	4629      	mov	r1, r5
   82e90:	2300      	movs	r3, #0
   82e92:	220a      	movs	r2, #10
   82e94:	f003 f886 	bl	85fa4 <__aeabi_uldivmod>
   82e98:	4604      	mov	r4, r0
   82e9a:	460d      	mov	r5, r1
   82e9c:	ea54 0305 	orrs.w	r3, r4, r5
   82ea0:	d1eb      	bne.n	82e7a <_svfprintf_r+0xc66>
   82ea2:	eba9 0306 	sub.w	r3, r9, r6
   82ea6:	930e      	str	r3, [sp, #56]	; 0x38
   82ea8:	f7ff bad0 	b.w	8244c <_svfprintf_r+0x238>
   82eac:	9b0a      	ldr	r3, [sp, #40]	; 0x28
   82eae:	464e      	mov	r6, r9
   82eb0:	930e      	str	r3, [sp, #56]	; 0x38
   82eb2:	f7ff bacb 	b.w	8244c <_svfprintf_r+0x238>
   82eb6:	1e5e      	subs	r6, r3, #1
   82eb8:	2e00      	cmp	r6, #0
   82eba:	f77f aeca 	ble.w	82c52 <_svfprintf_r+0xa3e>
   82ebe:	2e10      	cmp	r6, #16
   82ec0:	f340 83e3 	ble.w	8368a <_svfprintf_r+0x1476>
   82ec4:	4622      	mov	r2, r4
   82ec6:	f04f 0b10 	mov.w	fp, #16
   82eca:	4d91      	ldr	r5, [pc, #580]	; (83110 <_svfprintf_r+0xefc>)
   82ecc:	9c0c      	ldr	r4, [sp, #48]	; 0x30
   82ece:	e004      	b.n	82eda <_svfprintf_r+0xcc6>
   82ed0:	3e10      	subs	r6, #16
   82ed2:	2e10      	cmp	r6, #16
   82ed4:	f108 0808 	add.w	r8, r8, #8
   82ed8:	dd15      	ble.n	82f06 <_svfprintf_r+0xcf2>
   82eda:	3701      	adds	r7, #1
   82edc:	3210      	adds	r2, #16
   82ede:	2f07      	cmp	r7, #7
   82ee0:	9227      	str	r2, [sp, #156]	; 0x9c
   82ee2:	9726      	str	r7, [sp, #152]	; 0x98
   82ee4:	e888 0820 	stmia.w	r8, {r5, fp}
   82ee8:	ddf2      	ble.n	82ed0 <_svfprintf_r+0xcbc>
   82eea:	aa25      	add	r2, sp, #148	; 0x94
   82eec:	990b      	ldr	r1, [sp, #44]	; 0x2c
   82eee:	4620      	mov	r0, r4
   82ef0:	f002 faac 	bl	8544c <__ssprint_r>
   82ef4:	2800      	cmp	r0, #0
   82ef6:	f47f aa6a 	bne.w	823ce <_svfprintf_r+0x1ba>
   82efa:	3e10      	subs	r6, #16
   82efc:	2e10      	cmp	r6, #16
   82efe:	46c8      	mov	r8, r9
   82f00:	9a27      	ldr	r2, [sp, #156]	; 0x9c
   82f02:	9f26      	ldr	r7, [sp, #152]	; 0x98
   82f04:	dce9      	bgt.n	82eda <_svfprintf_r+0xcc6>
   82f06:	4614      	mov	r4, r2
   82f08:	3701      	adds	r7, #1
   82f0a:	4434      	add	r4, r6
   82f0c:	2f07      	cmp	r7, #7
   82f0e:	9427      	str	r4, [sp, #156]	; 0x9c
   82f10:	9726      	str	r7, [sp, #152]	; 0x98
   82f12:	e888 0060 	stmia.w	r8, {r5, r6}
   82f16:	f77f ae9a 	ble.w	82c4e <_svfprintf_r+0xa3a>
   82f1a:	aa25      	add	r2, sp, #148	; 0x94
   82f1c:	990b      	ldr	r1, [sp, #44]	; 0x2c
   82f1e:	980c      	ldr	r0, [sp, #48]	; 0x30
   82f20:	f002 fa94 	bl	8544c <__ssprint_r>
   82f24:	2800      	cmp	r0, #0
   82f26:	f47f aa52 	bne.w	823ce <_svfprintf_r+0x1ba>
   82f2a:	9c27      	ldr	r4, [sp, #156]	; 0x9c
   82f2c:	9f26      	ldr	r7, [sp, #152]	; 0x98
   82f2e:	46c8      	mov	r8, r9
   82f30:	e68f      	b.n	82c52 <_svfprintf_r+0xa3e>
   82f32:	3204      	adds	r2, #4
   82f34:	681c      	ldr	r4, [r3, #0]
   82f36:	2500      	movs	r5, #0
   82f38:	2301      	movs	r3, #1
   82f3a:	920f      	str	r2, [sp, #60]	; 0x3c
   82f3c:	f7ff ba68 	b.w	82410 <_svfprintf_r+0x1fc>
   82f40:	681c      	ldr	r4, [r3, #0]
   82f42:	3304      	adds	r3, #4
   82f44:	930f      	str	r3, [sp, #60]	; 0x3c
   82f46:	2500      	movs	r5, #0
   82f48:	e42a      	b.n	827a0 <_svfprintf_r+0x58c>
   82f4a:	681c      	ldr	r4, [r3, #0]
   82f4c:	3304      	adds	r3, #4
   82f4e:	17e5      	asrs	r5, r4, #31
   82f50:	4622      	mov	r2, r4
   82f52:	930f      	str	r3, [sp, #60]	; 0x3c
   82f54:	462b      	mov	r3, r5
   82f56:	2a00      	cmp	r2, #0
   82f58:	f173 0300 	sbcs.w	r3, r3, #0
   82f5c:	f6bf ac68 	bge.w	82830 <_svfprintf_r+0x61c>
   82f60:	272d      	movs	r7, #45	; 0x2d
   82f62:	4264      	negs	r4, r4
   82f64:	eb65 0545 	sbc.w	r5, r5, r5, lsl #1
   82f68:	f88d 7077 	strb.w	r7, [sp, #119]	; 0x77
   82f6c:	2301      	movs	r3, #1
   82f6e:	f7ff ba53 	b.w	82418 <_svfprintf_r+0x204>
   82f72:	990f      	ldr	r1, [sp, #60]	; 0x3c
   82f74:	2500      	movs	r5, #0
   82f76:	460a      	mov	r2, r1
   82f78:	3204      	adds	r2, #4
   82f7a:	680c      	ldr	r4, [r1, #0]
   82f7c:	920f      	str	r2, [sp, #60]	; 0x3c
   82f7e:	f7ff ba47 	b.w	82410 <_svfprintf_r+0x1fc>
   82f82:	4614      	mov	r4, r2
   82f84:	3301      	adds	r3, #1
   82f86:	4434      	add	r4, r6
   82f88:	2b07      	cmp	r3, #7
   82f8a:	9427      	str	r4, [sp, #156]	; 0x9c
   82f8c:	9326      	str	r3, [sp, #152]	; 0x98
   82f8e:	e888 0060 	stmia.w	r8, {r5, r6}
   82f92:	f77f ab2f 	ble.w	825f4 <_svfprintf_r+0x3e0>
   82f96:	e6e0      	b.n	82d5a <_svfprintf_r+0xb46>
   82f98:	f8dd b01c 	ldr.w	fp, [sp, #28]
   82f9c:	2301      	movs	r3, #1
   82f9e:	ae42      	add	r6, sp, #264	; 0x108
   82fa0:	3430      	adds	r4, #48	; 0x30
   82fa2:	f8cd b01c 	str.w	fp, [sp, #28]
   82fa6:	f806 4d41 	strb.w	r4, [r6, #-65]!
   82faa:	930e      	str	r3, [sp, #56]	; 0x38
   82fac:	f7ff ba4e 	b.w	8244c <_svfprintf_r+0x238>
   82fb0:	4635      	mov	r5, r6
   82fb2:	460c      	mov	r4, r1
   82fb4:	4646      	mov	r6, r8
   82fb6:	4690      	mov	r8, r2
   82fb8:	3301      	adds	r3, #1
   82fba:	443c      	add	r4, r7
   82fbc:	2b07      	cmp	r3, #7
   82fbe:	9427      	str	r4, [sp, #156]	; 0x9c
   82fc0:	9326      	str	r3, [sp, #152]	; 0x98
   82fc2:	e888 00a0 	stmia.w	r8, {r5, r7}
   82fc6:	f300 8246 	bgt.w	83456 <_svfprintf_r+0x1242>
   82fca:	f108 0808 	add.w	r8, r8, #8
   82fce:	9a1f      	ldr	r2, [sp, #124]	; 0x7c
   82fd0:	9b13      	ldr	r3, [sp, #76]	; 0x4c
   82fd2:	429a      	cmp	r2, r3
   82fd4:	db45      	blt.n	83062 <_svfprintf_r+0xe4e>
   82fd6:	9b07      	ldr	r3, [sp, #28]
   82fd8:	07d9      	lsls	r1, r3, #31
   82fda:	d442      	bmi.n	83062 <_svfprintf_r+0xe4e>
   82fdc:	9b13      	ldr	r3, [sp, #76]	; 0x4c
   82fde:	9812      	ldr	r0, [sp, #72]	; 0x48
   82fe0:	1a9a      	subs	r2, r3, r2
   82fe2:	1a1d      	subs	r5, r3, r0
   82fe4:	4295      	cmp	r5, r2
   82fe6:	bfa8      	it	ge
   82fe8:	4615      	movge	r5, r2
   82fea:	2d00      	cmp	r5, #0
   82fec:	dd0e      	ble.n	8300c <_svfprintf_r+0xdf8>
   82fee:	9926      	ldr	r1, [sp, #152]	; 0x98
   82ff0:	4406      	add	r6, r0
   82ff2:	3101      	adds	r1, #1
   82ff4:	442c      	add	r4, r5
   82ff6:	2907      	cmp	r1, #7
   82ff8:	f8c8 6000 	str.w	r6, [r8]
   82ffc:	9427      	str	r4, [sp, #156]	; 0x9c
   82ffe:	f8c8 5004 	str.w	r5, [r8, #4]
   83002:	9126      	str	r1, [sp, #152]	; 0x98
   83004:	f300 8216 	bgt.w	83434 <_svfprintf_r+0x1220>
   83008:	f108 0808 	add.w	r8, r8, #8
   8300c:	2d00      	cmp	r5, #0
   8300e:	bfb4      	ite	lt
   83010:	4616      	movlt	r6, r2
   83012:	1b56      	subge	r6, r2, r5
   83014:	2e00      	cmp	r6, #0
   83016:	f77f aaef 	ble.w	825f8 <_svfprintf_r+0x3e4>
   8301a:	2e10      	cmp	r6, #16
   8301c:	f340 82f3 	ble.w	83606 <_svfprintf_r+0x13f2>
   83020:	4622      	mov	r2, r4
   83022:	2710      	movs	r7, #16
   83024:	9b26      	ldr	r3, [sp, #152]	; 0x98
   83026:	4d3a      	ldr	r5, [pc, #232]	; (83110 <_svfprintf_r+0xefc>)
   83028:	f8dd b030 	ldr.w	fp, [sp, #48]	; 0x30
   8302c:	9c0b      	ldr	r4, [sp, #44]	; 0x2c
   8302e:	e004      	b.n	8303a <_svfprintf_r+0xe26>
   83030:	f108 0808 	add.w	r8, r8, #8
   83034:	3e10      	subs	r6, #16
   83036:	2e10      	cmp	r6, #16
   83038:	dda3      	ble.n	82f82 <_svfprintf_r+0xd6e>
   8303a:	3301      	adds	r3, #1
   8303c:	3210      	adds	r2, #16
   8303e:	2b07      	cmp	r3, #7
   83040:	9227      	str	r2, [sp, #156]	; 0x9c
   83042:	9326      	str	r3, [sp, #152]	; 0x98
   83044:	e888 00a0 	stmia.w	r8, {r5, r7}
   83048:	ddf2      	ble.n	83030 <_svfprintf_r+0xe1c>
   8304a:	aa25      	add	r2, sp, #148	; 0x94
   8304c:	4621      	mov	r1, r4
   8304e:	4658      	mov	r0, fp
   83050:	f002 f9fc 	bl	8544c <__ssprint_r>
   83054:	2800      	cmp	r0, #0
   83056:	f47f a9ba 	bne.w	823ce <_svfprintf_r+0x1ba>
   8305a:	46c8      	mov	r8, r9
   8305c:	9a27      	ldr	r2, [sp, #156]	; 0x9c
   8305e:	9b26      	ldr	r3, [sp, #152]	; 0x98
   83060:	e7e8      	b.n	83034 <_svfprintf_r+0xe20>
   83062:	9b26      	ldr	r3, [sp, #152]	; 0x98
   83064:	9819      	ldr	r0, [sp, #100]	; 0x64
   83066:	3301      	adds	r3, #1
   83068:	991a      	ldr	r1, [sp, #104]	; 0x68
   8306a:	4404      	add	r4, r0
   8306c:	2b07      	cmp	r3, #7
   8306e:	9427      	str	r4, [sp, #156]	; 0x9c
   83070:	f8c8 1000 	str.w	r1, [r8]
   83074:	f8c8 0004 	str.w	r0, [r8, #4]
   83078:	9326      	str	r3, [sp, #152]	; 0x98
   8307a:	f300 81cf 	bgt.w	8341c <_svfprintf_r+0x1208>
   8307e:	f108 0808 	add.w	r8, r8, #8
   83082:	e7ab      	b.n	82fdc <_svfprintf_r+0xdc8>
   83084:	9b07      	ldr	r3, [sp, #28]
   83086:	07da      	lsls	r2, r3, #31
   83088:	f53f adad 	bmi.w	82be6 <_svfprintf_r+0x9d2>
   8308c:	2301      	movs	r3, #1
   8308e:	9f26      	ldr	r7, [sp, #152]	; 0x98
   83090:	441c      	add	r4, r3
   83092:	441f      	add	r7, r3
   83094:	2f07      	cmp	r7, #7
   83096:	9427      	str	r4, [sp, #156]	; 0x9c
   83098:	f8c8 6000 	str.w	r6, [r8]
   8309c:	9726      	str	r7, [sp, #152]	; 0x98
   8309e:	f8c8 3004 	str.w	r3, [r8, #4]
   830a2:	f77f add4 	ble.w	82c4e <_svfprintf_r+0xa3a>
   830a6:	aa25      	add	r2, sp, #148	; 0x94
   830a8:	990b      	ldr	r1, [sp, #44]	; 0x2c
   830aa:	980c      	ldr	r0, [sp, #48]	; 0x30
   830ac:	f002 f9ce 	bl	8544c <__ssprint_r>
   830b0:	2800      	cmp	r0, #0
   830b2:	f47f a98c 	bne.w	823ce <_svfprintf_r+0x1ba>
   830b6:	46c8      	mov	r8, r9
   830b8:	9c27      	ldr	r4, [sp, #156]	; 0x9c
   830ba:	9f26      	ldr	r7, [sp, #152]	; 0x98
   830bc:	e5c9      	b.n	82c52 <_svfprintf_r+0xa3e>
   830be:	aa25      	add	r2, sp, #148	; 0x94
   830c0:	990b      	ldr	r1, [sp, #44]	; 0x2c
   830c2:	980c      	ldr	r0, [sp, #48]	; 0x30
   830c4:	f002 f9c2 	bl	8544c <__ssprint_r>
   830c8:	2800      	cmp	r0, #0
   830ca:	f47f a980 	bne.w	823ce <_svfprintf_r+0x1ba>
   830ce:	46c8      	mov	r8, r9
   830d0:	9c27      	ldr	r4, [sp, #156]	; 0x9c
   830d2:	9f26      	ldr	r7, [sp, #152]	; 0x98
   830d4:	e596      	b.n	82c04 <_svfprintf_r+0x9f0>
   830d6:	aa25      	add	r2, sp, #148	; 0x94
   830d8:	990b      	ldr	r1, [sp, #44]	; 0x2c
   830da:	980c      	ldr	r0, [sp, #48]	; 0x30
   830dc:	f002 f9b6 	bl	8544c <__ssprint_r>
   830e0:	2800      	cmp	r0, #0
   830e2:	f47f a974 	bne.w	823ce <_svfprintf_r+0x1ba>
   830e6:	46c8      	mov	r8, r9
   830e8:	9c27      	ldr	r4, [sp, #156]	; 0x9c
   830ea:	9f26      	ldr	r7, [sp, #152]	; 0x98
   830ec:	e599      	b.n	82c22 <_svfprintf_r+0xa0e>
   830ee:	9c0f      	ldr	r4, [sp, #60]	; 0x3c
   830f0:	3407      	adds	r4, #7
   830f2:	f024 0407 	bic.w	r4, r4, #7
   830f6:	f104 0108 	add.w	r1, r4, #8
   830fa:	e9d4 2300 	ldrd	r2, r3, [r4]
   830fe:	910f      	str	r1, [sp, #60]	; 0x3c
   83100:	4614      	mov	r4, r2
   83102:	461d      	mov	r5, r3
   83104:	f7ff bb8f 	b.w	82826 <_svfprintf_r+0x612>
   83108:	464e      	mov	r6, r9
   8310a:	f7ff b99f 	b.w	8244c <_svfprintf_r+0x238>
   8310e:	bf00      	nop
   83110:	000863cc 	.word	0x000863cc
   83114:	aa25      	add	r2, sp, #148	; 0x94
   83116:	990b      	ldr	r1, [sp, #44]	; 0x2c
   83118:	980c      	ldr	r0, [sp, #48]	; 0x30
   8311a:	f002 f997 	bl	8544c <__ssprint_r>
   8311e:	2800      	cmp	r0, #0
   83120:	f47f a955 	bne.w	823ce <_svfprintf_r+0x1ba>
   83124:	46c8      	mov	r8, r9
   83126:	9c27      	ldr	r4, [sp, #156]	; 0x9c
   83128:	f7ff ba16 	b.w	82558 <_svfprintf_r+0x344>
   8312c:	9c15      	ldr	r4, [sp, #84]	; 0x54
   8312e:	4622      	mov	r2, r4
   83130:	4620      	mov	r0, r4
   83132:	9c14      	ldr	r4, [sp, #80]	; 0x50
   83134:	4623      	mov	r3, r4
   83136:	4621      	mov	r1, r4
   83138:	f002 fef6 	bl	85f28 <__aeabi_dcmpun>
   8313c:	2800      	cmp	r0, #0
   8313e:	f040 8273 	bne.w	83628 <_svfprintf_r+0x1414>
   83142:	9b0a      	ldr	r3, [sp, #40]	; 0x28
   83144:	3301      	adds	r3, #1
   83146:	9b11      	ldr	r3, [sp, #68]	; 0x44
   83148:	f023 0320 	bic.w	r3, r3, #32
   8314c:	930e      	str	r3, [sp, #56]	; 0x38
   8314e:	f000 819c 	beq.w	8348a <_svfprintf_r+0x1276>
   83152:	2b47      	cmp	r3, #71	; 0x47
   83154:	f000 80d6 	beq.w	83304 <_svfprintf_r+0x10f0>
   83158:	f44b 7380 	orr.w	r3, fp, #256	; 0x100
   8315c:	9307      	str	r3, [sp, #28]
   8315e:	9b14      	ldr	r3, [sp, #80]	; 0x50
   83160:	1e1f      	subs	r7, r3, #0
   83162:	9b15      	ldr	r3, [sp, #84]	; 0x54
   83164:	9308      	str	r3, [sp, #32]
   83166:	bfb7      	itett	lt
   83168:	463b      	movlt	r3, r7
   8316a:	2300      	movge	r3, #0
   8316c:	f103 4700 	addlt.w	r7, r3, #2147483648	; 0x80000000
   83170:	232d      	movlt	r3, #45	; 0x2d
   83172:	9310      	str	r3, [sp, #64]	; 0x40
   83174:	9b11      	ldr	r3, [sp, #68]	; 0x44
   83176:	2b66      	cmp	r3, #102	; 0x66
   83178:	f000 8190 	beq.w	8349c <_svfprintf_r+0x1288>
   8317c:	2b46      	cmp	r3, #70	; 0x46
   8317e:	f000 80a4 	beq.w	832ca <_svfprintf_r+0x10b6>
   83182:	2002      	movs	r0, #2
   83184:	9b0e      	ldr	r3, [sp, #56]	; 0x38
   83186:	a923      	add	r1, sp, #140	; 0x8c
   83188:	2b45      	cmp	r3, #69	; 0x45
   8318a:	bf0a      	itet	eq
   8318c:	9b0a      	ldreq	r3, [sp, #40]	; 0x28
   8318e:	9d0a      	ldrne	r5, [sp, #40]	; 0x28
   83190:	1c5d      	addeq	r5, r3, #1
   83192:	e88d 0021 	stmia.w	sp, {r0, r5}
   83196:	9104      	str	r1, [sp, #16]
   83198:	a820      	add	r0, sp, #128	; 0x80
   8319a:	a91f      	add	r1, sp, #124	; 0x7c
   8319c:	463b      	mov	r3, r7
   8319e:	9003      	str	r0, [sp, #12]
   831a0:	9a08      	ldr	r2, [sp, #32]
   831a2:	9102      	str	r1, [sp, #8]
   831a4:	980c      	ldr	r0, [sp, #48]	; 0x30
   831a6:	f000 fb5b 	bl	83860 <_dtoa_r>
   831aa:	9b11      	ldr	r3, [sp, #68]	; 0x44
   831ac:	4606      	mov	r6, r0
   831ae:	2b67      	cmp	r3, #103	; 0x67
   831b0:	f040 81ba 	bne.w	83528 <_svfprintf_r+0x1314>
   831b4:	f01b 0f01 	tst.w	fp, #1
   831b8:	f000 8223 	beq.w	83602 <_svfprintf_r+0x13ee>
   831bc:	1974      	adds	r4, r6, r5
   831be:	9a16      	ldr	r2, [sp, #88]	; 0x58
   831c0:	9808      	ldr	r0, [sp, #32]
   831c2:	9b17      	ldr	r3, [sp, #92]	; 0x5c
   831c4:	4639      	mov	r1, r7
   831c6:	f002 fe7d 	bl	85ec4 <__aeabi_dcmpeq>
   831ca:	2800      	cmp	r0, #0
   831cc:	f040 8124 	bne.w	83418 <_svfprintf_r+0x1204>
   831d0:	9b23      	ldr	r3, [sp, #140]	; 0x8c
   831d2:	42a3      	cmp	r3, r4
   831d4:	d206      	bcs.n	831e4 <_svfprintf_r+0xfd0>
   831d6:	2130      	movs	r1, #48	; 0x30
   831d8:	1c5a      	adds	r2, r3, #1
   831da:	9223      	str	r2, [sp, #140]	; 0x8c
   831dc:	7019      	strb	r1, [r3, #0]
   831de:	9b23      	ldr	r3, [sp, #140]	; 0x8c
   831e0:	429c      	cmp	r4, r3
   831e2:	d8f9      	bhi.n	831d8 <_svfprintf_r+0xfc4>
   831e4:	1b9b      	subs	r3, r3, r6
   831e6:	9313      	str	r3, [sp, #76]	; 0x4c
   831e8:	9b0e      	ldr	r3, [sp, #56]	; 0x38
   831ea:	2b47      	cmp	r3, #71	; 0x47
   831ec:	f000 80a2 	beq.w	83334 <_svfprintf_r+0x1120>
   831f0:	9b11      	ldr	r3, [sp, #68]	; 0x44
   831f2:	2b65      	cmp	r3, #101	; 0x65
   831f4:	f340 81a7 	ble.w	83546 <_svfprintf_r+0x1332>
   831f8:	9b11      	ldr	r3, [sp, #68]	; 0x44
   831fa:	2b66      	cmp	r3, #102	; 0x66
   831fc:	9b1f      	ldr	r3, [sp, #124]	; 0x7c
   831fe:	9312      	str	r3, [sp, #72]	; 0x48
   83200:	f000 8171 	beq.w	834e6 <_svfprintf_r+0x12d2>
   83204:	9b13      	ldr	r3, [sp, #76]	; 0x4c
   83206:	9a12      	ldr	r2, [sp, #72]	; 0x48
   83208:	4619      	mov	r1, r3
   8320a:	4291      	cmp	r1, r2
   8320c:	f300 815d 	bgt.w	834ca <_svfprintf_r+0x12b6>
   83210:	f01b 0f01 	tst.w	fp, #1
   83214:	f040 81f0 	bne.w	835f8 <_svfprintf_r+0x13e4>
   83218:	ea22 73e2 	bic.w	r3, r2, r2, asr #31
   8321c:	9308      	str	r3, [sp, #32]
   8321e:	2367      	movs	r3, #103	; 0x67
   83220:	920e      	str	r2, [sp, #56]	; 0x38
   83222:	9311      	str	r3, [sp, #68]	; 0x44
   83224:	9b10      	ldr	r3, [sp, #64]	; 0x40
   83226:	2b00      	cmp	r3, #0
   83228:	d17d      	bne.n	83326 <_svfprintf_r+0x1112>
   8322a:	930a      	str	r3, [sp, #40]	; 0x28
   8322c:	f89d 7077 	ldrb.w	r7, [sp, #119]	; 0x77
   83230:	f7ff b914 	b.w	8245c <_svfprintf_r+0x248>
   83234:	f024 0407 	bic.w	r4, r4, #7
   83238:	6823      	ldr	r3, [r4, #0]
   8323a:	9315      	str	r3, [sp, #84]	; 0x54
   8323c:	6863      	ldr	r3, [r4, #4]
   8323e:	9314      	str	r3, [sp, #80]	; 0x50
   83240:	f104 0308 	add.w	r3, r4, #8
   83244:	930f      	str	r3, [sp, #60]	; 0x3c
   83246:	f7ff bb2f 	b.w	828a8 <_svfprintf_r+0x694>
   8324a:	9a0f      	ldr	r2, [sp, #60]	; 0x3c
   8324c:	6813      	ldr	r3, [r2, #0]
   8324e:	3204      	adds	r2, #4
   83250:	920f      	str	r2, [sp, #60]	; 0x3c
   83252:	9a09      	ldr	r2, [sp, #36]	; 0x24
   83254:	601a      	str	r2, [r3, #0]
   83256:	f7ff b804 	b.w	82262 <_svfprintf_r+0x4e>
   8325a:	9b26      	ldr	r3, [sp, #152]	; 0x98
   8325c:	4daf      	ldr	r5, [pc, #700]	; (8351c <_svfprintf_r+0x1308>)
   8325e:	f7ff b9ad 	b.w	825bc <_svfprintf_r+0x3a8>
   83262:	aa25      	add	r2, sp, #148	; 0x94
   83264:	990b      	ldr	r1, [sp, #44]	; 0x2c
   83266:	980c      	ldr	r0, [sp, #48]	; 0x30
   83268:	f002 f8f0 	bl	8544c <__ssprint_r>
   8326c:	2800      	cmp	r0, #0
   8326e:	f47f a8ae 	bne.w	823ce <_svfprintf_r+0x1ba>
   83272:	46c8      	mov	r8, r9
   83274:	e431      	b.n	82ada <_svfprintf_r+0x8c6>
   83276:	9a0f      	ldr	r2, [sp, #60]	; 0x3c
   83278:	4613      	mov	r3, r2
   8327a:	3304      	adds	r3, #4
   8327c:	930f      	str	r3, [sp, #60]	; 0x3c
   8327e:	9b09      	ldr	r3, [sp, #36]	; 0x24
   83280:	6811      	ldr	r1, [r2, #0]
   83282:	17dd      	asrs	r5, r3, #31
   83284:	461a      	mov	r2, r3
   83286:	462b      	mov	r3, r5
   83288:	e9c1 2300 	strd	r2, r3, [r1]
   8328c:	f7fe bfe9 	b.w	82262 <_svfprintf_r+0x4e>
   83290:	aa25      	add	r2, sp, #148	; 0x94
   83292:	990b      	ldr	r1, [sp, #44]	; 0x2c
   83294:	980c      	ldr	r0, [sp, #48]	; 0x30
   83296:	f002 f8d9 	bl	8544c <__ssprint_r>
   8329a:	2800      	cmp	r0, #0
   8329c:	f47f a897 	bne.w	823ce <_svfprintf_r+0x1ba>
   832a0:	46c8      	mov	r8, r9
   832a2:	9c27      	ldr	r4, [sp, #156]	; 0x9c
   832a4:	e432      	b.n	82b0c <_svfprintf_r+0x8f8>
   832a6:	f108 0808 	add.w	r8, r8, #8
   832aa:	e52f      	b.n	82d0c <_svfprintf_r+0xaf8>
   832ac:	2140      	movs	r1, #64	; 0x40
   832ae:	980c      	ldr	r0, [sp, #48]	; 0x30
   832b0:	f7fe fbd8 	bl	81a64 <_malloc_r>
   832b4:	9a0b      	ldr	r2, [sp, #44]	; 0x2c
   832b6:	6010      	str	r0, [r2, #0]
   832b8:	6110      	str	r0, [r2, #16]
   832ba:	2800      	cmp	r0, #0
   832bc:	f000 8214 	beq.w	836e8 <_svfprintf_r+0x14d4>
   832c0:	2340      	movs	r3, #64	; 0x40
   832c2:	9a0b      	ldr	r2, [sp, #44]	; 0x2c
   832c4:	6153      	str	r3, [r2, #20]
   832c6:	f7fe bfbc 	b.w	82242 <_svfprintf_r+0x2e>
   832ca:	2003      	movs	r0, #3
   832cc:	9c0a      	ldr	r4, [sp, #40]	; 0x28
   832ce:	a923      	add	r1, sp, #140	; 0x8c
   832d0:	e88d 0011 	stmia.w	sp, {r0, r4}
   832d4:	9104      	str	r1, [sp, #16]
   832d6:	a820      	add	r0, sp, #128	; 0x80
   832d8:	a91f      	add	r1, sp, #124	; 0x7c
   832da:	9003      	str	r0, [sp, #12]
   832dc:	9a08      	ldr	r2, [sp, #32]
   832de:	463b      	mov	r3, r7
   832e0:	9102      	str	r1, [sp, #8]
   832e2:	980c      	ldr	r0, [sp, #48]	; 0x30
   832e4:	f000 fabc 	bl	83860 <_dtoa_r>
   832e8:	4625      	mov	r5, r4
   832ea:	4606      	mov	r6, r0
   832ec:	9b11      	ldr	r3, [sp, #68]	; 0x44
   832ee:	1974      	adds	r4, r6, r5
   832f0:	2b46      	cmp	r3, #70	; 0x46
   832f2:	f47f af64 	bne.w	831be <_svfprintf_r+0xfaa>
   832f6:	7833      	ldrb	r3, [r6, #0]
   832f8:	2b30      	cmp	r3, #48	; 0x30
   832fa:	f000 8187 	beq.w	8360c <_svfprintf_r+0x13f8>
   832fe:	9d1f      	ldr	r5, [sp, #124]	; 0x7c
   83300:	442c      	add	r4, r5
   83302:	e75c      	b.n	831be <_svfprintf_r+0xfaa>
   83304:	9b0a      	ldr	r3, [sp, #40]	; 0x28
   83306:	2b00      	cmp	r3, #0
   83308:	bf08      	it	eq
   8330a:	2301      	moveq	r3, #1
   8330c:	930a      	str	r3, [sp, #40]	; 0x28
   8330e:	e723      	b.n	83158 <_svfprintf_r+0xf44>
   83310:	4630      	mov	r0, r6
   83312:	950a      	str	r5, [sp, #40]	; 0x28
   83314:	f7fe ff50 	bl	821b8 <strlen>
   83318:	940f      	str	r4, [sp, #60]	; 0x3c
   8331a:	900e      	str	r0, [sp, #56]	; 0x38
   8331c:	f8cd b01c 	str.w	fp, [sp, #28]
   83320:	4603      	mov	r3, r0
   83322:	f7ff b9e7 	b.w	826f4 <_svfprintf_r+0x4e0>
   83326:	272d      	movs	r7, #45	; 0x2d
   83328:	2300      	movs	r3, #0
   8332a:	f88d 7077 	strb.w	r7, [sp, #119]	; 0x77
   8332e:	930a      	str	r3, [sp, #40]	; 0x28
   83330:	f7ff b895 	b.w	8245e <_svfprintf_r+0x24a>
   83334:	9b1f      	ldr	r3, [sp, #124]	; 0x7c
   83336:	461a      	mov	r2, r3
   83338:	9312      	str	r3, [sp, #72]	; 0x48
   8333a:	3303      	adds	r3, #3
   8333c:	db04      	blt.n	83348 <_svfprintf_r+0x1134>
   8333e:	9b0a      	ldr	r3, [sp, #40]	; 0x28
   83340:	4619      	mov	r1, r3
   83342:	4291      	cmp	r1, r2
   83344:	f6bf af5e 	bge.w	83204 <_svfprintf_r+0xff0>
   83348:	9b11      	ldr	r3, [sp, #68]	; 0x44
   8334a:	3b02      	subs	r3, #2
   8334c:	9311      	str	r3, [sp, #68]	; 0x44
   8334e:	9b12      	ldr	r3, [sp, #72]	; 0x48
   83350:	f89d 2044 	ldrb.w	r2, [sp, #68]	; 0x44
   83354:	3b01      	subs	r3, #1
   83356:	2b00      	cmp	r3, #0
   83358:	f88d 2084 	strb.w	r2, [sp, #132]	; 0x84
   8335c:	bfb4      	ite	lt
   8335e:	222d      	movlt	r2, #45	; 0x2d
   83360:	222b      	movge	r2, #43	; 0x2b
   83362:	931f      	str	r3, [sp, #124]	; 0x7c
   83364:	bfb8      	it	lt
   83366:	9b12      	ldrlt	r3, [sp, #72]	; 0x48
   83368:	f88d 2085 	strb.w	r2, [sp, #133]	; 0x85
   8336c:	bfb8      	it	lt
   8336e:	f1c3 0301 	rsblt	r3, r3, #1
   83372:	2b09      	cmp	r3, #9
   83374:	f340 811f 	ble.w	835b6 <_svfprintf_r+0x13a2>
   83378:	f10d 0093 	add.w	r0, sp, #147	; 0x93
   8337c:	4601      	mov	r1, r0
   8337e:	4c68      	ldr	r4, [pc, #416]	; (83520 <_svfprintf_r+0x130c>)
   83380:	e000      	b.n	83384 <_svfprintf_r+0x1170>
   83382:	4611      	mov	r1, r2
   83384:	fb84 5203 	smull	r5, r2, r4, r3
   83388:	17dd      	asrs	r5, r3, #31
   8338a:	ebc5 05a2 	rsb	r5, r5, r2, asr #2
   8338e:	eb05 0285 	add.w	r2, r5, r5, lsl #2
   83392:	eba3 0242 	sub.w	r2, r3, r2, lsl #1
   83396:	3230      	adds	r2, #48	; 0x30
   83398:	2d09      	cmp	r5, #9
   8339a:	f801 2c01 	strb.w	r2, [r1, #-1]
   8339e:	462b      	mov	r3, r5
   833a0:	f101 32ff 	add.w	r2, r1, #4294967295
   833a4:	dced      	bgt.n	83382 <_svfprintf_r+0x116e>
   833a6:	3330      	adds	r3, #48	; 0x30
   833a8:	3902      	subs	r1, #2
   833aa:	b2dc      	uxtb	r4, r3
   833ac:	4288      	cmp	r0, r1
   833ae:	f802 4c01 	strb.w	r4, [r2, #-1]
   833b2:	f240 8192 	bls.w	836da <_svfprintf_r+0x14c6>
   833b6:	f10d 0186 	add.w	r1, sp, #134	; 0x86
   833ba:	4613      	mov	r3, r2
   833bc:	e001      	b.n	833c2 <_svfprintf_r+0x11ae>
   833be:	f813 4b01 	ldrb.w	r4, [r3], #1
   833c2:	4283      	cmp	r3, r0
   833c4:	f801 4b01 	strb.w	r4, [r1], #1
   833c8:	d1f9      	bne.n	833be <_svfprintf_r+0x11aa>
   833ca:	3301      	adds	r3, #1
   833cc:	1a9b      	subs	r3, r3, r2
   833ce:	f10d 0286 	add.w	r2, sp, #134	; 0x86
   833d2:	4413      	add	r3, r2
   833d4:	aa21      	add	r2, sp, #132	; 0x84
   833d6:	1a9b      	subs	r3, r3, r2
   833d8:	9a13      	ldr	r2, [sp, #76]	; 0x4c
   833da:	931b      	str	r3, [sp, #108]	; 0x6c
   833dc:	2a01      	cmp	r2, #1
   833de:	4413      	add	r3, r2
   833e0:	930e      	str	r3, [sp, #56]	; 0x38
   833e2:	f340 8148 	ble.w	83676 <_svfprintf_r+0x1462>
   833e6:	9b0e      	ldr	r3, [sp, #56]	; 0x38
   833e8:	9a19      	ldr	r2, [sp, #100]	; 0x64
   833ea:	4413      	add	r3, r2
   833ec:	930e      	str	r3, [sp, #56]	; 0x38
   833ee:	ea23 73e3 	bic.w	r3, r3, r3, asr #31
   833f2:	9308      	str	r3, [sp, #32]
   833f4:	2300      	movs	r3, #0
   833f6:	9312      	str	r3, [sp, #72]	; 0x48
   833f8:	e714      	b.n	83224 <_svfprintf_r+0x1010>
   833fa:	9c27      	ldr	r4, [sp, #156]	; 0x9c
   833fc:	9a26      	ldr	r2, [sp, #152]	; 0x98
   833fe:	f7ff b876 	b.w	824ee <_svfprintf_r+0x2da>
   83402:	aa25      	add	r2, sp, #148	; 0x94
   83404:	990b      	ldr	r1, [sp, #44]	; 0x2c
   83406:	980c      	ldr	r0, [sp, #48]	; 0x30
   83408:	f002 f820 	bl	8544c <__ssprint_r>
   8340c:	2800      	cmp	r0, #0
   8340e:	f47e afde 	bne.w	823ce <_svfprintf_r+0x1ba>
   83412:	46c8      	mov	r8, r9
   83414:	9c27      	ldr	r4, [sp, #156]	; 0x9c
   83416:	e4fb      	b.n	82e10 <_svfprintf_r+0xbfc>
   83418:	4623      	mov	r3, r4
   8341a:	e6e3      	b.n	831e4 <_svfprintf_r+0xfd0>
   8341c:	aa25      	add	r2, sp, #148	; 0x94
   8341e:	990b      	ldr	r1, [sp, #44]	; 0x2c
   83420:	980c      	ldr	r0, [sp, #48]	; 0x30
   83422:	f002 f813 	bl	8544c <__ssprint_r>
   83426:	2800      	cmp	r0, #0
   83428:	f47e afd1 	bne.w	823ce <_svfprintf_r+0x1ba>
   8342c:	46c8      	mov	r8, r9
   8342e:	9a1f      	ldr	r2, [sp, #124]	; 0x7c
   83430:	9c27      	ldr	r4, [sp, #156]	; 0x9c
   83432:	e5d3      	b.n	82fdc <_svfprintf_r+0xdc8>
   83434:	aa25      	add	r2, sp, #148	; 0x94
   83436:	990b      	ldr	r1, [sp, #44]	; 0x2c
   83438:	980c      	ldr	r0, [sp, #48]	; 0x30
   8343a:	f002 f807 	bl	8544c <__ssprint_r>
   8343e:	2800      	cmp	r0, #0
   83440:	f47e afc5 	bne.w	823ce <_svfprintf_r+0x1ba>
   83444:	9a1f      	ldr	r2, [sp, #124]	; 0x7c
   83446:	9b13      	ldr	r3, [sp, #76]	; 0x4c
   83448:	46c8      	mov	r8, r9
   8344a:	9c27      	ldr	r4, [sp, #156]	; 0x9c
   8344c:	1a9a      	subs	r2, r3, r2
   8344e:	e5dd      	b.n	8300c <_svfprintf_r+0xdf8>
   83450:	9b26      	ldr	r3, [sp, #152]	; 0x98
   83452:	f7ff b8fe 	b.w	82652 <_svfprintf_r+0x43e>
   83456:	aa25      	add	r2, sp, #148	; 0x94
   83458:	990b      	ldr	r1, [sp, #44]	; 0x2c
   8345a:	980c      	ldr	r0, [sp, #48]	; 0x30
   8345c:	f001 fff6 	bl	8544c <__ssprint_r>
   83460:	2800      	cmp	r0, #0
   83462:	f47e afb4 	bne.w	823ce <_svfprintf_r+0x1ba>
   83466:	46c8      	mov	r8, r9
   83468:	9c27      	ldr	r4, [sp, #156]	; 0x9c
   8346a:	e5b0      	b.n	82fce <_svfprintf_r+0xdba>
   8346c:	9b0a      	ldr	r3, [sp, #40]	; 0x28
   8346e:	4637      	mov	r7, r6
   83470:	2b06      	cmp	r3, #6
   83472:	bf28      	it	cs
   83474:	2306      	movcs	r3, #6
   83476:	960a      	str	r6, [sp, #40]	; 0x28
   83478:	9612      	str	r6, [sp, #72]	; 0x48
   8347a:	9308      	str	r3, [sp, #32]
   8347c:	940f      	str	r4, [sp, #60]	; 0x3c
   8347e:	f8cd b01c 	str.w	fp, [sp, #28]
   83482:	930e      	str	r3, [sp, #56]	; 0x38
   83484:	4e27      	ldr	r6, [pc, #156]	; (83524 <_svfprintf_r+0x1310>)
   83486:	f7fe bfe9 	b.w	8245c <_svfprintf_r+0x248>
   8348a:	2306      	movs	r3, #6
   8348c:	930a      	str	r3, [sp, #40]	; 0x28
   8348e:	e663      	b.n	83158 <_svfprintf_r+0xf44>
   83490:	232d      	movs	r3, #45	; 0x2d
   83492:	461f      	mov	r7, r3
   83494:	f88d 3077 	strb.w	r3, [sp, #119]	; 0x77
   83498:	f7ff ba28 	b.w	828ec <_svfprintf_r+0x6d8>
   8349c:	2003      	movs	r0, #3
   8349e:	9c0a      	ldr	r4, [sp, #40]	; 0x28
   834a0:	a923      	add	r1, sp, #140	; 0x8c
   834a2:	e88d 0011 	stmia.w	sp, {r0, r4}
   834a6:	9104      	str	r1, [sp, #16]
   834a8:	a820      	add	r0, sp, #128	; 0x80
   834aa:	a91f      	add	r1, sp, #124	; 0x7c
   834ac:	9003      	str	r0, [sp, #12]
   834ae:	9a08      	ldr	r2, [sp, #32]
   834b0:	463b      	mov	r3, r7
   834b2:	9102      	str	r1, [sp, #8]
   834b4:	980c      	ldr	r0, [sp, #48]	; 0x30
   834b6:	f000 f9d3 	bl	83860 <_dtoa_r>
   834ba:	4625      	mov	r5, r4
   834bc:	4606      	mov	r6, r0
   834be:	1904      	adds	r4, r0, r4
   834c0:	e719      	b.n	832f6 <_svfprintf_r+0x10e2>
   834c2:	9b26      	ldr	r3, [sp, #152]	; 0x98
   834c4:	4d15      	ldr	r5, [pc, #84]	; (8351c <_svfprintf_r+0x1308>)
   834c6:	f7ff bb7e 	b.w	82bc6 <_svfprintf_r+0x9b2>
   834ca:	9a19      	ldr	r2, [sp, #100]	; 0x64
   834cc:	9b13      	ldr	r3, [sp, #76]	; 0x4c
   834ce:	4413      	add	r3, r2
   834d0:	9a12      	ldr	r2, [sp, #72]	; 0x48
   834d2:	930e      	str	r3, [sp, #56]	; 0x38
   834d4:	2a00      	cmp	r2, #0
   834d6:	f340 80c7 	ble.w	83668 <_svfprintf_r+0x1454>
   834da:	ea23 73e3 	bic.w	r3, r3, r3, asr #31
   834de:	9308      	str	r3, [sp, #32]
   834e0:	2367      	movs	r3, #103	; 0x67
   834e2:	9311      	str	r3, [sp, #68]	; 0x44
   834e4:	e69e      	b.n	83224 <_svfprintf_r+0x1010>
   834e6:	2b00      	cmp	r3, #0
   834e8:	f340 80e1 	ble.w	836ae <_svfprintf_r+0x149a>
   834ec:	9a0a      	ldr	r2, [sp, #40]	; 0x28
   834ee:	2a00      	cmp	r2, #0
   834f0:	f040 80b0 	bne.w	83654 <_svfprintf_r+0x1440>
   834f4:	f01b 0f01 	tst.w	fp, #1
   834f8:	f040 80ac 	bne.w	83654 <_svfprintf_r+0x1440>
   834fc:	9308      	str	r3, [sp, #32]
   834fe:	930e      	str	r3, [sp, #56]	; 0x38
   83500:	e690      	b.n	83224 <_svfprintf_r+0x1010>
   83502:	9b0a      	ldr	r3, [sp, #40]	; 0x28
   83504:	940f      	str	r4, [sp, #60]	; 0x3c
   83506:	9308      	str	r3, [sp, #32]
   83508:	930e      	str	r3, [sp, #56]	; 0x38
   8350a:	900a      	str	r0, [sp, #40]	; 0x28
   8350c:	f8cd b01c 	str.w	fp, [sp, #28]
   83510:	9012      	str	r0, [sp, #72]	; 0x48
   83512:	f89d 7077 	ldrb.w	r7, [sp, #119]	; 0x77
   83516:	f7fe bfa1 	b.w	8245c <_svfprintf_r+0x248>
   8351a:	bf00      	nop
   8351c:	000863cc 	.word	0x000863cc
   83520:	66666667 	.word	0x66666667
   83524:	000863b0 	.word	0x000863b0
   83528:	9b11      	ldr	r3, [sp, #68]	; 0x44
   8352a:	2b47      	cmp	r3, #71	; 0x47
   8352c:	f47f ae46 	bne.w	831bc <_svfprintf_r+0xfa8>
   83530:	f01b 0f01 	tst.w	fp, #1
   83534:	f47f aeda 	bne.w	832ec <_svfprintf_r+0x10d8>
   83538:	9b23      	ldr	r3, [sp, #140]	; 0x8c
   8353a:	1b9b      	subs	r3, r3, r6
   8353c:	9313      	str	r3, [sp, #76]	; 0x4c
   8353e:	9b0e      	ldr	r3, [sp, #56]	; 0x38
   83540:	2b47      	cmp	r3, #71	; 0x47
   83542:	f43f aef7 	beq.w	83334 <_svfprintf_r+0x1120>
   83546:	9b1f      	ldr	r3, [sp, #124]	; 0x7c
   83548:	9312      	str	r3, [sp, #72]	; 0x48
   8354a:	e700      	b.n	8334e <_svfprintf_r+0x113a>
   8354c:	2000      	movs	r0, #0
   8354e:	900a      	str	r0, [sp, #40]	; 0x28
   83550:	f7fe bebc 	b.w	822cc <_svfprintf_r+0xb8>
   83554:	424f      	negs	r7, r1
   83556:	3110      	adds	r1, #16
   83558:	da35      	bge.n	835c6 <_svfprintf_r+0x13b2>
   8355a:	2410      	movs	r4, #16
   8355c:	4d6a      	ldr	r5, [pc, #424]	; (83708 <_svfprintf_r+0x14f4>)
   8355e:	f8dd b030 	ldr.w	fp, [sp, #48]	; 0x30
   83562:	e004      	b.n	8356e <_svfprintf_r+0x135a>
   83564:	f108 0808 	add.w	r8, r8, #8
   83568:	3f10      	subs	r7, #16
   8356a:	2f10      	cmp	r7, #16
   8356c:	dd2c      	ble.n	835c8 <_svfprintf_r+0x13b4>
   8356e:	3301      	adds	r3, #1
   83570:	3210      	adds	r2, #16
   83572:	2b07      	cmp	r3, #7
   83574:	9227      	str	r2, [sp, #156]	; 0x9c
   83576:	9326      	str	r3, [sp, #152]	; 0x98
   83578:	f8c8 5000 	str.w	r5, [r8]
   8357c:	f8c8 4004 	str.w	r4, [r8, #4]
   83580:	ddf0      	ble.n	83564 <_svfprintf_r+0x1350>
   83582:	aa25      	add	r2, sp, #148	; 0x94
   83584:	990b      	ldr	r1, [sp, #44]	; 0x2c
   83586:	4658      	mov	r0, fp
   83588:	f001 ff60 	bl	8544c <__ssprint_r>
   8358c:	2800      	cmp	r0, #0
   8358e:	f47e af1e 	bne.w	823ce <_svfprintf_r+0x1ba>
   83592:	46c8      	mov	r8, r9
   83594:	9a27      	ldr	r2, [sp, #156]	; 0x9c
   83596:	9b26      	ldr	r3, [sp, #152]	; 0x98
   83598:	e7e6      	b.n	83568 <_svfprintf_r+0x1354>
   8359a:	aa25      	add	r2, sp, #148	; 0x94
   8359c:	990b      	ldr	r1, [sp, #44]	; 0x2c
   8359e:	980c      	ldr	r0, [sp, #48]	; 0x30
   835a0:	f001 ff54 	bl	8544c <__ssprint_r>
   835a4:	2800      	cmp	r0, #0
   835a6:	f47e af12 	bne.w	823ce <_svfprintf_r+0x1ba>
   835aa:	46c8      	mov	r8, r9
   835ac:	991f      	ldr	r1, [sp, #124]	; 0x7c
   835ae:	9a27      	ldr	r2, [sp, #156]	; 0x9c
   835b0:	9b26      	ldr	r3, [sp, #152]	; 0x98
   835b2:	f7ff bbc3 	b.w	82d3c <_svfprintf_r+0xb28>
   835b6:	2230      	movs	r2, #48	; 0x30
   835b8:	4413      	add	r3, r2
   835ba:	f88d 3087 	strb.w	r3, [sp, #135]	; 0x87
   835be:	f88d 2086 	strb.w	r2, [sp, #134]	; 0x86
   835c2:	ab22      	add	r3, sp, #136	; 0x88
   835c4:	e706      	b.n	833d4 <_svfprintf_r+0x11c0>
   835c6:	4d50      	ldr	r5, [pc, #320]	; (83708 <_svfprintf_r+0x14f4>)
   835c8:	3301      	adds	r3, #1
   835ca:	443a      	add	r2, r7
   835cc:	2b07      	cmp	r3, #7
   835ce:	e888 00a0 	stmia.w	r8, {r5, r7}
   835d2:	9227      	str	r2, [sp, #156]	; 0x9c
   835d4:	9326      	str	r3, [sp, #152]	; 0x98
   835d6:	f108 0808 	add.w	r8, r8, #8
   835da:	f77f abb2 	ble.w	82d42 <_svfprintf_r+0xb2e>
   835de:	aa25      	add	r2, sp, #148	; 0x94
   835e0:	990b      	ldr	r1, [sp, #44]	; 0x2c
   835e2:	980c      	ldr	r0, [sp, #48]	; 0x30
   835e4:	f001 ff32 	bl	8544c <__ssprint_r>
   835e8:	2800      	cmp	r0, #0
   835ea:	f47e aef0 	bne.w	823ce <_svfprintf_r+0x1ba>
   835ee:	46c8      	mov	r8, r9
   835f0:	9a27      	ldr	r2, [sp, #156]	; 0x9c
   835f2:	9b26      	ldr	r3, [sp, #152]	; 0x98
   835f4:	f7ff bba5 	b.w	82d42 <_svfprintf_r+0xb2e>
   835f8:	9b12      	ldr	r3, [sp, #72]	; 0x48
   835fa:	9a19      	ldr	r2, [sp, #100]	; 0x64
   835fc:	4413      	add	r3, r2
   835fe:	930e      	str	r3, [sp, #56]	; 0x38
   83600:	e76b      	b.n	834da <_svfprintf_r+0x12c6>
   83602:	9b23      	ldr	r3, [sp, #140]	; 0x8c
   83604:	e5ee      	b.n	831e4 <_svfprintf_r+0xfd0>
   83606:	9b26      	ldr	r3, [sp, #152]	; 0x98
   83608:	4d3f      	ldr	r5, [pc, #252]	; (83708 <_svfprintf_r+0x14f4>)
   8360a:	e4bb      	b.n	82f84 <_svfprintf_r+0xd70>
   8360c:	9a16      	ldr	r2, [sp, #88]	; 0x58
   8360e:	9808      	ldr	r0, [sp, #32]
   83610:	9b17      	ldr	r3, [sp, #92]	; 0x5c
   83612:	4639      	mov	r1, r7
   83614:	f002 fc56 	bl	85ec4 <__aeabi_dcmpeq>
   83618:	2800      	cmp	r0, #0
   8361a:	f47f ae70 	bne.w	832fe <_svfprintf_r+0x10ea>
   8361e:	f1c5 0501 	rsb	r5, r5, #1
   83622:	951f      	str	r5, [sp, #124]	; 0x7c
   83624:	442c      	add	r4, r5
   83626:	e5ca      	b.n	831be <_svfprintf_r+0xfaa>
   83628:	9b14      	ldr	r3, [sp, #80]	; 0x50
   8362a:	4e38      	ldr	r6, [pc, #224]	; (8370c <_svfprintf_r+0x14f8>)
   8362c:	2b00      	cmp	r3, #0
   8362e:	bfbe      	ittt	lt
   83630:	232d      	movlt	r3, #45	; 0x2d
   83632:	461f      	movlt	r7, r3
   83634:	f88d 3077 	strblt.w	r3, [sp, #119]	; 0x77
   83638:	f04f 0303 	mov.w	r3, #3
   8363c:	461a      	mov	r2, r3
   8363e:	9308      	str	r3, [sp, #32]
   83640:	f04f 0300 	mov.w	r3, #0
   83644:	bfa8      	it	ge
   83646:	f89d 7077 	ldrbge.w	r7, [sp, #119]	; 0x77
   8364a:	4619      	mov	r1, r3
   8364c:	930a      	str	r3, [sp, #40]	; 0x28
   8364e:	4b30      	ldr	r3, [pc, #192]	; (83710 <_svfprintf_r+0x14fc>)
   83650:	f7ff b954 	b.w	828fc <_svfprintf_r+0x6e8>
   83654:	9b12      	ldr	r3, [sp, #72]	; 0x48
   83656:	9a19      	ldr	r2, [sp, #100]	; 0x64
   83658:	4413      	add	r3, r2
   8365a:	9a0a      	ldr	r2, [sp, #40]	; 0x28
   8365c:	441a      	add	r2, r3
   8365e:	ea22 73e2 	bic.w	r3, r2, r2, asr #31
   83662:	920e      	str	r2, [sp, #56]	; 0x38
   83664:	9308      	str	r3, [sp, #32]
   83666:	e5dd      	b.n	83224 <_svfprintf_r+0x1010>
   83668:	9b12      	ldr	r3, [sp, #72]	; 0x48
   8366a:	9a0e      	ldr	r2, [sp, #56]	; 0x38
   8366c:	f1c3 0301 	rsb	r3, r3, #1
   83670:	441a      	add	r2, r3
   83672:	4613      	mov	r3, r2
   83674:	e7c3      	b.n	835fe <_svfprintf_r+0x13ea>
   83676:	f01b 0301 	ands.w	r3, fp, #1
   8367a:	9312      	str	r3, [sp, #72]	; 0x48
   8367c:	f47f aeb3 	bne.w	833e6 <_svfprintf_r+0x11d2>
   83680:	9b0e      	ldr	r3, [sp, #56]	; 0x38
   83682:	ea23 73e3 	bic.w	r3, r3, r3, asr #31
   83686:	9308      	str	r3, [sp, #32]
   83688:	e5cc      	b.n	83224 <_svfprintf_r+0x1010>
   8368a:	4d1f      	ldr	r5, [pc, #124]	; (83708 <_svfprintf_r+0x14f4>)
   8368c:	e43c      	b.n	82f08 <_svfprintf_r+0xcf4>
   8368e:	9b26      	ldr	r3, [sp, #152]	; 0x98
   83690:	4d1d      	ldr	r5, [pc, #116]	; (83708 <_svfprintf_r+0x14f4>)
   83692:	e491      	b.n	82fb8 <_svfprintf_r+0xda4>
   83694:	9d0f      	ldr	r5, [sp, #60]	; 0x3c
   83696:	f89a 3001 	ldrb.w	r3, [sl, #1]
   8369a:	6828      	ldr	r0, [r5, #0]
   8369c:	46a2      	mov	sl, r4
   8369e:	ea40 70e0 	orr.w	r0, r0, r0, asr #31
   836a2:	900a      	str	r0, [sp, #40]	; 0x28
   836a4:	4628      	mov	r0, r5
   836a6:	3004      	adds	r0, #4
   836a8:	900f      	str	r0, [sp, #60]	; 0x3c
   836aa:	f7fe be0d 	b.w	822c8 <_svfprintf_r+0xb4>
   836ae:	9b0a      	ldr	r3, [sp, #40]	; 0x28
   836b0:	b913      	cbnz	r3, 836b8 <_svfprintf_r+0x14a4>
   836b2:	f01b 0f01 	tst.w	fp, #1
   836b6:	d002      	beq.n	836be <_svfprintf_r+0x14aa>
   836b8:	9b19      	ldr	r3, [sp, #100]	; 0x64
   836ba:	3301      	adds	r3, #1
   836bc:	e7cd      	b.n	8365a <_svfprintf_r+0x1446>
   836be:	2301      	movs	r3, #1
   836c0:	e71c      	b.n	834fc <_svfprintf_r+0x12e8>
   836c2:	f88d 1077 	strb.w	r1, [sp, #119]	; 0x77
   836c6:	f7ff b980 	b.w	829ca <_svfprintf_r+0x7b6>
   836ca:	f88d 1077 	strb.w	r1, [sp, #119]	; 0x77
   836ce:	f7ff b93a 	b.w	82946 <_svfprintf_r+0x732>
   836d2:	f88d 1077 	strb.w	r1, [sp, #119]	; 0x77
   836d6:	f7ff b84f 	b.w	82778 <_svfprintf_r+0x564>
   836da:	f10d 0386 	add.w	r3, sp, #134	; 0x86
   836de:	e679      	b.n	833d4 <_svfprintf_r+0x11c0>
   836e0:	f88d 1077 	strb.w	r1, [sp, #119]	; 0x77
   836e4:	f7ff b9b2 	b.w	82a4c <_svfprintf_r+0x838>
   836e8:	f04f 32ff 	mov.w	r2, #4294967295
   836ec:	230c      	movs	r3, #12
   836ee:	9209      	str	r2, [sp, #36]	; 0x24
   836f0:	9a0c      	ldr	r2, [sp, #48]	; 0x30
   836f2:	6013      	str	r3, [r2, #0]
   836f4:	f7fe be74 	b.w	823e0 <_svfprintf_r+0x1cc>
   836f8:	f88d 1077 	strb.w	r1, [sp, #119]	; 0x77
   836fc:	f7ff b8c4 	b.w	82888 <_svfprintf_r+0x674>
   83700:	f88d 1077 	strb.w	r1, [sp, #119]	; 0x77
   83704:	f7ff b878 	b.w	827f8 <_svfprintf_r+0x5e4>
   83708:	000863cc 	.word	0x000863cc
   8370c:	00086384 	.word	0x00086384
   83710:	00086380 	.word	0x00086380

00083714 <register_fini>:
   83714:	4b02      	ldr	r3, [pc, #8]	; (83720 <register_fini+0xc>)
   83716:	b113      	cbz	r3, 8371e <register_fini+0xa>
   83718:	4802      	ldr	r0, [pc, #8]	; (83724 <register_fini+0x10>)
   8371a:	f000 b805 	b.w	83728 <atexit>
   8371e:	4770      	bx	lr
   83720:	00000000 	.word	0x00000000
   83724:	000846a5 	.word	0x000846a5

00083728 <atexit>:
   83728:	2300      	movs	r3, #0
   8372a:	4601      	mov	r1, r0
   8372c:	461a      	mov	r2, r3
   8372e:	4618      	mov	r0, r3
   83730:	f001 bf16 	b.w	85560 <__register_exitproc>

00083734 <quorem>:
   83734:	e92d 4ff0 	stmdb	sp!, {r4, r5, r6, r7, r8, r9, sl, fp, lr}
   83738:	6903      	ldr	r3, [r0, #16]
   8373a:	690f      	ldr	r7, [r1, #16]
   8373c:	b083      	sub	sp, #12
   8373e:	429f      	cmp	r7, r3
   83740:	f300 8088 	bgt.w	83854 <quorem+0x120>
   83744:	3f01      	subs	r7, #1
   83746:	f101 0614 	add.w	r6, r1, #20
   8374a:	f100 0a14 	add.w	sl, r0, #20
   8374e:	f856 3027 	ldr.w	r3, [r6, r7, lsl #2]
   83752:	f85a 2027 	ldr.w	r2, [sl, r7, lsl #2]
   83756:	3301      	adds	r3, #1
   83758:	fbb2 f8f3 	udiv	r8, r2, r3
   8375c:	00bb      	lsls	r3, r7, #2
   8375e:	9300      	str	r3, [sp, #0]
   83760:	eb06 0903 	add.w	r9, r6, r3
   83764:	4453      	add	r3, sl
   83766:	9301      	str	r3, [sp, #4]
   83768:	f1b8 0f00 	cmp.w	r8, #0
   8376c:	d03b      	beq.n	837e6 <quorem+0xb2>
   8376e:	2300      	movs	r3, #0
   83770:	46b4      	mov	ip, r6
   83772:	461c      	mov	r4, r3
   83774:	46d6      	mov	lr, sl
   83776:	f85c 2b04 	ldr.w	r2, [ip], #4
   8377a:	f8de 5000 	ldr.w	r5, [lr]
   8377e:	fa1f fb82 	uxth.w	fp, r2
   83782:	fb08 330b 	mla	r3, r8, fp, r3
   83786:	0c12      	lsrs	r2, r2, #16
   83788:	ea4f 4b13 	mov.w	fp, r3, lsr #16
   8378c:	fb08 bb02 	mla	fp, r8, r2, fp
   83790:	b29a      	uxth	r2, r3
   83792:	1aa2      	subs	r2, r4, r2
   83794:	b2ab      	uxth	r3, r5
   83796:	fa1f f48b 	uxth.w	r4, fp
   8379a:	441a      	add	r2, r3
   8379c:	ebc4 4415 	rsb	r4, r4, r5, lsr #16
   837a0:	eb04 4422 	add.w	r4, r4, r2, asr #16
   837a4:	b292      	uxth	r2, r2
   837a6:	ea42 4204 	orr.w	r2, r2, r4, lsl #16
   837aa:	45e1      	cmp	r9, ip
   837ac:	f84e 2b04 	str.w	r2, [lr], #4
   837b0:	ea4f 4424 	mov.w	r4, r4, asr #16
   837b4:	ea4f 431b 	mov.w	r3, fp, lsr #16
   837b8:	d2dd      	bcs.n	83776 <quorem+0x42>
   837ba:	9b00      	ldr	r3, [sp, #0]
   837bc:	f85a 3003 	ldr.w	r3, [sl, r3]
   837c0:	b98b      	cbnz	r3, 837e6 <quorem+0xb2>
   837c2:	9c01      	ldr	r4, [sp, #4]
   837c4:	1f23      	subs	r3, r4, #4
   837c6:	459a      	cmp	sl, r3
   837c8:	d20c      	bcs.n	837e4 <quorem+0xb0>
   837ca:	f854 3c04 	ldr.w	r3, [r4, #-4]
   837ce:	b94b      	cbnz	r3, 837e4 <quorem+0xb0>
   837d0:	f1a4 0308 	sub.w	r3, r4, #8
   837d4:	e002      	b.n	837dc <quorem+0xa8>
   837d6:	681a      	ldr	r2, [r3, #0]
   837d8:	3b04      	subs	r3, #4
   837da:	b91a      	cbnz	r2, 837e4 <quorem+0xb0>
   837dc:	459a      	cmp	sl, r3
   837de:	f107 37ff 	add.w	r7, r7, #4294967295
   837e2:	d3f8      	bcc.n	837d6 <quorem+0xa2>
   837e4:	6107      	str	r7, [r0, #16]
   837e6:	4604      	mov	r4, r0
   837e8:	f001 fb7c 	bl	84ee4 <__mcmp>
   837ec:	2800      	cmp	r0, #0
   837ee:	db2d      	blt.n	8384c <quorem+0x118>
   837f0:	4655      	mov	r5, sl
   837f2:	2300      	movs	r3, #0
   837f4:	f108 0801 	add.w	r8, r8, #1
   837f8:	f856 1b04 	ldr.w	r1, [r6], #4
   837fc:	6828      	ldr	r0, [r5, #0]
   837fe:	b28a      	uxth	r2, r1
   83800:	1a9a      	subs	r2, r3, r2
   83802:	0c0b      	lsrs	r3, r1, #16
   83804:	b281      	uxth	r1, r0
   83806:	440a      	add	r2, r1
   83808:	ebc3 4310 	rsb	r3, r3, r0, lsr #16
   8380c:	eb03 4322 	add.w	r3, r3, r2, asr #16
   83810:	b292      	uxth	r2, r2
   83812:	ea42 4203 	orr.w	r2, r2, r3, lsl #16
   83816:	45b1      	cmp	r9, r6
   83818:	f845 2b04 	str.w	r2, [r5], #4
   8381c:	ea4f 4323 	mov.w	r3, r3, asr #16
   83820:	d2ea      	bcs.n	837f8 <quorem+0xc4>
   83822:	f85a 2027 	ldr.w	r2, [sl, r7, lsl #2]
   83826:	eb0a 0387 	add.w	r3, sl, r7, lsl #2
   8382a:	b97a      	cbnz	r2, 8384c <quorem+0x118>
   8382c:	1f1a      	subs	r2, r3, #4
   8382e:	4592      	cmp	sl, r2
   83830:	d20b      	bcs.n	8384a <quorem+0x116>
   83832:	f853 2c04 	ldr.w	r2, [r3, #-4]
   83836:	b942      	cbnz	r2, 8384a <quorem+0x116>
   83838:	3b08      	subs	r3, #8
   8383a:	e002      	b.n	83842 <quorem+0x10e>
   8383c:	681a      	ldr	r2, [r3, #0]
   8383e:	3b04      	subs	r3, #4
   83840:	b91a      	cbnz	r2, 8384a <quorem+0x116>
   83842:	459a      	cmp	sl, r3
   83844:	f107 37ff 	add.w	r7, r7, #4294967295
   83848:	d3f8      	bcc.n	8383c <quorem+0x108>
   8384a:	6127      	str	r7, [r4, #16]
   8384c:	4640      	mov	r0, r8
   8384e:	b003      	add	sp, #12
   83850:	e8bd 8ff0 	ldmia.w	sp!, {r4, r5, r6, r7, r8, r9, sl, fp, pc}
   83854:	2000      	movs	r0, #0
   83856:	b003      	add	sp, #12
   83858:	e8bd 8ff0 	ldmia.w	sp!, {r4, r5, r6, r7, r8, r9, sl, fp, pc}
   8385c:	0000      	movs	r0, r0
	...

00083860 <_dtoa_r>:
   83860:	e92d 4ff0 	stmdb	sp!, {r4, r5, r6, r7, r8, r9, sl, fp, lr}
   83864:	6c05      	ldr	r5, [r0, #64]	; 0x40
   83866:	b09b      	sub	sp, #108	; 0x6c
   83868:	4604      	mov	r4, r0
   8386a:	4692      	mov	sl, r2
   8386c:	469b      	mov	fp, r3
   8386e:	9e27      	ldr	r6, [sp, #156]	; 0x9c
   83870:	b14d      	cbz	r5, 83886 <_dtoa_r+0x26>
   83872:	2301      	movs	r3, #1
   83874:	6c42      	ldr	r2, [r0, #68]	; 0x44
   83876:	4629      	mov	r1, r5
   83878:	4093      	lsls	r3, r2
   8387a:	60ab      	str	r3, [r5, #8]
   8387c:	606a      	str	r2, [r5, #4]
   8387e:	f001 f959 	bl	84b34 <_Bfree>
   83882:	2300      	movs	r3, #0
   83884:	6423      	str	r3, [r4, #64]	; 0x40
   83886:	f1bb 0f00 	cmp.w	fp, #0
   8388a:	465d      	mov	r5, fp
   8388c:	db35      	blt.n	838fa <_dtoa_r+0x9a>
   8388e:	2300      	movs	r3, #0
   83890:	6033      	str	r3, [r6, #0]
   83892:	4b9d      	ldr	r3, [pc, #628]	; (83b08 <_dtoa_r+0x2a8>)
   83894:	43ab      	bics	r3, r5
   83896:	d015      	beq.n	838c4 <_dtoa_r+0x64>
   83898:	2200      	movs	r2, #0
   8389a:	2300      	movs	r3, #0
   8389c:	4650      	mov	r0, sl
   8389e:	4659      	mov	r1, fp
   838a0:	f002 fb10 	bl	85ec4 <__aeabi_dcmpeq>
   838a4:	4680      	mov	r8, r0
   838a6:	2800      	cmp	r0, #0
   838a8:	d02d      	beq.n	83906 <_dtoa_r+0xa6>
   838aa:	2301      	movs	r3, #1
   838ac:	9a26      	ldr	r2, [sp, #152]	; 0x98
   838ae:	6013      	str	r3, [r2, #0]
   838b0:	9b28      	ldr	r3, [sp, #160]	; 0xa0
   838b2:	2b00      	cmp	r3, #0
   838b4:	f000 80bd 	beq.w	83a32 <_dtoa_r+0x1d2>
   838b8:	4894      	ldr	r0, [pc, #592]	; (83b0c <_dtoa_r+0x2ac>)
   838ba:	6018      	str	r0, [r3, #0]
   838bc:	3801      	subs	r0, #1
   838be:	b01b      	add	sp, #108	; 0x6c
   838c0:	e8bd 8ff0 	ldmia.w	sp!, {r4, r5, r6, r7, r8, r9, sl, fp, pc}
   838c4:	f242 730f 	movw	r3, #9999	; 0x270f
   838c8:	9a26      	ldr	r2, [sp, #152]	; 0x98
   838ca:	6013      	str	r3, [r2, #0]
   838cc:	f1ba 0f00 	cmp.w	sl, #0
   838d0:	d10d      	bne.n	838ee <_dtoa_r+0x8e>
   838d2:	f3c5 0513 	ubfx	r5, r5, #0, #20
   838d6:	b955      	cbnz	r5, 838ee <_dtoa_r+0x8e>
   838d8:	9b28      	ldr	r3, [sp, #160]	; 0xa0
   838da:	488d      	ldr	r0, [pc, #564]	; (83b10 <_dtoa_r+0x2b0>)
   838dc:	2b00      	cmp	r3, #0
   838de:	d0ee      	beq.n	838be <_dtoa_r+0x5e>
   838e0:	f100 0308 	add.w	r3, r0, #8
   838e4:	9a28      	ldr	r2, [sp, #160]	; 0xa0
   838e6:	6013      	str	r3, [r2, #0]
   838e8:	b01b      	add	sp, #108	; 0x6c
   838ea:	e8bd 8ff0 	ldmia.w	sp!, {r4, r5, r6, r7, r8, r9, sl, fp, pc}
   838ee:	9b28      	ldr	r3, [sp, #160]	; 0xa0
   838f0:	4888      	ldr	r0, [pc, #544]	; (83b14 <_dtoa_r+0x2b4>)
   838f2:	2b00      	cmp	r3, #0
   838f4:	d0e3      	beq.n	838be <_dtoa_r+0x5e>
   838f6:	1cc3      	adds	r3, r0, #3
   838f8:	e7f4      	b.n	838e4 <_dtoa_r+0x84>
   838fa:	2301      	movs	r3, #1
   838fc:	f02b 4500 	bic.w	r5, fp, #2147483648	; 0x80000000
   83900:	6033      	str	r3, [r6, #0]
   83902:	46ab      	mov	fp, r5
   83904:	e7c5      	b.n	83892 <_dtoa_r+0x32>
   83906:	aa18      	add	r2, sp, #96	; 0x60
   83908:	ab19      	add	r3, sp, #100	; 0x64
   8390a:	9201      	str	r2, [sp, #4]
   8390c:	9300      	str	r3, [sp, #0]
   8390e:	4652      	mov	r2, sl
   83910:	465b      	mov	r3, fp
   83912:	4620      	mov	r0, r4
   83914:	f001 fb90 	bl	85038 <__d2b>
   83918:	0d2b      	lsrs	r3, r5, #20
   8391a:	4681      	mov	r9, r0
   8391c:	d071      	beq.n	83a02 <_dtoa_r+0x1a2>
   8391e:	4650      	mov	r0, sl
   83920:	f3cb 0213 	ubfx	r2, fp, #0, #20
   83924:	f042 517f 	orr.w	r1, r2, #1069547520	; 0x3fc00000
   83928:	9f18      	ldr	r7, [sp, #96]	; 0x60
   8392a:	f2a3 36ff 	subw	r6, r3, #1023	; 0x3ff
   8392e:	f8cd 8050 	str.w	r8, [sp, #80]	; 0x50
   83932:	f441 1140 	orr.w	r1, r1, #3145728	; 0x300000
   83936:	2200      	movs	r2, #0
   83938:	4b77      	ldr	r3, [pc, #476]	; (83b18 <_dtoa_r+0x2b8>)
   8393a:	f001 fea7 	bl	8568c <__aeabi_dsub>
   8393e:	a36c      	add	r3, pc, #432	; (adr r3, 83af0 <_dtoa_r+0x290>)
   83940:	e9d3 2300 	ldrd	r2, r3, [r3]
   83944:	f002 f856 	bl	859f4 <__aeabi_dmul>
   83948:	a36b      	add	r3, pc, #428	; (adr r3, 83af8 <_dtoa_r+0x298>)
   8394a:	e9d3 2300 	ldrd	r2, r3, [r3]
   8394e:	f001 fe9f 	bl	85690 <__adddf3>
   83952:	e9cd 0102 	strd	r0, r1, [sp, #8]
   83956:	4630      	mov	r0, r6
   83958:	f001 ffe6 	bl	85928 <__aeabi_i2d>
   8395c:	a368      	add	r3, pc, #416	; (adr r3, 83b00 <_dtoa_r+0x2a0>)
   8395e:	e9d3 2300 	ldrd	r2, r3, [r3]
   83962:	f002 f847 	bl	859f4 <__aeabi_dmul>
   83966:	4602      	mov	r2, r0
   83968:	460b      	mov	r3, r1
   8396a:	e9dd 0102 	ldrd	r0, r1, [sp, #8]
   8396e:	f001 fe8f 	bl	85690 <__adddf3>
   83972:	e9cd 0104 	strd	r0, r1, [sp, #16]
   83976:	f002 faed 	bl	85f54 <__aeabi_d2iz>
   8397a:	2200      	movs	r2, #0
   8397c:	9002      	str	r0, [sp, #8]
   8397e:	2300      	movs	r3, #0
   83980:	e9dd 0104 	ldrd	r0, r1, [sp, #16]
   83984:	f002 faa8 	bl	85ed8 <__aeabi_dcmplt>
   83988:	2800      	cmp	r0, #0
   8398a:	f040 816d 	bne.w	83c68 <_dtoa_r+0x408>
   8398e:	9d02      	ldr	r5, [sp, #8]
   83990:	2d16      	cmp	r5, #22
   83992:	f200 8157 	bhi.w	83c44 <_dtoa_r+0x3e4>
   83996:	4961      	ldr	r1, [pc, #388]	; (83b1c <_dtoa_r+0x2bc>)
   83998:	4652      	mov	r2, sl
   8399a:	eb01 01c5 	add.w	r1, r1, r5, lsl #3
   8399e:	465b      	mov	r3, fp
   839a0:	e9d1 0100 	ldrd	r0, r1, [r1]
   839a4:	f002 fab6 	bl	85f14 <__aeabi_dcmpgt>
   839a8:	2800      	cmp	r0, #0
   839aa:	f000 81be 	beq.w	83d2a <_dtoa_r+0x4ca>
   839ae:	1e6b      	subs	r3, r5, #1
   839b0:	9302      	str	r3, [sp, #8]
   839b2:	2300      	movs	r3, #0
   839b4:	930e      	str	r3, [sp, #56]	; 0x38
   839b6:	1bbf      	subs	r7, r7, r6
   839b8:	1e7b      	subs	r3, r7, #1
   839ba:	9308      	str	r3, [sp, #32]
   839bc:	f100 814e 	bmi.w	83c5c <_dtoa_r+0x3fc>
   839c0:	2300      	movs	r3, #0
   839c2:	930a      	str	r3, [sp, #40]	; 0x28
   839c4:	9b02      	ldr	r3, [sp, #8]
   839c6:	2b00      	cmp	r3, #0
   839c8:	f2c0 813f 	blt.w	83c4a <_dtoa_r+0x3ea>
   839cc:	9a08      	ldr	r2, [sp, #32]
   839ce:	930d      	str	r3, [sp, #52]	; 0x34
   839d0:	4611      	mov	r1, r2
   839d2:	4419      	add	r1, r3
   839d4:	2300      	movs	r3, #0
   839d6:	9108      	str	r1, [sp, #32]
   839d8:	930c      	str	r3, [sp, #48]	; 0x30
   839da:	9b24      	ldr	r3, [sp, #144]	; 0x90
   839dc:	2b09      	cmp	r3, #9
   839de:	d82a      	bhi.n	83a36 <_dtoa_r+0x1d6>
   839e0:	2b05      	cmp	r3, #5
   839e2:	f340 8658 	ble.w	84696 <_dtoa_r+0xe36>
   839e6:	2500      	movs	r5, #0
   839e8:	3b04      	subs	r3, #4
   839ea:	9324      	str	r3, [sp, #144]	; 0x90
   839ec:	9b24      	ldr	r3, [sp, #144]	; 0x90
   839ee:	3b02      	subs	r3, #2
   839f0:	2b03      	cmp	r3, #3
   839f2:	f200 863f 	bhi.w	84674 <_dtoa_r+0xe14>
   839f6:	e8df f013 	tbh	[pc, r3, lsl #1]
   839fa:	03ce      	.short	0x03ce
   839fc:	03d902c3 	.word	0x03d902c3
   83a00:	045b      	.short	0x045b
   83a02:	9f18      	ldr	r7, [sp, #96]	; 0x60
   83a04:	9e19      	ldr	r6, [sp, #100]	; 0x64
   83a06:	443e      	add	r6, r7
   83a08:	f206 4332 	addw	r3, r6, #1074	; 0x432
   83a0c:	2b20      	cmp	r3, #32
   83a0e:	f340 8187 	ble.w	83d20 <_dtoa_r+0x4c0>
   83a12:	f1c3 0340 	rsb	r3, r3, #64	; 0x40
   83a16:	f206 4012 	addw	r0, r6, #1042	; 0x412
   83a1a:	409d      	lsls	r5, r3
   83a1c:	fa2a f000 	lsr.w	r0, sl, r0
   83a20:	4328      	orrs	r0, r5
   83a22:	f001 ff71 	bl	85908 <__aeabi_ui2d>
   83a26:	2301      	movs	r3, #1
   83a28:	3e01      	subs	r6, #1
   83a2a:	9314      	str	r3, [sp, #80]	; 0x50
   83a2c:	f1a1 71f8 	sub.w	r1, r1, #32505856	; 0x1f00000
   83a30:	e781      	b.n	83936 <_dtoa_r+0xd6>
   83a32:	483b      	ldr	r0, [pc, #236]	; (83b20 <_dtoa_r+0x2c0>)
   83a34:	e743      	b.n	838be <_dtoa_r+0x5e>
   83a36:	2100      	movs	r1, #0
   83a38:	4620      	mov	r0, r4
   83a3a:	6461      	str	r1, [r4, #68]	; 0x44
   83a3c:	9125      	str	r1, [sp, #148]	; 0x94
   83a3e:	f001 f853 	bl	84ae8 <_Balloc>
   83a42:	f04f 33ff 	mov.w	r3, #4294967295
   83a46:	9307      	str	r3, [sp, #28]
   83a48:	930f      	str	r3, [sp, #60]	; 0x3c
   83a4a:	2301      	movs	r3, #1
   83a4c:	9a25      	ldr	r2, [sp, #148]	; 0x94
   83a4e:	9004      	str	r0, [sp, #16]
   83a50:	6420      	str	r0, [r4, #64]	; 0x40
   83a52:	9224      	str	r2, [sp, #144]	; 0x90
   83a54:	930b      	str	r3, [sp, #44]	; 0x2c
   83a56:	9b19      	ldr	r3, [sp, #100]	; 0x64
   83a58:	2b00      	cmp	r3, #0
   83a5a:	f2c0 80d3 	blt.w	83c04 <_dtoa_r+0x3a4>
   83a5e:	9a02      	ldr	r2, [sp, #8]
   83a60:	2a0e      	cmp	r2, #14
   83a62:	f300 80cf 	bgt.w	83c04 <_dtoa_r+0x3a4>
   83a66:	4b2d      	ldr	r3, [pc, #180]	; (83b1c <_dtoa_r+0x2bc>)
   83a68:	eb03 03c2 	add.w	r3, r3, r2, lsl #3
   83a6c:	e9d3 2300 	ldrd	r2, r3, [r3]
   83a70:	e9cd 2308 	strd	r2, r3, [sp, #32]
   83a74:	9b25      	ldr	r3, [sp, #148]	; 0x94
   83a76:	2b00      	cmp	r3, #0
   83a78:	f2c0 83b4 	blt.w	841e4 <_dtoa_r+0x984>
   83a7c:	e9dd 5608 	ldrd	r5, r6, [sp, #32]
   83a80:	4650      	mov	r0, sl
   83a82:	462a      	mov	r2, r5
   83a84:	4633      	mov	r3, r6
   83a86:	4659      	mov	r1, fp
   83a88:	f002 f8de 	bl	85c48 <__aeabi_ddiv>
   83a8c:	f002 fa62 	bl	85f54 <__aeabi_d2iz>
   83a90:	4680      	mov	r8, r0
   83a92:	f001 ff49 	bl	85928 <__aeabi_i2d>
   83a96:	462a      	mov	r2, r5
   83a98:	4633      	mov	r3, r6
   83a9a:	f001 ffab 	bl	859f4 <__aeabi_dmul>
   83a9e:	4602      	mov	r2, r0
   83aa0:	460b      	mov	r3, r1
   83aa2:	4650      	mov	r0, sl
   83aa4:	4659      	mov	r1, fp
   83aa6:	f001 fdf1 	bl	8568c <__aeabi_dsub>
   83aaa:	9e07      	ldr	r6, [sp, #28]
   83aac:	9f04      	ldr	r7, [sp, #16]
   83aae:	f108 0530 	add.w	r5, r8, #48	; 0x30
   83ab2:	2e01      	cmp	r6, #1
   83ab4:	703d      	strb	r5, [r7, #0]
   83ab6:	4602      	mov	r2, r0
   83ab8:	460b      	mov	r3, r1
   83aba:	f107 0501 	add.w	r5, r7, #1
   83abe:	d064      	beq.n	83b8a <_dtoa_r+0x32a>
   83ac0:	2200      	movs	r2, #0
   83ac2:	4b18      	ldr	r3, [pc, #96]	; (83b24 <_dtoa_r+0x2c4>)
   83ac4:	f001 ff96 	bl	859f4 <__aeabi_dmul>
   83ac8:	2200      	movs	r2, #0
   83aca:	2300      	movs	r3, #0
   83acc:	4606      	mov	r6, r0
   83ace:	460f      	mov	r7, r1
   83ad0:	f002 f9f8 	bl	85ec4 <__aeabi_dcmpeq>
   83ad4:	2800      	cmp	r0, #0
   83ad6:	f040 8082 	bne.w	83bde <_dtoa_r+0x37e>
   83ada:	f8cd 9028 	str.w	r9, [sp, #40]	; 0x28
   83ade:	f04f 0a00 	mov.w	sl, #0
   83ae2:	e9dd 8908 	ldrd	r8, r9, [sp, #32]
   83ae6:	f04f 0b00 	mov.w	fp, #0
   83aea:	940b      	str	r4, [sp, #44]	; 0x2c
   83aec:	e029      	b.n	83b42 <_dtoa_r+0x2e2>
   83aee:	bf00      	nop
   83af0:	636f4361 	.word	0x636f4361
   83af4:	3fd287a7 	.word	0x3fd287a7
   83af8:	8b60c8b3 	.word	0x8b60c8b3
   83afc:	3fc68a28 	.word	0x3fc68a28
   83b00:	509f79fb 	.word	0x509f79fb
   83b04:	3fd34413 	.word	0x3fd34413
   83b08:	7ff00000 	.word	0x7ff00000
   83b0c:	000863b9 	.word	0x000863b9
   83b10:	000863dc 	.word	0x000863dc
   83b14:	000863e8 	.word	0x000863e8
   83b18:	3ff80000 	.word	0x3ff80000
   83b1c:	00086428 	.word	0x00086428
   83b20:	000863b8 	.word	0x000863b8
   83b24:	40240000 	.word	0x40240000
   83b28:	2200      	movs	r2, #0
   83b2a:	4b81      	ldr	r3, [pc, #516]	; (83d30 <_dtoa_r+0x4d0>)
   83b2c:	f001 ff62 	bl	859f4 <__aeabi_dmul>
   83b30:	4652      	mov	r2, sl
   83b32:	465b      	mov	r3, fp
   83b34:	4606      	mov	r6, r0
   83b36:	460f      	mov	r7, r1
   83b38:	f002 f9c4 	bl	85ec4 <__aeabi_dcmpeq>
   83b3c:	2800      	cmp	r0, #0
   83b3e:	f040 83ba 	bne.w	842b6 <_dtoa_r+0xa56>
   83b42:	4642      	mov	r2, r8
   83b44:	464b      	mov	r3, r9
   83b46:	4630      	mov	r0, r6
   83b48:	4639      	mov	r1, r7
   83b4a:	f002 f87d 	bl	85c48 <__aeabi_ddiv>
   83b4e:	f002 fa01 	bl	85f54 <__aeabi_d2iz>
   83b52:	4604      	mov	r4, r0
   83b54:	f001 fee8 	bl	85928 <__aeabi_i2d>
   83b58:	4642      	mov	r2, r8
   83b5a:	464b      	mov	r3, r9
   83b5c:	f001 ff4a 	bl	859f4 <__aeabi_dmul>
   83b60:	4602      	mov	r2, r0
   83b62:	460b      	mov	r3, r1
   83b64:	4630      	mov	r0, r6
   83b66:	4639      	mov	r1, r7
   83b68:	f001 fd90 	bl	8568c <__aeabi_dsub>
   83b6c:	f104 0630 	add.w	r6, r4, #48	; 0x30
   83b70:	f805 6b01 	strb.w	r6, [r5], #1
   83b74:	9e04      	ldr	r6, [sp, #16]
   83b76:	9f07      	ldr	r7, [sp, #28]
   83b78:	1bae      	subs	r6, r5, r6
   83b7a:	42be      	cmp	r6, r7
   83b7c:	4602      	mov	r2, r0
   83b7e:	460b      	mov	r3, r1
   83b80:	d1d2      	bne.n	83b28 <_dtoa_r+0x2c8>
   83b82:	46a0      	mov	r8, r4
   83b84:	f8dd 9028 	ldr.w	r9, [sp, #40]	; 0x28
   83b88:	9c0b      	ldr	r4, [sp, #44]	; 0x2c
   83b8a:	4610      	mov	r0, r2
   83b8c:	4619      	mov	r1, r3
   83b8e:	f001 fd7f 	bl	85690 <__adddf3>
   83b92:	4606      	mov	r6, r0
   83b94:	460f      	mov	r7, r1
   83b96:	4602      	mov	r2, r0
   83b98:	460b      	mov	r3, r1
   83b9a:	e9dd 0108 	ldrd	r0, r1, [sp, #32]
   83b9e:	f002 f99b 	bl	85ed8 <__aeabi_dcmplt>
   83ba2:	b948      	cbnz	r0, 83bb8 <_dtoa_r+0x358>
   83ba4:	e9dd 0108 	ldrd	r0, r1, [sp, #32]
   83ba8:	4632      	mov	r2, r6
   83baa:	463b      	mov	r3, r7
   83bac:	f002 f98a 	bl	85ec4 <__aeabi_dcmpeq>
   83bb0:	b1a8      	cbz	r0, 83bde <_dtoa_r+0x37e>
   83bb2:	f018 0f01 	tst.w	r8, #1
   83bb6:	d012      	beq.n	83bde <_dtoa_r+0x37e>
   83bb8:	f815 8c01 	ldrb.w	r8, [r5, #-1]
   83bbc:	1e6b      	subs	r3, r5, #1
   83bbe:	9a04      	ldr	r2, [sp, #16]
   83bc0:	e004      	b.n	83bcc <_dtoa_r+0x36c>
   83bc2:	429a      	cmp	r2, r3
   83bc4:	f000 8402 	beq.w	843cc <_dtoa_r+0xb6c>
   83bc8:	f813 8d01 	ldrb.w	r8, [r3, #-1]!
   83bcc:	f1b8 0f39 	cmp.w	r8, #57	; 0x39
   83bd0:	f103 0501 	add.w	r5, r3, #1
   83bd4:	d0f5      	beq.n	83bc2 <_dtoa_r+0x362>
   83bd6:	f108 0801 	add.w	r8, r8, #1
   83bda:	f883 8000 	strb.w	r8, [r3]
   83bde:	4649      	mov	r1, r9
   83be0:	4620      	mov	r0, r4
   83be2:	f000 ffa7 	bl	84b34 <_Bfree>
   83be6:	2200      	movs	r2, #0
   83be8:	9b02      	ldr	r3, [sp, #8]
   83bea:	702a      	strb	r2, [r5, #0]
   83bec:	9a26      	ldr	r2, [sp, #152]	; 0x98
   83bee:	3301      	adds	r3, #1
   83bf0:	6013      	str	r3, [r2, #0]
   83bf2:	9b28      	ldr	r3, [sp, #160]	; 0xa0
   83bf4:	2b00      	cmp	r3, #0
   83bf6:	f000 839f 	beq.w	84338 <_dtoa_r+0xad8>
   83bfa:	9804      	ldr	r0, [sp, #16]
   83bfc:	601d      	str	r5, [r3, #0]
   83bfe:	b01b      	add	sp, #108	; 0x6c
   83c00:	e8bd 8ff0 	ldmia.w	sp!, {r4, r5, r6, r7, r8, r9, sl, fp, pc}
   83c04:	9a0b      	ldr	r2, [sp, #44]	; 0x2c
   83c06:	2a00      	cmp	r2, #0
   83c08:	d03e      	beq.n	83c88 <_dtoa_r+0x428>
   83c0a:	9a24      	ldr	r2, [sp, #144]	; 0x90
   83c0c:	2a01      	cmp	r2, #1
   83c0e:	f340 8311 	ble.w	84234 <_dtoa_r+0x9d4>
   83c12:	9b07      	ldr	r3, [sp, #28]
   83c14:	9a0c      	ldr	r2, [sp, #48]	; 0x30
   83c16:	1e5f      	subs	r7, r3, #1
   83c18:	42ba      	cmp	r2, r7
   83c1a:	f2c0 8390 	blt.w	8433e <_dtoa_r+0xade>
   83c1e:	1bd7      	subs	r7, r2, r7
   83c20:	9b07      	ldr	r3, [sp, #28]
   83c22:	2b00      	cmp	r3, #0
   83c24:	f2c0 848c 	blt.w	84540 <_dtoa_r+0xce0>
   83c28:	9d0a      	ldr	r5, [sp, #40]	; 0x28
   83c2a:	9b07      	ldr	r3, [sp, #28]
   83c2c:	9a0a      	ldr	r2, [sp, #40]	; 0x28
   83c2e:	2101      	movs	r1, #1
   83c30:	441a      	add	r2, r3
   83c32:	920a      	str	r2, [sp, #40]	; 0x28
   83c34:	9a08      	ldr	r2, [sp, #32]
   83c36:	4620      	mov	r0, r4
   83c38:	441a      	add	r2, r3
   83c3a:	9208      	str	r2, [sp, #32]
   83c3c:	f001 f816 	bl	84c6c <__i2b>
   83c40:	4606      	mov	r6, r0
   83c42:	e023      	b.n	83c8c <_dtoa_r+0x42c>
   83c44:	2301      	movs	r3, #1
   83c46:	930e      	str	r3, [sp, #56]	; 0x38
   83c48:	e6b5      	b.n	839b6 <_dtoa_r+0x156>
   83c4a:	2300      	movs	r3, #0
   83c4c:	9a0a      	ldr	r2, [sp, #40]	; 0x28
   83c4e:	930d      	str	r3, [sp, #52]	; 0x34
   83c50:	9b02      	ldr	r3, [sp, #8]
   83c52:	1ad2      	subs	r2, r2, r3
   83c54:	425b      	negs	r3, r3
   83c56:	920a      	str	r2, [sp, #40]	; 0x28
   83c58:	930c      	str	r3, [sp, #48]	; 0x30
   83c5a:	e6be      	b.n	839da <_dtoa_r+0x17a>
   83c5c:	f1c7 0301 	rsb	r3, r7, #1
   83c60:	930a      	str	r3, [sp, #40]	; 0x28
   83c62:	2300      	movs	r3, #0
   83c64:	9308      	str	r3, [sp, #32]
   83c66:	e6ad      	b.n	839c4 <_dtoa_r+0x164>
   83c68:	9d02      	ldr	r5, [sp, #8]
   83c6a:	4628      	mov	r0, r5
   83c6c:	f001 fe5c 	bl	85928 <__aeabi_i2d>
   83c70:	4602      	mov	r2, r0
   83c72:	460b      	mov	r3, r1
   83c74:	e9dd 0104 	ldrd	r0, r1, [sp, #16]
   83c78:	f002 f924 	bl	85ec4 <__aeabi_dcmpeq>
   83c7c:	2800      	cmp	r0, #0
   83c7e:	f47f ae86 	bne.w	8398e <_dtoa_r+0x12e>
   83c82:	1e6b      	subs	r3, r5, #1
   83c84:	9302      	str	r3, [sp, #8]
   83c86:	e682      	b.n	8398e <_dtoa_r+0x12e>
   83c88:	ad0a      	add	r5, sp, #40	; 0x28
   83c8a:	cde0      	ldmia	r5, {r5, r6, r7}
   83c8c:	2d00      	cmp	r5, #0
   83c8e:	dd0c      	ble.n	83caa <_dtoa_r+0x44a>
   83c90:	9908      	ldr	r1, [sp, #32]
   83c92:	2900      	cmp	r1, #0
   83c94:	460b      	mov	r3, r1
   83c96:	dd08      	ble.n	83caa <_dtoa_r+0x44a>
   83c98:	42a9      	cmp	r1, r5
   83c9a:	bfa8      	it	ge
   83c9c:	462b      	movge	r3, r5
   83c9e:	9a0a      	ldr	r2, [sp, #40]	; 0x28
   83ca0:	1aed      	subs	r5, r5, r3
   83ca2:	1ad2      	subs	r2, r2, r3
   83ca4:	1acb      	subs	r3, r1, r3
   83ca6:	920a      	str	r2, [sp, #40]	; 0x28
   83ca8:	9308      	str	r3, [sp, #32]
   83caa:	9b0c      	ldr	r3, [sp, #48]	; 0x30
   83cac:	b1d3      	cbz	r3, 83ce4 <_dtoa_r+0x484>
   83cae:	9b0b      	ldr	r3, [sp, #44]	; 0x2c
   83cb0:	2b00      	cmp	r3, #0
   83cb2:	f000 82b8 	beq.w	84226 <_dtoa_r+0x9c6>
   83cb6:	2f00      	cmp	r7, #0
   83cb8:	dd10      	ble.n	83cdc <_dtoa_r+0x47c>
   83cba:	4631      	mov	r1, r6
   83cbc:	463a      	mov	r2, r7
   83cbe:	4620      	mov	r0, r4
   83cc0:	f001 f870 	bl	84da4 <__pow5mult>
   83cc4:	464a      	mov	r2, r9
   83cc6:	4601      	mov	r1, r0
   83cc8:	4606      	mov	r6, r0
   83cca:	4620      	mov	r0, r4
   83ccc:	f000 ffd8 	bl	84c80 <__multiply>
   83cd0:	4603      	mov	r3, r0
   83cd2:	4649      	mov	r1, r9
   83cd4:	4620      	mov	r0, r4
   83cd6:	4699      	mov	r9, r3
   83cd8:	f000 ff2c 	bl	84b34 <_Bfree>
   83cdc:	9b0c      	ldr	r3, [sp, #48]	; 0x30
   83cde:	1bda      	subs	r2, r3, r7
   83ce0:	f040 82a2 	bne.w	84228 <_dtoa_r+0x9c8>
   83ce4:	2101      	movs	r1, #1
   83ce6:	4620      	mov	r0, r4
   83ce8:	f000 ffc0 	bl	84c6c <__i2b>
   83cec:	9b0d      	ldr	r3, [sp, #52]	; 0x34
   83cee:	4680      	mov	r8, r0
   83cf0:	2b00      	cmp	r3, #0
   83cf2:	dd1f      	ble.n	83d34 <_dtoa_r+0x4d4>
   83cf4:	4601      	mov	r1, r0
   83cf6:	461a      	mov	r2, r3
   83cf8:	4620      	mov	r0, r4
   83cfa:	f001 f853 	bl	84da4 <__pow5mult>
   83cfe:	9b24      	ldr	r3, [sp, #144]	; 0x90
   83d00:	4680      	mov	r8, r0
   83d02:	2b01      	cmp	r3, #1
   83d04:	f340 8255 	ble.w	841b2 <_dtoa_r+0x952>
   83d08:	2300      	movs	r3, #0
   83d0a:	930c      	str	r3, [sp, #48]	; 0x30
   83d0c:	f8d8 3010 	ldr.w	r3, [r8, #16]
   83d10:	eb08 0383 	add.w	r3, r8, r3, lsl #2
   83d14:	6918      	ldr	r0, [r3, #16]
   83d16:	f000 ff59 	bl	84bcc <__hi0bits>
   83d1a:	f1c0 0020 	rsb	r0, r0, #32
   83d1e:	e013      	b.n	83d48 <_dtoa_r+0x4e8>
   83d20:	f1c3 0520 	rsb	r5, r3, #32
   83d24:	fa0a f005 	lsl.w	r0, sl, r5
   83d28:	e67b      	b.n	83a22 <_dtoa_r+0x1c2>
   83d2a:	900e      	str	r0, [sp, #56]	; 0x38
   83d2c:	e643      	b.n	839b6 <_dtoa_r+0x156>
   83d2e:	bf00      	nop
   83d30:	40240000 	.word	0x40240000
   83d34:	9b24      	ldr	r3, [sp, #144]	; 0x90
   83d36:	2b01      	cmp	r3, #1
   83d38:	f340 8285 	ble.w	84246 <_dtoa_r+0x9e6>
   83d3c:	2300      	movs	r3, #0
   83d3e:	930c      	str	r3, [sp, #48]	; 0x30
   83d40:	9b0d      	ldr	r3, [sp, #52]	; 0x34
   83d42:	2001      	movs	r0, #1
   83d44:	2b00      	cmp	r3, #0
   83d46:	d1e1      	bne.n	83d0c <_dtoa_r+0x4ac>
   83d48:	9a08      	ldr	r2, [sp, #32]
   83d4a:	4410      	add	r0, r2
   83d4c:	f010 001f 	ands.w	r0, r0, #31
   83d50:	f000 80a1 	beq.w	83e96 <_dtoa_r+0x636>
   83d54:	f1c0 0320 	rsb	r3, r0, #32
   83d58:	2b04      	cmp	r3, #4
   83d5a:	f340 8486 	ble.w	8466a <_dtoa_r+0xe0a>
   83d5e:	9b0a      	ldr	r3, [sp, #40]	; 0x28
   83d60:	f1c0 001c 	rsb	r0, r0, #28
   83d64:	4403      	add	r3, r0
   83d66:	930a      	str	r3, [sp, #40]	; 0x28
   83d68:	4613      	mov	r3, r2
   83d6a:	4403      	add	r3, r0
   83d6c:	4405      	add	r5, r0
   83d6e:	9308      	str	r3, [sp, #32]
   83d70:	9b0a      	ldr	r3, [sp, #40]	; 0x28
   83d72:	2b00      	cmp	r3, #0
   83d74:	dd05      	ble.n	83d82 <_dtoa_r+0x522>
   83d76:	4649      	mov	r1, r9
   83d78:	461a      	mov	r2, r3
   83d7a:	4620      	mov	r0, r4
   83d7c:	f001 f862 	bl	84e44 <__lshift>
   83d80:	4681      	mov	r9, r0
   83d82:	9b08      	ldr	r3, [sp, #32]
   83d84:	2b00      	cmp	r3, #0
   83d86:	dd05      	ble.n	83d94 <_dtoa_r+0x534>
   83d88:	4641      	mov	r1, r8
   83d8a:	461a      	mov	r2, r3
   83d8c:	4620      	mov	r0, r4
   83d8e:	f001 f859 	bl	84e44 <__lshift>
   83d92:	4680      	mov	r8, r0
   83d94:	9b0e      	ldr	r3, [sp, #56]	; 0x38
   83d96:	2b00      	cmp	r3, #0
   83d98:	f040 8086 	bne.w	83ea8 <_dtoa_r+0x648>
   83d9c:	9b07      	ldr	r3, [sp, #28]
   83d9e:	2b00      	cmp	r3, #0
   83da0:	f340 8264 	ble.w	8426c <_dtoa_r+0xa0c>
   83da4:	9b0b      	ldr	r3, [sp, #44]	; 0x2c
   83da6:	2b00      	cmp	r3, #0
   83da8:	f000 8098 	beq.w	83edc <_dtoa_r+0x67c>
   83dac:	2d00      	cmp	r5, #0
   83dae:	dd05      	ble.n	83dbc <_dtoa_r+0x55c>
   83db0:	4631      	mov	r1, r6
   83db2:	462a      	mov	r2, r5
   83db4:	4620      	mov	r0, r4
   83db6:	f001 f845 	bl	84e44 <__lshift>
   83dba:	4606      	mov	r6, r0
   83dbc:	9b0c      	ldr	r3, [sp, #48]	; 0x30
   83dbe:	2b00      	cmp	r3, #0
   83dc0:	f040 8336 	bne.w	84430 <_dtoa_r+0xbd0>
   83dc4:	9608      	str	r6, [sp, #32]
   83dc6:	9b07      	ldr	r3, [sp, #28]
   83dc8:	9a04      	ldr	r2, [sp, #16]
   83dca:	3b01      	subs	r3, #1
   83dcc:	18d3      	adds	r3, r2, r3
   83dce:	930b      	str	r3, [sp, #44]	; 0x2c
   83dd0:	4617      	mov	r7, r2
   83dd2:	f00a 0301 	and.w	r3, sl, #1
   83dd6:	46c2      	mov	sl, r8
   83dd8:	f8dd b020 	ldr.w	fp, [sp, #32]
   83ddc:	930c      	str	r3, [sp, #48]	; 0x30
   83dde:	4651      	mov	r1, sl
   83de0:	4648      	mov	r0, r9
   83de2:	f7ff fca7 	bl	83734 <quorem>
   83de6:	4631      	mov	r1, r6
   83de8:	4605      	mov	r5, r0
   83dea:	4648      	mov	r0, r9
   83dec:	f001 f87a 	bl	84ee4 <__mcmp>
   83df0:	465a      	mov	r2, fp
   83df2:	9007      	str	r0, [sp, #28]
   83df4:	4651      	mov	r1, sl
   83df6:	4620      	mov	r0, r4
   83df8:	f001 f890 	bl	84f1c <__mdiff>
   83dfc:	68c2      	ldr	r2, [r0, #12]
   83dfe:	4680      	mov	r8, r0
   83e00:	f105 0330 	add.w	r3, r5, #48	; 0x30
   83e04:	2a00      	cmp	r2, #0
   83e06:	f040 8229 	bne.w	8425c <_dtoa_r+0x9fc>
   83e0a:	4601      	mov	r1, r0
   83e0c:	4648      	mov	r0, r9
   83e0e:	930a      	str	r3, [sp, #40]	; 0x28
   83e10:	f001 f868 	bl	84ee4 <__mcmp>
   83e14:	4641      	mov	r1, r8
   83e16:	9008      	str	r0, [sp, #32]
   83e18:	4620      	mov	r0, r4
   83e1a:	f000 fe8b 	bl	84b34 <_Bfree>
   83e1e:	9a08      	ldr	r2, [sp, #32]
   83e20:	9b0a      	ldr	r3, [sp, #40]	; 0x28
   83e22:	b932      	cbnz	r2, 83e32 <_dtoa_r+0x5d2>
   83e24:	9924      	ldr	r1, [sp, #144]	; 0x90
   83e26:	b921      	cbnz	r1, 83e32 <_dtoa_r+0x5d2>
   83e28:	9a0c      	ldr	r2, [sp, #48]	; 0x30
   83e2a:	2a00      	cmp	r2, #0
   83e2c:	f000 83ee 	beq.w	8460c <_dtoa_r+0xdac>
   83e30:	9a24      	ldr	r2, [sp, #144]	; 0x90
   83e32:	9907      	ldr	r1, [sp, #28]
   83e34:	2900      	cmp	r1, #0
   83e36:	f2c0 829f 	blt.w	84378 <_dtoa_r+0xb18>
   83e3a:	d105      	bne.n	83e48 <_dtoa_r+0x5e8>
   83e3c:	9924      	ldr	r1, [sp, #144]	; 0x90
   83e3e:	b919      	cbnz	r1, 83e48 <_dtoa_r+0x5e8>
   83e40:	990c      	ldr	r1, [sp, #48]	; 0x30
   83e42:	2900      	cmp	r1, #0
   83e44:	f000 8298 	beq.w	84378 <_dtoa_r+0xb18>
   83e48:	2a00      	cmp	r2, #0
   83e4a:	f300 8305 	bgt.w	84458 <_dtoa_r+0xbf8>
   83e4e:	9a0b      	ldr	r2, [sp, #44]	; 0x2c
   83e50:	f107 0801 	add.w	r8, r7, #1
   83e54:	4297      	cmp	r7, r2
   83e56:	703b      	strb	r3, [r7, #0]
   83e58:	4645      	mov	r5, r8
   83e5a:	f000 830b 	beq.w	84474 <_dtoa_r+0xc14>
   83e5e:	4649      	mov	r1, r9
   83e60:	2300      	movs	r3, #0
   83e62:	220a      	movs	r2, #10
   83e64:	4620      	mov	r0, r4
   83e66:	f000 fe6f 	bl	84b48 <__multadd>
   83e6a:	455e      	cmp	r6, fp
   83e6c:	4681      	mov	r9, r0
   83e6e:	4631      	mov	r1, r6
   83e70:	f04f 0300 	mov.w	r3, #0
   83e74:	f04f 020a 	mov.w	r2, #10
   83e78:	4620      	mov	r0, r4
   83e7a:	f000 81e9 	beq.w	84250 <_dtoa_r+0x9f0>
   83e7e:	f000 fe63 	bl	84b48 <__multadd>
   83e82:	4659      	mov	r1, fp
   83e84:	4606      	mov	r6, r0
   83e86:	2300      	movs	r3, #0
   83e88:	220a      	movs	r2, #10
   83e8a:	4620      	mov	r0, r4
   83e8c:	f000 fe5c 	bl	84b48 <__multadd>
   83e90:	4647      	mov	r7, r8
   83e92:	4683      	mov	fp, r0
   83e94:	e7a3      	b.n	83dde <_dtoa_r+0x57e>
   83e96:	201c      	movs	r0, #28
   83e98:	9b0a      	ldr	r3, [sp, #40]	; 0x28
   83e9a:	4405      	add	r5, r0
   83e9c:	4403      	add	r3, r0
   83e9e:	930a      	str	r3, [sp, #40]	; 0x28
   83ea0:	9b08      	ldr	r3, [sp, #32]
   83ea2:	4403      	add	r3, r0
   83ea4:	9308      	str	r3, [sp, #32]
   83ea6:	e763      	b.n	83d70 <_dtoa_r+0x510>
   83ea8:	4641      	mov	r1, r8
   83eaa:	4648      	mov	r0, r9
   83eac:	f001 f81a 	bl	84ee4 <__mcmp>
   83eb0:	2800      	cmp	r0, #0
   83eb2:	f6bf af73 	bge.w	83d9c <_dtoa_r+0x53c>
   83eb6:	9f02      	ldr	r7, [sp, #8]
   83eb8:	4649      	mov	r1, r9
   83eba:	2300      	movs	r3, #0
   83ebc:	220a      	movs	r2, #10
   83ebe:	4620      	mov	r0, r4
   83ec0:	3f01      	subs	r7, #1
   83ec2:	9702      	str	r7, [sp, #8]
   83ec4:	f000 fe40 	bl	84b48 <__multadd>
   83ec8:	9b0b      	ldr	r3, [sp, #44]	; 0x2c
   83eca:	4681      	mov	r9, r0
   83ecc:	2b00      	cmp	r3, #0
   83ece:	f040 83b5 	bne.w	8463c <_dtoa_r+0xddc>
   83ed2:	9b0f      	ldr	r3, [sp, #60]	; 0x3c
   83ed4:	2b00      	cmp	r3, #0
   83ed6:	f340 83be 	ble.w	84656 <_dtoa_r+0xdf6>
   83eda:	9307      	str	r3, [sp, #28]
   83edc:	f8dd a010 	ldr.w	sl, [sp, #16]
   83ee0:	9f07      	ldr	r7, [sp, #28]
   83ee2:	4655      	mov	r5, sl
   83ee4:	e006      	b.n	83ef4 <_dtoa_r+0x694>
   83ee6:	4649      	mov	r1, r9
   83ee8:	2300      	movs	r3, #0
   83eea:	220a      	movs	r2, #10
   83eec:	4620      	mov	r0, r4
   83eee:	f000 fe2b 	bl	84b48 <__multadd>
   83ef2:	4681      	mov	r9, r0
   83ef4:	4641      	mov	r1, r8
   83ef6:	4648      	mov	r0, r9
   83ef8:	f7ff fc1c 	bl	83734 <quorem>
   83efc:	3030      	adds	r0, #48	; 0x30
   83efe:	f805 0b01 	strb.w	r0, [r5], #1
   83f02:	eba5 030a 	sub.w	r3, r5, sl
   83f06:	42bb      	cmp	r3, r7
   83f08:	dbed      	blt.n	83ee6 <_dtoa_r+0x686>
   83f0a:	9b04      	ldr	r3, [sp, #16]
   83f0c:	9a07      	ldr	r2, [sp, #28]
   83f0e:	4682      	mov	sl, r0
   83f10:	2a01      	cmp	r2, #1
   83f12:	bfac      	ite	ge
   83f14:	189b      	addge	r3, r3, r2
   83f16:	3301      	addlt	r3, #1
   83f18:	f04f 0b00 	mov.w	fp, #0
   83f1c:	461d      	mov	r5, r3
   83f1e:	4649      	mov	r1, r9
   83f20:	2201      	movs	r2, #1
   83f22:	4620      	mov	r0, r4
   83f24:	f000 ff8e 	bl	84e44 <__lshift>
   83f28:	4641      	mov	r1, r8
   83f2a:	4681      	mov	r9, r0
   83f2c:	f000 ffda 	bl	84ee4 <__mcmp>
   83f30:	2800      	cmp	r0, #0
   83f32:	f340 823f 	ble.w	843b4 <_dtoa_r+0xb54>
   83f36:	f815 2c01 	ldrb.w	r2, [r5, #-1]
   83f3a:	1e6b      	subs	r3, r5, #1
   83f3c:	9904      	ldr	r1, [sp, #16]
   83f3e:	e004      	b.n	83f4a <_dtoa_r+0x6ea>
   83f40:	428b      	cmp	r3, r1
   83f42:	f000 81ae 	beq.w	842a2 <_dtoa_r+0xa42>
   83f46:	f813 2d01 	ldrb.w	r2, [r3, #-1]!
   83f4a:	2a39      	cmp	r2, #57	; 0x39
   83f4c:	f103 0501 	add.w	r5, r3, #1
   83f50:	d0f6      	beq.n	83f40 <_dtoa_r+0x6e0>
   83f52:	3201      	adds	r2, #1
   83f54:	701a      	strb	r2, [r3, #0]
   83f56:	4641      	mov	r1, r8
   83f58:	4620      	mov	r0, r4
   83f5a:	f000 fdeb 	bl	84b34 <_Bfree>
   83f5e:	2e00      	cmp	r6, #0
   83f60:	f43f ae3d 	beq.w	83bde <_dtoa_r+0x37e>
   83f64:	f1bb 0f00 	cmp.w	fp, #0
   83f68:	d005      	beq.n	83f76 <_dtoa_r+0x716>
   83f6a:	45b3      	cmp	fp, r6
   83f6c:	d003      	beq.n	83f76 <_dtoa_r+0x716>
   83f6e:	4659      	mov	r1, fp
   83f70:	4620      	mov	r0, r4
   83f72:	f000 fddf 	bl	84b34 <_Bfree>
   83f76:	4631      	mov	r1, r6
   83f78:	4620      	mov	r0, r4
   83f7a:	f000 fddb 	bl	84b34 <_Bfree>
   83f7e:	e62e      	b.n	83bde <_dtoa_r+0x37e>
   83f80:	2300      	movs	r3, #0
   83f82:	930b      	str	r3, [sp, #44]	; 0x2c
   83f84:	9b02      	ldr	r3, [sp, #8]
   83f86:	9a25      	ldr	r2, [sp, #148]	; 0x94
   83f88:	4413      	add	r3, r2
   83f8a:	930f      	str	r3, [sp, #60]	; 0x3c
   83f8c:	3301      	adds	r3, #1
   83f8e:	2b01      	cmp	r3, #1
   83f90:	461f      	mov	r7, r3
   83f92:	461e      	mov	r6, r3
   83f94:	bfb8      	it	lt
   83f96:	2701      	movlt	r7, #1
   83f98:	9307      	str	r3, [sp, #28]
   83f9a:	2100      	movs	r1, #0
   83f9c:	2f17      	cmp	r7, #23
   83f9e:	6461      	str	r1, [r4, #68]	; 0x44
   83fa0:	d90a      	bls.n	83fb8 <_dtoa_r+0x758>
   83fa2:	2201      	movs	r2, #1
   83fa4:	2304      	movs	r3, #4
   83fa6:	005b      	lsls	r3, r3, #1
   83fa8:	f103 0014 	add.w	r0, r3, #20
   83fac:	4287      	cmp	r7, r0
   83fae:	4611      	mov	r1, r2
   83fb0:	f102 0201 	add.w	r2, r2, #1
   83fb4:	d2f7      	bcs.n	83fa6 <_dtoa_r+0x746>
   83fb6:	6461      	str	r1, [r4, #68]	; 0x44
   83fb8:	4620      	mov	r0, r4
   83fba:	f000 fd95 	bl	84ae8 <_Balloc>
   83fbe:	2e0e      	cmp	r6, #14
   83fc0:	9004      	str	r0, [sp, #16]
   83fc2:	6420      	str	r0, [r4, #64]	; 0x40
   83fc4:	f63f ad47 	bhi.w	83a56 <_dtoa_r+0x1f6>
   83fc8:	2d00      	cmp	r5, #0
   83fca:	f43f ad44 	beq.w	83a56 <_dtoa_r+0x1f6>
   83fce:	9902      	ldr	r1, [sp, #8]
   83fd0:	e9cd ab10 	strd	sl, fp, [sp, #64]	; 0x40
   83fd4:	2900      	cmp	r1, #0
   83fd6:	f340 8203 	ble.w	843e0 <_dtoa_r+0xb80>
   83fda:	4bb9      	ldr	r3, [pc, #740]	; (842c0 <_dtoa_r+0xa60>)
   83fdc:	f001 020f 	and.w	r2, r1, #15
   83fe0:	110d      	asrs	r5, r1, #4
   83fe2:	eb03 03c2 	add.w	r3, r3, r2, lsl #3
   83fe6:	06e9      	lsls	r1, r5, #27
   83fe8:	e9d3 6700 	ldrd	r6, r7, [r3]
   83fec:	f140 81af 	bpl.w	8434e <_dtoa_r+0xaee>
   83ff0:	4bb4      	ldr	r3, [pc, #720]	; (842c4 <_dtoa_r+0xa64>)
   83ff2:	4650      	mov	r0, sl
   83ff4:	e9d3 2308 	ldrd	r2, r3, [r3, #32]
   83ff8:	4659      	mov	r1, fp
   83ffa:	f001 fe25 	bl	85c48 <__aeabi_ddiv>
   83ffe:	f04f 0a03 	mov.w	sl, #3
   84002:	e9cd 0112 	strd	r0, r1, [sp, #72]	; 0x48
   84006:	f005 050f 	and.w	r5, r5, #15
   8400a:	b18d      	cbz	r5, 84030 <_dtoa_r+0x7d0>
   8400c:	f8df 82b4 	ldr.w	r8, [pc, #692]	; 842c4 <_dtoa_r+0xa64>
   84010:	07ea      	lsls	r2, r5, #31
   84012:	d509      	bpl.n	84028 <_dtoa_r+0x7c8>
   84014:	e9d8 2300 	ldrd	r2, r3, [r8]
   84018:	4630      	mov	r0, r6
   8401a:	4639      	mov	r1, r7
   8401c:	f001 fcea 	bl	859f4 <__aeabi_dmul>
   84020:	4606      	mov	r6, r0
   84022:	460f      	mov	r7, r1
   84024:	f10a 0a01 	add.w	sl, sl, #1
   84028:	106d      	asrs	r5, r5, #1
   8402a:	f108 0808 	add.w	r8, r8, #8
   8402e:	d1ef      	bne.n	84010 <_dtoa_r+0x7b0>
   84030:	463b      	mov	r3, r7
   84032:	e9dd 0112 	ldrd	r0, r1, [sp, #72]	; 0x48
   84036:	4632      	mov	r2, r6
   84038:	f001 fe06 	bl	85c48 <__aeabi_ddiv>
   8403c:	4607      	mov	r7, r0
   8403e:	4688      	mov	r8, r1
   84040:	9b0e      	ldr	r3, [sp, #56]	; 0x38
   84042:	b143      	cbz	r3, 84056 <_dtoa_r+0x7f6>
   84044:	2200      	movs	r2, #0
   84046:	4ba0      	ldr	r3, [pc, #640]	; (842c8 <_dtoa_r+0xa68>)
   84048:	4638      	mov	r0, r7
   8404a:	4641      	mov	r1, r8
   8404c:	f001 ff44 	bl	85ed8 <__aeabi_dcmplt>
   84050:	2800      	cmp	r0, #0
   84052:	f040 8287 	bne.w	84564 <_dtoa_r+0xd04>
   84056:	4650      	mov	r0, sl
   84058:	f001 fc66 	bl	85928 <__aeabi_i2d>
   8405c:	463a      	mov	r2, r7
   8405e:	4643      	mov	r3, r8
   84060:	f001 fcc8 	bl	859f4 <__aeabi_dmul>
   84064:	4b99      	ldr	r3, [pc, #612]	; (842cc <_dtoa_r+0xa6c>)
   84066:	2200      	movs	r2, #0
   84068:	f001 fb12 	bl	85690 <__adddf3>
   8406c:	9b07      	ldr	r3, [sp, #28]
   8406e:	4605      	mov	r5, r0
   84070:	f1a1 7650 	sub.w	r6, r1, #54525952	; 0x3400000
   84074:	2b00      	cmp	r3, #0
   84076:	f000 813f 	beq.w	842f8 <_dtoa_r+0xa98>
   8407a:	9b02      	ldr	r3, [sp, #8]
   8407c:	9315      	str	r3, [sp, #84]	; 0x54
   8407e:	9b07      	ldr	r3, [sp, #28]
   84080:	9312      	str	r3, [sp, #72]	; 0x48
   84082:	9b0b      	ldr	r3, [sp, #44]	; 0x2c
   84084:	2b00      	cmp	r3, #0
   84086:	f000 81fb 	beq.w	84480 <_dtoa_r+0xc20>
   8408a:	9a12      	ldr	r2, [sp, #72]	; 0x48
   8408c:	4b8c      	ldr	r3, [pc, #560]	; (842c0 <_dtoa_r+0xa60>)
   8408e:	2000      	movs	r0, #0
   84090:	eb03 03c2 	add.w	r3, r3, r2, lsl #3
   84094:	e953 2302 	ldrd	r2, r3, [r3, #-8]
   84098:	498d      	ldr	r1, [pc, #564]	; (842d0 <_dtoa_r+0xa70>)
   8409a:	f001 fdd5 	bl	85c48 <__aeabi_ddiv>
   8409e:	462a      	mov	r2, r5
   840a0:	4633      	mov	r3, r6
   840a2:	f001 faf3 	bl	8568c <__aeabi_dsub>
   840a6:	4682      	mov	sl, r0
   840a8:	468b      	mov	fp, r1
   840aa:	4638      	mov	r0, r7
   840ac:	4641      	mov	r1, r8
   840ae:	f001 ff51 	bl	85f54 <__aeabi_d2iz>
   840b2:	4605      	mov	r5, r0
   840b4:	f001 fc38 	bl	85928 <__aeabi_i2d>
   840b8:	4602      	mov	r2, r0
   840ba:	460b      	mov	r3, r1
   840bc:	4638      	mov	r0, r7
   840be:	4641      	mov	r1, r8
   840c0:	f001 fae4 	bl	8568c <__aeabi_dsub>
   840c4:	3530      	adds	r5, #48	; 0x30
   840c6:	fa5f f885 	uxtb.w	r8, r5
   840ca:	9d04      	ldr	r5, [sp, #16]
   840cc:	4606      	mov	r6, r0
   840ce:	460f      	mov	r7, r1
   840d0:	f885 8000 	strb.w	r8, [r5]
   840d4:	4602      	mov	r2, r0
   840d6:	460b      	mov	r3, r1
   840d8:	4650      	mov	r0, sl
   840da:	4659      	mov	r1, fp
   840dc:	3501      	adds	r5, #1
   840de:	f001 ff19 	bl	85f14 <__aeabi_dcmpgt>
   840e2:	2800      	cmp	r0, #0
   840e4:	d154      	bne.n	84190 <_dtoa_r+0x930>
   840e6:	4632      	mov	r2, r6
   840e8:	463b      	mov	r3, r7
   840ea:	2000      	movs	r0, #0
   840ec:	4976      	ldr	r1, [pc, #472]	; (842c8 <_dtoa_r+0xa68>)
   840ee:	f001 facd 	bl	8568c <__aeabi_dsub>
   840f2:	4602      	mov	r2, r0
   840f4:	460b      	mov	r3, r1
   840f6:	4650      	mov	r0, sl
   840f8:	4659      	mov	r1, fp
   840fa:	f001 ff0b 	bl	85f14 <__aeabi_dcmpgt>
   840fe:	2800      	cmp	r0, #0
   84100:	f040 8270 	bne.w	845e4 <_dtoa_r+0xd84>
   84104:	9a12      	ldr	r2, [sp, #72]	; 0x48
   84106:	2a01      	cmp	r2, #1
   84108:	f000 8112 	beq.w	84330 <_dtoa_r+0xad0>
   8410c:	9b12      	ldr	r3, [sp, #72]	; 0x48
   8410e:	9a04      	ldr	r2, [sp, #16]
   84110:	f8cd 9048 	str.w	r9, [sp, #72]	; 0x48
   84114:	4413      	add	r3, r2
   84116:	4699      	mov	r9, r3
   84118:	e00f      	b.n	8413a <_dtoa_r+0x8da>
   8411a:	4632      	mov	r2, r6
   8411c:	463b      	mov	r3, r7
   8411e:	2000      	movs	r0, #0
   84120:	4969      	ldr	r1, [pc, #420]	; (842c8 <_dtoa_r+0xa68>)
   84122:	f001 fab3 	bl	8568c <__aeabi_dsub>
   84126:	4652      	mov	r2, sl
   84128:	465b      	mov	r3, fp
   8412a:	f001 fed5 	bl	85ed8 <__aeabi_dcmplt>
   8412e:	2800      	cmp	r0, #0
   84130:	f040 8256 	bne.w	845e0 <_dtoa_r+0xd80>
   84134:	454d      	cmp	r5, r9
   84136:	f000 80f9 	beq.w	8432c <_dtoa_r+0xacc>
   8413a:	4650      	mov	r0, sl
   8413c:	4659      	mov	r1, fp
   8413e:	2200      	movs	r2, #0
   84140:	4b64      	ldr	r3, [pc, #400]	; (842d4 <_dtoa_r+0xa74>)
   84142:	f001 fc57 	bl	859f4 <__aeabi_dmul>
   84146:	2200      	movs	r2, #0
   84148:	4b62      	ldr	r3, [pc, #392]	; (842d4 <_dtoa_r+0xa74>)
   8414a:	4682      	mov	sl, r0
   8414c:	468b      	mov	fp, r1
   8414e:	4630      	mov	r0, r6
   84150:	4639      	mov	r1, r7
   84152:	f001 fc4f 	bl	859f4 <__aeabi_dmul>
   84156:	460f      	mov	r7, r1
   84158:	4606      	mov	r6, r0
   8415a:	f001 fefb 	bl	85f54 <__aeabi_d2iz>
   8415e:	4680      	mov	r8, r0
   84160:	f001 fbe2 	bl	85928 <__aeabi_i2d>
   84164:	4602      	mov	r2, r0
   84166:	460b      	mov	r3, r1
   84168:	4630      	mov	r0, r6
   8416a:	4639      	mov	r1, r7
   8416c:	f001 fa8e 	bl	8568c <__aeabi_dsub>
   84170:	f108 0830 	add.w	r8, r8, #48	; 0x30
   84174:	fa5f f888 	uxtb.w	r8, r8
   84178:	f805 8b01 	strb.w	r8, [r5], #1
   8417c:	4652      	mov	r2, sl
   8417e:	465b      	mov	r3, fp
   84180:	4606      	mov	r6, r0
   84182:	460f      	mov	r7, r1
   84184:	f001 fea8 	bl	85ed8 <__aeabi_dcmplt>
   84188:	2800      	cmp	r0, #0
   8418a:	d0c6      	beq.n	8411a <_dtoa_r+0x8ba>
   8418c:	f8dd 9048 	ldr.w	r9, [sp, #72]	; 0x48
   84190:	9b15      	ldr	r3, [sp, #84]	; 0x54
   84192:	9302      	str	r3, [sp, #8]
   84194:	e523      	b.n	83bde <_dtoa_r+0x37e>
   84196:	2300      	movs	r3, #0
   84198:	930b      	str	r3, [sp, #44]	; 0x2c
   8419a:	9b25      	ldr	r3, [sp, #148]	; 0x94
   8419c:	2b00      	cmp	r3, #0
   8419e:	f340 80dd 	ble.w	8435c <_dtoa_r+0xafc>
   841a2:	461f      	mov	r7, r3
   841a4:	461e      	mov	r6, r3
   841a6:	930f      	str	r3, [sp, #60]	; 0x3c
   841a8:	9307      	str	r3, [sp, #28]
   841aa:	e6f6      	b.n	83f9a <_dtoa_r+0x73a>
   841ac:	2301      	movs	r3, #1
   841ae:	930b      	str	r3, [sp, #44]	; 0x2c
   841b0:	e7f3      	b.n	8419a <_dtoa_r+0x93a>
   841b2:	f1ba 0f00 	cmp.w	sl, #0
   841b6:	f47f ada7 	bne.w	83d08 <_dtoa_r+0x4a8>
   841ba:	f3cb 0313 	ubfx	r3, fp, #0, #20
   841be:	2b00      	cmp	r3, #0
   841c0:	f47f adbc 	bne.w	83d3c <_dtoa_r+0x4dc>
   841c4:	f02b 4700 	bic.w	r7, fp, #2147483648	; 0x80000000
   841c8:	0d3f      	lsrs	r7, r7, #20
   841ca:	053f      	lsls	r7, r7, #20
   841cc:	2f00      	cmp	r7, #0
   841ce:	f000 820d 	beq.w	845ec <_dtoa_r+0xd8c>
   841d2:	9b0a      	ldr	r3, [sp, #40]	; 0x28
   841d4:	3301      	adds	r3, #1
   841d6:	930a      	str	r3, [sp, #40]	; 0x28
   841d8:	9b08      	ldr	r3, [sp, #32]
   841da:	3301      	adds	r3, #1
   841dc:	9308      	str	r3, [sp, #32]
   841de:	2301      	movs	r3, #1
   841e0:	930c      	str	r3, [sp, #48]	; 0x30
   841e2:	e5ad      	b.n	83d40 <_dtoa_r+0x4e0>
   841e4:	9b07      	ldr	r3, [sp, #28]
   841e6:	2b00      	cmp	r3, #0
   841e8:	f73f ac48 	bgt.w	83a7c <_dtoa_r+0x21c>
   841ec:	f040 8222 	bne.w	84634 <_dtoa_r+0xdd4>
   841f0:	e9dd 0108 	ldrd	r0, r1, [sp, #32]
   841f4:	2200      	movs	r2, #0
   841f6:	4b38      	ldr	r3, [pc, #224]	; (842d8 <_dtoa_r+0xa78>)
   841f8:	f001 fbfc 	bl	859f4 <__aeabi_dmul>
   841fc:	4652      	mov	r2, sl
   841fe:	465b      	mov	r3, fp
   84200:	f001 fe7e 	bl	85f00 <__aeabi_dcmpge>
   84204:	f8dd 801c 	ldr.w	r8, [sp, #28]
   84208:	4646      	mov	r6, r8
   8420a:	2800      	cmp	r0, #0
   8420c:	d041      	beq.n	84292 <_dtoa_r+0xa32>
   8420e:	9b25      	ldr	r3, [sp, #148]	; 0x94
   84210:	9d04      	ldr	r5, [sp, #16]
   84212:	43db      	mvns	r3, r3
   84214:	9302      	str	r3, [sp, #8]
   84216:	4641      	mov	r1, r8
   84218:	4620      	mov	r0, r4
   8421a:	f000 fc8b 	bl	84b34 <_Bfree>
   8421e:	2e00      	cmp	r6, #0
   84220:	f43f acdd 	beq.w	83bde <_dtoa_r+0x37e>
   84224:	e6a7      	b.n	83f76 <_dtoa_r+0x716>
   84226:	9a0c      	ldr	r2, [sp, #48]	; 0x30
   84228:	4649      	mov	r1, r9
   8422a:	4620      	mov	r0, r4
   8422c:	f000 fdba 	bl	84da4 <__pow5mult>
   84230:	4681      	mov	r9, r0
   84232:	e557      	b.n	83ce4 <_dtoa_r+0x484>
   84234:	9a14      	ldr	r2, [sp, #80]	; 0x50
   84236:	2a00      	cmp	r2, #0
   84238:	f000 8188 	beq.w	8454c <_dtoa_r+0xcec>
   8423c:	f203 4333 	addw	r3, r3, #1075	; 0x433
   84240:	9f0c      	ldr	r7, [sp, #48]	; 0x30
   84242:	9d0a      	ldr	r5, [sp, #40]	; 0x28
   84244:	e4f2      	b.n	83c2c <_dtoa_r+0x3cc>
   84246:	f1ba 0f00 	cmp.w	sl, #0
   8424a:	f47f ad77 	bne.w	83d3c <_dtoa_r+0x4dc>
   8424e:	e7b4      	b.n	841ba <_dtoa_r+0x95a>
   84250:	f000 fc7a 	bl	84b48 <__multadd>
   84254:	4647      	mov	r7, r8
   84256:	4606      	mov	r6, r0
   84258:	4683      	mov	fp, r0
   8425a:	e5c0      	b.n	83dde <_dtoa_r+0x57e>
   8425c:	4601      	mov	r1, r0
   8425e:	4620      	mov	r0, r4
   84260:	9308      	str	r3, [sp, #32]
   84262:	f000 fc67 	bl	84b34 <_Bfree>
   84266:	2201      	movs	r2, #1
   84268:	9b08      	ldr	r3, [sp, #32]
   8426a:	e5e2      	b.n	83e32 <_dtoa_r+0x5d2>
   8426c:	9b24      	ldr	r3, [sp, #144]	; 0x90
   8426e:	2b02      	cmp	r3, #2
   84270:	f77f ad98 	ble.w	83da4 <_dtoa_r+0x544>
   84274:	9b07      	ldr	r3, [sp, #28]
   84276:	2b00      	cmp	r3, #0
   84278:	d1c9      	bne.n	8420e <_dtoa_r+0x9ae>
   8427a:	4641      	mov	r1, r8
   8427c:	2205      	movs	r2, #5
   8427e:	4620      	mov	r0, r4
   84280:	f000 fc62 	bl	84b48 <__multadd>
   84284:	4601      	mov	r1, r0
   84286:	4680      	mov	r8, r0
   84288:	4648      	mov	r0, r9
   8428a:	f000 fe2b 	bl	84ee4 <__mcmp>
   8428e:	2800      	cmp	r0, #0
   84290:	ddbd      	ble.n	8420e <_dtoa_r+0x9ae>
   84292:	2331      	movs	r3, #49	; 0x31
   84294:	9a02      	ldr	r2, [sp, #8]
   84296:	9904      	ldr	r1, [sp, #16]
   84298:	3201      	adds	r2, #1
   8429a:	9202      	str	r2, [sp, #8]
   8429c:	700b      	strb	r3, [r1, #0]
   8429e:	1c4d      	adds	r5, r1, #1
   842a0:	e7b9      	b.n	84216 <_dtoa_r+0x9b6>
   842a2:	2331      	movs	r3, #49	; 0x31
   842a4:	9a02      	ldr	r2, [sp, #8]
   842a6:	3201      	adds	r2, #1
   842a8:	9202      	str	r2, [sp, #8]
   842aa:	9a04      	ldr	r2, [sp, #16]
   842ac:	7013      	strb	r3, [r2, #0]
   842ae:	e652      	b.n	83f56 <_dtoa_r+0x6f6>
   842b0:	2301      	movs	r3, #1
   842b2:	930b      	str	r3, [sp, #44]	; 0x2c
   842b4:	e666      	b.n	83f84 <_dtoa_r+0x724>
   842b6:	f8dd 9028 	ldr.w	r9, [sp, #40]	; 0x28
   842ba:	9c0b      	ldr	r4, [sp, #44]	; 0x2c
   842bc:	e48f      	b.n	83bde <_dtoa_r+0x37e>
   842be:	bf00      	nop
   842c0:	00086428 	.word	0x00086428
   842c4:	00086400 	.word	0x00086400
   842c8:	3ff00000 	.word	0x3ff00000
   842cc:	401c0000 	.word	0x401c0000
   842d0:	3fe00000 	.word	0x3fe00000
   842d4:	40240000 	.word	0x40240000
   842d8:	40140000 	.word	0x40140000
   842dc:	4650      	mov	r0, sl
   842de:	f001 fb23 	bl	85928 <__aeabi_i2d>
   842e2:	463a      	mov	r2, r7
   842e4:	4643      	mov	r3, r8
   842e6:	f001 fb85 	bl	859f4 <__aeabi_dmul>
   842ea:	2200      	movs	r2, #0
   842ec:	4bc1      	ldr	r3, [pc, #772]	; (845f4 <_dtoa_r+0xd94>)
   842ee:	f001 f9cf 	bl	85690 <__adddf3>
   842f2:	4605      	mov	r5, r0
   842f4:	f1a1 7650 	sub.w	r6, r1, #54525952	; 0x3400000
   842f8:	4641      	mov	r1, r8
   842fa:	2200      	movs	r2, #0
   842fc:	4bbe      	ldr	r3, [pc, #760]	; (845f8 <_dtoa_r+0xd98>)
   842fe:	4638      	mov	r0, r7
   84300:	f001 f9c4 	bl	8568c <__aeabi_dsub>
   84304:	462a      	mov	r2, r5
   84306:	4633      	mov	r3, r6
   84308:	4682      	mov	sl, r0
   8430a:	468b      	mov	fp, r1
   8430c:	f001 fe02 	bl	85f14 <__aeabi_dcmpgt>
   84310:	4680      	mov	r8, r0
   84312:	2800      	cmp	r0, #0
   84314:	f040 8110 	bne.w	84538 <_dtoa_r+0xcd8>
   84318:	462a      	mov	r2, r5
   8431a:	f106 4300 	add.w	r3, r6, #2147483648	; 0x80000000
   8431e:	4650      	mov	r0, sl
   84320:	4659      	mov	r1, fp
   84322:	f001 fdd9 	bl	85ed8 <__aeabi_dcmplt>
   84326:	b118      	cbz	r0, 84330 <_dtoa_r+0xad0>
   84328:	4646      	mov	r6, r8
   8432a:	e770      	b.n	8420e <_dtoa_r+0x9ae>
   8432c:	f8dd 9048 	ldr.w	r9, [sp, #72]	; 0x48
   84330:	e9dd ab10 	ldrd	sl, fp, [sp, #64]	; 0x40
   84334:	f7ff bb8f 	b.w	83a56 <_dtoa_r+0x1f6>
   84338:	9804      	ldr	r0, [sp, #16]
   8433a:	f7ff bac0 	b.w	838be <_dtoa_r+0x5e>
   8433e:	9b0c      	ldr	r3, [sp, #48]	; 0x30
   84340:	9a0d      	ldr	r2, [sp, #52]	; 0x34
   84342:	1afb      	subs	r3, r7, r3
   84344:	441a      	add	r2, r3
   84346:	970c      	str	r7, [sp, #48]	; 0x30
   84348:	920d      	str	r2, [sp, #52]	; 0x34
   8434a:	2700      	movs	r7, #0
   8434c:	e468      	b.n	83c20 <_dtoa_r+0x3c0>
   8434e:	e9dd 2310 	ldrd	r2, r3, [sp, #64]	; 0x40
   84352:	f04f 0a02 	mov.w	sl, #2
   84356:	e9cd 2312 	strd	r2, r3, [sp, #72]	; 0x48
   8435a:	e656      	b.n	8400a <_dtoa_r+0x7aa>
   8435c:	2100      	movs	r1, #0
   8435e:	2301      	movs	r3, #1
   84360:	4620      	mov	r0, r4
   84362:	6461      	str	r1, [r4, #68]	; 0x44
   84364:	9325      	str	r3, [sp, #148]	; 0x94
   84366:	f000 fbbf 	bl	84ae8 <_Balloc>
   8436a:	9b25      	ldr	r3, [sp, #148]	; 0x94
   8436c:	9004      	str	r0, [sp, #16]
   8436e:	9307      	str	r3, [sp, #28]
   84370:	9b25      	ldr	r3, [sp, #148]	; 0x94
   84372:	6420      	str	r0, [r4, #64]	; 0x40
   84374:	930f      	str	r3, [sp, #60]	; 0x3c
   84376:	e627      	b.n	83fc8 <_dtoa_r+0x768>
   84378:	2a00      	cmp	r2, #0
   8437a:	46d0      	mov	r8, sl
   8437c:	f8cd b020 	str.w	fp, [sp, #32]
   84380:	469a      	mov	sl, r3
   84382:	dd11      	ble.n	843a8 <_dtoa_r+0xb48>
   84384:	4649      	mov	r1, r9
   84386:	2201      	movs	r2, #1
   84388:	4620      	mov	r0, r4
   8438a:	f000 fd5b 	bl	84e44 <__lshift>
   8438e:	4641      	mov	r1, r8
   84390:	4681      	mov	r9, r0
   84392:	f000 fda7 	bl	84ee4 <__mcmp>
   84396:	2800      	cmp	r0, #0
   84398:	f340 8145 	ble.w	84626 <_dtoa_r+0xdc6>
   8439c:	f1ba 0f39 	cmp.w	sl, #57	; 0x39
   843a0:	f000 8105 	beq.w	845ae <_dtoa_r+0xd4e>
   843a4:	f105 0a31 	add.w	sl, r5, #49	; 0x31
   843a8:	46b3      	mov	fp, r6
   843aa:	f887 a000 	strb.w	sl, [r7]
   843ae:	1c7d      	adds	r5, r7, #1
   843b0:	9e08      	ldr	r6, [sp, #32]
   843b2:	e5d0      	b.n	83f56 <_dtoa_r+0x6f6>
   843b4:	d104      	bne.n	843c0 <_dtoa_r+0xb60>
   843b6:	f01a 0f01 	tst.w	sl, #1
   843ba:	d001      	beq.n	843c0 <_dtoa_r+0xb60>
   843bc:	e5bb      	b.n	83f36 <_dtoa_r+0x6d6>
   843be:	4615      	mov	r5, r2
   843c0:	f815 3c01 	ldrb.w	r3, [r5, #-1]
   843c4:	1e6a      	subs	r2, r5, #1
   843c6:	2b30      	cmp	r3, #48	; 0x30
   843c8:	d0f9      	beq.n	843be <_dtoa_r+0xb5e>
   843ca:	e5c4      	b.n	83f56 <_dtoa_r+0x6f6>
   843cc:	2230      	movs	r2, #48	; 0x30
   843ce:	9904      	ldr	r1, [sp, #16]
   843d0:	700a      	strb	r2, [r1, #0]
   843d2:	9a02      	ldr	r2, [sp, #8]
   843d4:	f815 8c01 	ldrb.w	r8, [r5, #-1]
   843d8:	3201      	adds	r2, #1
   843da:	9202      	str	r2, [sp, #8]
   843dc:	f7ff bbfb 	b.w	83bd6 <_dtoa_r+0x376>
   843e0:	f000 80bb 	beq.w	8455a <_dtoa_r+0xcfa>
   843e4:	e9dd 0110 	ldrd	r0, r1, [sp, #64]	; 0x40
   843e8:	9b02      	ldr	r3, [sp, #8]
   843ea:	f04f 0a02 	mov.w	sl, #2
   843ee:	425d      	negs	r5, r3
   843f0:	4b82      	ldr	r3, [pc, #520]	; (845fc <_dtoa_r+0xd9c>)
   843f2:	f005 020f 	and.w	r2, r5, #15
   843f6:	eb03 03c2 	add.w	r3, r3, r2, lsl #3
   843fa:	e9d3 2300 	ldrd	r2, r3, [r3]
   843fe:	f001 faf9 	bl	859f4 <__aeabi_dmul>
   84402:	112d      	asrs	r5, r5, #4
   84404:	4607      	mov	r7, r0
   84406:	4688      	mov	r8, r1
   84408:	f43f ae1a 	beq.w	84040 <_dtoa_r+0x7e0>
   8440c:	4e7c      	ldr	r6, [pc, #496]	; (84600 <_dtoa_r+0xda0>)
   8440e:	07eb      	lsls	r3, r5, #31
   84410:	d509      	bpl.n	84426 <_dtoa_r+0xbc6>
   84412:	e9d6 2300 	ldrd	r2, r3, [r6]
   84416:	4638      	mov	r0, r7
   84418:	4641      	mov	r1, r8
   8441a:	f001 faeb 	bl	859f4 <__aeabi_dmul>
   8441e:	4607      	mov	r7, r0
   84420:	4688      	mov	r8, r1
   84422:	f10a 0a01 	add.w	sl, sl, #1
   84426:	106d      	asrs	r5, r5, #1
   84428:	f106 0608 	add.w	r6, r6, #8
   8442c:	d1ef      	bne.n	8440e <_dtoa_r+0xbae>
   8442e:	e607      	b.n	84040 <_dtoa_r+0x7e0>
   84430:	6871      	ldr	r1, [r6, #4]
   84432:	4620      	mov	r0, r4
   84434:	f000 fb58 	bl	84ae8 <_Balloc>
   84438:	4605      	mov	r5, r0
   8443a:	6933      	ldr	r3, [r6, #16]
   8443c:	f106 010c 	add.w	r1, r6, #12
   84440:	3302      	adds	r3, #2
   84442:	009a      	lsls	r2, r3, #2
   84444:	300c      	adds	r0, #12
   84446:	f7fd fdaf 	bl	81fa8 <memcpy>
   8444a:	4629      	mov	r1, r5
   8444c:	2201      	movs	r2, #1
   8444e:	4620      	mov	r0, r4
   84450:	f000 fcf8 	bl	84e44 <__lshift>
   84454:	9008      	str	r0, [sp, #32]
   84456:	e4b6      	b.n	83dc6 <_dtoa_r+0x566>
   84458:	2b39      	cmp	r3, #57	; 0x39
   8445a:	f8cd b020 	str.w	fp, [sp, #32]
   8445e:	46d0      	mov	r8, sl
   84460:	f000 80a5 	beq.w	845ae <_dtoa_r+0xd4e>
   84464:	f103 0a01 	add.w	sl, r3, #1
   84468:	46b3      	mov	fp, r6
   8446a:	f887 a000 	strb.w	sl, [r7]
   8446e:	1c7d      	adds	r5, r7, #1
   84470:	9e08      	ldr	r6, [sp, #32]
   84472:	e570      	b.n	83f56 <_dtoa_r+0x6f6>
   84474:	465a      	mov	r2, fp
   84476:	46d0      	mov	r8, sl
   84478:	46b3      	mov	fp, r6
   8447a:	469a      	mov	sl, r3
   8447c:	4616      	mov	r6, r2
   8447e:	e54e      	b.n	83f1e <_dtoa_r+0x6be>
   84480:	9812      	ldr	r0, [sp, #72]	; 0x48
   84482:	495e      	ldr	r1, [pc, #376]	; (845fc <_dtoa_r+0xd9c>)
   84484:	462a      	mov	r2, r5
   84486:	eb01 01c0 	add.w	r1, r1, r0, lsl #3
   8448a:	4633      	mov	r3, r6
   8448c:	e951 0102 	ldrd	r0, r1, [r1, #-8]
   84490:	f001 fab0 	bl	859f4 <__aeabi_dmul>
   84494:	e9cd 0116 	strd	r0, r1, [sp, #88]	; 0x58
   84498:	4638      	mov	r0, r7
   8449a:	4641      	mov	r1, r8
   8449c:	f001 fd5a 	bl	85f54 <__aeabi_d2iz>
   844a0:	4605      	mov	r5, r0
   844a2:	f001 fa41 	bl	85928 <__aeabi_i2d>
   844a6:	4602      	mov	r2, r0
   844a8:	460b      	mov	r3, r1
   844aa:	4638      	mov	r0, r7
   844ac:	4641      	mov	r1, r8
   844ae:	f001 f8ed 	bl	8568c <__aeabi_dsub>
   844b2:	4606      	mov	r6, r0
   844b4:	9812      	ldr	r0, [sp, #72]	; 0x48
   844b6:	9a04      	ldr	r2, [sp, #16]
   844b8:	3530      	adds	r5, #48	; 0x30
   844ba:	2801      	cmp	r0, #1
   844bc:	7015      	strb	r5, [r2, #0]
   844be:	460f      	mov	r7, r1
   844c0:	f102 0501 	add.w	r5, r2, #1
   844c4:	d026      	beq.n	84514 <_dtoa_r+0xcb4>
   844c6:	9b12      	ldr	r3, [sp, #72]	; 0x48
   844c8:	9a04      	ldr	r2, [sp, #16]
   844ca:	f8cd 9048 	str.w	r9, [sp, #72]	; 0x48
   844ce:	4413      	add	r3, r2
   844d0:	f04f 0a00 	mov.w	sl, #0
   844d4:	4699      	mov	r9, r3
   844d6:	f8df b130 	ldr.w	fp, [pc, #304]	; 84608 <_dtoa_r+0xda8>
   844da:	4652      	mov	r2, sl
   844dc:	465b      	mov	r3, fp
   844de:	4630      	mov	r0, r6
   844e0:	4639      	mov	r1, r7
   844e2:	f001 fa87 	bl	859f4 <__aeabi_dmul>
   844e6:	460f      	mov	r7, r1
   844e8:	4606      	mov	r6, r0
   844ea:	f001 fd33 	bl	85f54 <__aeabi_d2iz>
   844ee:	4680      	mov	r8, r0
   844f0:	f001 fa1a 	bl	85928 <__aeabi_i2d>
   844f4:	4602      	mov	r2, r0
   844f6:	460b      	mov	r3, r1
   844f8:	4630      	mov	r0, r6
   844fa:	4639      	mov	r1, r7
   844fc:	f001 f8c6 	bl	8568c <__aeabi_dsub>
   84500:	f108 0830 	add.w	r8, r8, #48	; 0x30
   84504:	f805 8b01 	strb.w	r8, [r5], #1
   84508:	454d      	cmp	r5, r9
   8450a:	4606      	mov	r6, r0
   8450c:	460f      	mov	r7, r1
   8450e:	d1e4      	bne.n	844da <_dtoa_r+0xc7a>
   84510:	f8dd 9048 	ldr.w	r9, [sp, #72]	; 0x48
   84514:	2200      	movs	r2, #0
   84516:	e9dd 0116 	ldrd	r0, r1, [sp, #88]	; 0x58
   8451a:	4b3a      	ldr	r3, [pc, #232]	; (84604 <_dtoa_r+0xda4>)
   8451c:	f001 f8b8 	bl	85690 <__adddf3>
   84520:	4632      	mov	r2, r6
   84522:	463b      	mov	r3, r7
   84524:	f001 fcd8 	bl	85ed8 <__aeabi_dcmplt>
   84528:	2800      	cmp	r0, #0
   8452a:	d046      	beq.n	845ba <_dtoa_r+0xd5a>
   8452c:	9b15      	ldr	r3, [sp, #84]	; 0x54
   8452e:	9302      	str	r3, [sp, #8]
   84530:	f815 8c01 	ldrb.w	r8, [r5, #-1]
   84534:	f7ff bb42 	b.w	83bbc <_dtoa_r+0x35c>
   84538:	f04f 0800 	mov.w	r8, #0
   8453c:	4646      	mov	r6, r8
   8453e:	e6a8      	b.n	84292 <_dtoa_r+0xa32>
   84540:	9b0a      	ldr	r3, [sp, #40]	; 0x28
   84542:	9a07      	ldr	r2, [sp, #28]
   84544:	1a9d      	subs	r5, r3, r2
   84546:	2300      	movs	r3, #0
   84548:	f7ff bb70 	b.w	83c2c <_dtoa_r+0x3cc>
   8454c:	9b18      	ldr	r3, [sp, #96]	; 0x60
   8454e:	9f0c      	ldr	r7, [sp, #48]	; 0x30
   84550:	f1c3 0336 	rsb	r3, r3, #54	; 0x36
   84554:	9d0a      	ldr	r5, [sp, #40]	; 0x28
   84556:	f7ff bb69 	b.w	83c2c <_dtoa_r+0x3cc>
   8455a:	e9dd 7810 	ldrd	r7, r8, [sp, #64]	; 0x40
   8455e:	f04f 0a02 	mov.w	sl, #2
   84562:	e56d      	b.n	84040 <_dtoa_r+0x7e0>
   84564:	9b07      	ldr	r3, [sp, #28]
   84566:	2b00      	cmp	r3, #0
   84568:	f43f aeb8 	beq.w	842dc <_dtoa_r+0xa7c>
   8456c:	9b0f      	ldr	r3, [sp, #60]	; 0x3c
   8456e:	2b00      	cmp	r3, #0
   84570:	f77f aede 	ble.w	84330 <_dtoa_r+0xad0>
   84574:	2200      	movs	r2, #0
   84576:	4b24      	ldr	r3, [pc, #144]	; (84608 <_dtoa_r+0xda8>)
   84578:	4638      	mov	r0, r7
   8457a:	4641      	mov	r1, r8
   8457c:	f001 fa3a 	bl	859f4 <__aeabi_dmul>
   84580:	4607      	mov	r7, r0
   84582:	4688      	mov	r8, r1
   84584:	f10a 0001 	add.w	r0, sl, #1
   84588:	f001 f9ce 	bl	85928 <__aeabi_i2d>
   8458c:	463a      	mov	r2, r7
   8458e:	4643      	mov	r3, r8
   84590:	f001 fa30 	bl	859f4 <__aeabi_dmul>
   84594:	2200      	movs	r2, #0
   84596:	4b17      	ldr	r3, [pc, #92]	; (845f4 <_dtoa_r+0xd94>)
   84598:	f001 f87a 	bl	85690 <__adddf3>
   8459c:	9a02      	ldr	r2, [sp, #8]
   8459e:	9b0f      	ldr	r3, [sp, #60]	; 0x3c
   845a0:	3a01      	subs	r2, #1
   845a2:	4605      	mov	r5, r0
   845a4:	9215      	str	r2, [sp, #84]	; 0x54
   845a6:	f1a1 7650 	sub.w	r6, r1, #54525952	; 0x3400000
   845aa:	9312      	str	r3, [sp, #72]	; 0x48
   845ac:	e569      	b.n	84082 <_dtoa_r+0x822>
   845ae:	2239      	movs	r2, #57	; 0x39
   845b0:	46b3      	mov	fp, r6
   845b2:	703a      	strb	r2, [r7, #0]
   845b4:	9e08      	ldr	r6, [sp, #32]
   845b6:	1c7d      	adds	r5, r7, #1
   845b8:	e4bf      	b.n	83f3a <_dtoa_r+0x6da>
   845ba:	e9dd 2316 	ldrd	r2, r3, [sp, #88]	; 0x58
   845be:	2000      	movs	r0, #0
   845c0:	4910      	ldr	r1, [pc, #64]	; (84604 <_dtoa_r+0xda4>)
   845c2:	f001 f863 	bl	8568c <__aeabi_dsub>
   845c6:	4632      	mov	r2, r6
   845c8:	463b      	mov	r3, r7
   845ca:	f001 fca3 	bl	85f14 <__aeabi_dcmpgt>
   845ce:	b908      	cbnz	r0, 845d4 <_dtoa_r+0xd74>
   845d0:	e6ae      	b.n	84330 <_dtoa_r+0xad0>
   845d2:	4615      	mov	r5, r2
   845d4:	f815 3c01 	ldrb.w	r3, [r5, #-1]
   845d8:	1e6a      	subs	r2, r5, #1
   845da:	2b30      	cmp	r3, #48	; 0x30
   845dc:	d0f9      	beq.n	845d2 <_dtoa_r+0xd72>
   845de:	e5d7      	b.n	84190 <_dtoa_r+0x930>
   845e0:	f8dd 9048 	ldr.w	r9, [sp, #72]	; 0x48
   845e4:	9b15      	ldr	r3, [sp, #84]	; 0x54
   845e6:	9302      	str	r3, [sp, #8]
   845e8:	f7ff bae8 	b.w	83bbc <_dtoa_r+0x35c>
   845ec:	970c      	str	r7, [sp, #48]	; 0x30
   845ee:	f7ff bba7 	b.w	83d40 <_dtoa_r+0x4e0>
   845f2:	bf00      	nop
   845f4:	401c0000 	.word	0x401c0000
   845f8:	40140000 	.word	0x40140000
   845fc:	00086428 	.word	0x00086428
   84600:	00086400 	.word	0x00086400
   84604:	3fe00000 	.word	0x3fe00000
   84608:	40240000 	.word	0x40240000
   8460c:	2b39      	cmp	r3, #57	; 0x39
   8460e:	f8cd b020 	str.w	fp, [sp, #32]
   84612:	46d0      	mov	r8, sl
   84614:	f8dd b01c 	ldr.w	fp, [sp, #28]
   84618:	469a      	mov	sl, r3
   8461a:	d0c8      	beq.n	845ae <_dtoa_r+0xd4e>
   8461c:	f1bb 0f00 	cmp.w	fp, #0
   84620:	f73f aec0 	bgt.w	843a4 <_dtoa_r+0xb44>
   84624:	e6c0      	b.n	843a8 <_dtoa_r+0xb48>
   84626:	f47f aebf 	bne.w	843a8 <_dtoa_r+0xb48>
   8462a:	f01a 0f01 	tst.w	sl, #1
   8462e:	f43f aebb 	beq.w	843a8 <_dtoa_r+0xb48>
   84632:	e6b3      	b.n	8439c <_dtoa_r+0xb3c>
   84634:	f04f 0800 	mov.w	r8, #0
   84638:	4646      	mov	r6, r8
   8463a:	e5e8      	b.n	8420e <_dtoa_r+0x9ae>
   8463c:	4631      	mov	r1, r6
   8463e:	2300      	movs	r3, #0
   84640:	220a      	movs	r2, #10
   84642:	4620      	mov	r0, r4
   84644:	f000 fa80 	bl	84b48 <__multadd>
   84648:	9b0f      	ldr	r3, [sp, #60]	; 0x3c
   8464a:	4606      	mov	r6, r0
   8464c:	2b00      	cmp	r3, #0
   8464e:	dd07      	ble.n	84660 <_dtoa_r+0xe00>
   84650:	9307      	str	r3, [sp, #28]
   84652:	f7ff bbab 	b.w	83dac <_dtoa_r+0x54c>
   84656:	9b24      	ldr	r3, [sp, #144]	; 0x90
   84658:	2b02      	cmp	r3, #2
   8465a:	dc1f      	bgt.n	8469c <_dtoa_r+0xe3c>
   8465c:	9b0f      	ldr	r3, [sp, #60]	; 0x3c
   8465e:	e43c      	b.n	83eda <_dtoa_r+0x67a>
   84660:	9b24      	ldr	r3, [sp, #144]	; 0x90
   84662:	2b02      	cmp	r3, #2
   84664:	dc1a      	bgt.n	8469c <_dtoa_r+0xe3c>
   84666:	9b0f      	ldr	r3, [sp, #60]	; 0x3c
   84668:	e7f2      	b.n	84650 <_dtoa_r+0xdf0>
   8466a:	f43f ab81 	beq.w	83d70 <_dtoa_r+0x510>
   8466e:	f1c0 003c 	rsb	r0, r0, #60	; 0x3c
   84672:	e411      	b.n	83e98 <_dtoa_r+0x638>
   84674:	2500      	movs	r5, #0
   84676:	4620      	mov	r0, r4
   84678:	6465      	str	r5, [r4, #68]	; 0x44
   8467a:	4629      	mov	r1, r5
   8467c:	f000 fa34 	bl	84ae8 <_Balloc>
   84680:	f04f 33ff 	mov.w	r3, #4294967295
   84684:	9307      	str	r3, [sp, #28]
   84686:	930f      	str	r3, [sp, #60]	; 0x3c
   84688:	2301      	movs	r3, #1
   8468a:	9004      	str	r0, [sp, #16]
   8468c:	9525      	str	r5, [sp, #148]	; 0x94
   8468e:	6420      	str	r0, [r4, #64]	; 0x40
   84690:	930b      	str	r3, [sp, #44]	; 0x2c
   84692:	f7ff b9e0 	b.w	83a56 <_dtoa_r+0x1f6>
   84696:	2501      	movs	r5, #1
   84698:	f7ff b9a8 	b.w	839ec <_dtoa_r+0x18c>
   8469c:	9b0f      	ldr	r3, [sp, #60]	; 0x3c
   8469e:	9307      	str	r3, [sp, #28]
   846a0:	e5e8      	b.n	84274 <_dtoa_r+0xa14>
   846a2:	bf00      	nop

000846a4 <__libc_fini_array>:
   846a4:	b538      	push	{r3, r4, r5, lr}
   846a6:	4c0a      	ldr	r4, [pc, #40]	; (846d0 <__libc_fini_array+0x2c>)
   846a8:	4d0a      	ldr	r5, [pc, #40]	; (846d4 <__libc_fini_array+0x30>)
   846aa:	1b64      	subs	r4, r4, r5
   846ac:	10a4      	asrs	r4, r4, #2
   846ae:	d00a      	beq.n	846c6 <__libc_fini_array+0x22>
   846b0:	f104 4380 	add.w	r3, r4, #1073741824	; 0x40000000
   846b4:	3b01      	subs	r3, #1
   846b6:	eb05 0583 	add.w	r5, r5, r3, lsl #2
   846ba:	3c01      	subs	r4, #1
   846bc:	f855 3904 	ldr.w	r3, [r5], #-4
   846c0:	4798      	blx	r3
   846c2:	2c00      	cmp	r4, #0
   846c4:	d1f9      	bne.n	846ba <__libc_fini_array+0x16>
   846c6:	e8bd 4038 	ldmia.w	sp!, {r3, r4, r5, lr}
   846ca:	f001 bfa3 	b.w	86614 <_fini>
   846ce:	bf00      	nop
   846d0:	00086624 	.word	0x00086624
   846d4:	00086620 	.word	0x00086620

000846d8 <_malloc_trim_r>:
   846d8:	b5f8      	push	{r3, r4, r5, r6, r7, lr}
   846da:	460c      	mov	r4, r1
   846dc:	4f23      	ldr	r7, [pc, #140]	; (8476c <_malloc_trim_r+0x94>)
   846de:	4606      	mov	r6, r0
   846e0:	f7fd fd26 	bl	82130 <__malloc_lock>
   846e4:	68bb      	ldr	r3, [r7, #8]
   846e6:	f5c4 617e 	rsb	r1, r4, #4064	; 0xfe0
   846ea:	685d      	ldr	r5, [r3, #4]
   846ec:	310f      	adds	r1, #15
   846ee:	f025 0503 	bic.w	r5, r5, #3
   846f2:	4429      	add	r1, r5
   846f4:	f421 617f 	bic.w	r1, r1, #4080	; 0xff0
   846f8:	f021 010f 	bic.w	r1, r1, #15
   846fc:	f5a1 5480 	sub.w	r4, r1, #4096	; 0x1000
   84700:	f5b4 5f80 	cmp.w	r4, #4096	; 0x1000
   84704:	db07      	blt.n	84716 <_malloc_trim_r+0x3e>
   84706:	2100      	movs	r1, #0
   84708:	4630      	mov	r0, r6
   8470a:	f7fd fd1d 	bl	82148 <_sbrk_r>
   8470e:	68bb      	ldr	r3, [r7, #8]
   84710:	442b      	add	r3, r5
   84712:	4298      	cmp	r0, r3
   84714:	d004      	beq.n	84720 <_malloc_trim_r+0x48>
   84716:	4630      	mov	r0, r6
   84718:	f7fd fd10 	bl	8213c <__malloc_unlock>
   8471c:	2000      	movs	r0, #0
   8471e:	bdf8      	pop	{r3, r4, r5, r6, r7, pc}
   84720:	4261      	negs	r1, r4
   84722:	4630      	mov	r0, r6
   84724:	f7fd fd10 	bl	82148 <_sbrk_r>
   84728:	3001      	adds	r0, #1
   8472a:	d00d      	beq.n	84748 <_malloc_trim_r+0x70>
   8472c:	4b10      	ldr	r3, [pc, #64]	; (84770 <_malloc_trim_r+0x98>)
   8472e:	68ba      	ldr	r2, [r7, #8]
   84730:	6819      	ldr	r1, [r3, #0]
   84732:	1b2d      	subs	r5, r5, r4
   84734:	f045 0501 	orr.w	r5, r5, #1
   84738:	4630      	mov	r0, r6
   8473a:	1b09      	subs	r1, r1, r4
   8473c:	6055      	str	r5, [r2, #4]
   8473e:	6019      	str	r1, [r3, #0]
   84740:	f7fd fcfc 	bl	8213c <__malloc_unlock>
   84744:	2001      	movs	r0, #1
   84746:	bdf8      	pop	{r3, r4, r5, r6, r7, pc}
   84748:	2100      	movs	r1, #0
   8474a:	4630      	mov	r0, r6
   8474c:	f7fd fcfc 	bl	82148 <_sbrk_r>
   84750:	68ba      	ldr	r2, [r7, #8]
   84752:	1a83      	subs	r3, r0, r2
   84754:	2b0f      	cmp	r3, #15
   84756:	ddde      	ble.n	84716 <_malloc_trim_r+0x3e>
   84758:	4c06      	ldr	r4, [pc, #24]	; (84774 <_malloc_trim_r+0x9c>)
   8475a:	4905      	ldr	r1, [pc, #20]	; (84770 <_malloc_trim_r+0x98>)
   8475c:	6824      	ldr	r4, [r4, #0]
   8475e:	f043 0301 	orr.w	r3, r3, #1
   84762:	1b00      	subs	r0, r0, r4
   84764:	6053      	str	r3, [r2, #4]
   84766:	6008      	str	r0, [r1, #0]
   84768:	e7d5      	b.n	84716 <_malloc_trim_r+0x3e>
   8476a:	bf00      	nop
   8476c:	20070920 	.word	0x20070920
   84770:	2007103c 	.word	0x2007103c
   84774:	20070d28 	.word	0x20070d28

00084778 <_free_r>:
   84778:	2900      	cmp	r1, #0
   8477a:	d044      	beq.n	84806 <_free_r+0x8e>
   8477c:	e92d 41f0 	stmdb	sp!, {r4, r5, r6, r7, r8, lr}
   84780:	460d      	mov	r5, r1
   84782:	4680      	mov	r8, r0
   84784:	f7fd fcd4 	bl	82130 <__malloc_lock>
   84788:	f855 7c04 	ldr.w	r7, [r5, #-4]
   8478c:	4969      	ldr	r1, [pc, #420]	; (84934 <_free_r+0x1bc>)
   8478e:	f1a5 0408 	sub.w	r4, r5, #8
   84792:	f027 0301 	bic.w	r3, r7, #1
   84796:	18e2      	adds	r2, r4, r3
   84798:	688e      	ldr	r6, [r1, #8]
   8479a:	6850      	ldr	r0, [r2, #4]
   8479c:	42b2      	cmp	r2, r6
   8479e:	f020 0003 	bic.w	r0, r0, #3
   847a2:	d05e      	beq.n	84862 <_free_r+0xea>
   847a4:	07fe      	lsls	r6, r7, #31
   847a6:	6050      	str	r0, [r2, #4]
   847a8:	d40b      	bmi.n	847c2 <_free_r+0x4a>
   847aa:	f855 7c08 	ldr.w	r7, [r5, #-8]
   847ae:	f101 0e08 	add.w	lr, r1, #8
   847b2:	1be4      	subs	r4, r4, r7
   847b4:	68a5      	ldr	r5, [r4, #8]
   847b6:	443b      	add	r3, r7
   847b8:	4575      	cmp	r5, lr
   847ba:	d06d      	beq.n	84898 <_free_r+0x120>
   847bc:	68e7      	ldr	r7, [r4, #12]
   847be:	60ef      	str	r7, [r5, #12]
   847c0:	60bd      	str	r5, [r7, #8]
   847c2:	1815      	adds	r5, r2, r0
   847c4:	686d      	ldr	r5, [r5, #4]
   847c6:	07ed      	lsls	r5, r5, #31
   847c8:	d53e      	bpl.n	84848 <_free_r+0xd0>
   847ca:	f043 0201 	orr.w	r2, r3, #1
   847ce:	6062      	str	r2, [r4, #4]
   847d0:	50e3      	str	r3, [r4, r3]
   847d2:	f5b3 7f00 	cmp.w	r3, #512	; 0x200
   847d6:	d217      	bcs.n	84808 <_free_r+0x90>
   847d8:	2201      	movs	r2, #1
   847da:	08db      	lsrs	r3, r3, #3
   847dc:	1098      	asrs	r0, r3, #2
   847de:	684d      	ldr	r5, [r1, #4]
   847e0:	4413      	add	r3, r2
   847e2:	f851 7033 	ldr.w	r7, [r1, r3, lsl #3]
   847e6:	4082      	lsls	r2, r0
   847e8:	eb01 00c3 	add.w	r0, r1, r3, lsl #3
   847ec:	432a      	orrs	r2, r5
   847ee:	3808      	subs	r0, #8
   847f0:	60e0      	str	r0, [r4, #12]
   847f2:	60a7      	str	r7, [r4, #8]
   847f4:	604a      	str	r2, [r1, #4]
   847f6:	f841 4033 	str.w	r4, [r1, r3, lsl #3]
   847fa:	60fc      	str	r4, [r7, #12]
   847fc:	4640      	mov	r0, r8
   847fe:	e8bd 41f0 	ldmia.w	sp!, {r4, r5, r6, r7, r8, lr}
   84802:	f7fd bc9b 	b.w	8213c <__malloc_unlock>
   84806:	4770      	bx	lr
   84808:	0a5a      	lsrs	r2, r3, #9
   8480a:	2a04      	cmp	r2, #4
   8480c:	d852      	bhi.n	848b4 <_free_r+0x13c>
   8480e:	099a      	lsrs	r2, r3, #6
   84810:	f102 0739 	add.w	r7, r2, #57	; 0x39
   84814:	00ff      	lsls	r7, r7, #3
   84816:	f102 0538 	add.w	r5, r2, #56	; 0x38
   8481a:	19c8      	adds	r0, r1, r7
   8481c:	59ca      	ldr	r2, [r1, r7]
   8481e:	3808      	subs	r0, #8
   84820:	4290      	cmp	r0, r2
   84822:	d04f      	beq.n	848c4 <_free_r+0x14c>
   84824:	6851      	ldr	r1, [r2, #4]
   84826:	f021 0103 	bic.w	r1, r1, #3
   8482a:	428b      	cmp	r3, r1
   8482c:	d232      	bcs.n	84894 <_free_r+0x11c>
   8482e:	6892      	ldr	r2, [r2, #8]
   84830:	4290      	cmp	r0, r2
   84832:	d1f7      	bne.n	84824 <_free_r+0xac>
   84834:	68c3      	ldr	r3, [r0, #12]
   84836:	60a0      	str	r0, [r4, #8]
   84838:	60e3      	str	r3, [r4, #12]
   8483a:	609c      	str	r4, [r3, #8]
   8483c:	60c4      	str	r4, [r0, #12]
   8483e:	4640      	mov	r0, r8
   84840:	e8bd 41f0 	ldmia.w	sp!, {r4, r5, r6, r7, r8, lr}
   84844:	f7fd bc7a 	b.w	8213c <__malloc_unlock>
   84848:	6895      	ldr	r5, [r2, #8]
   8484a:	4f3b      	ldr	r7, [pc, #236]	; (84938 <_free_r+0x1c0>)
   8484c:	4403      	add	r3, r0
   8484e:	42bd      	cmp	r5, r7
   84850:	d040      	beq.n	848d4 <_free_r+0x15c>
   84852:	68d0      	ldr	r0, [r2, #12]
   84854:	f043 0201 	orr.w	r2, r3, #1
   84858:	60e8      	str	r0, [r5, #12]
   8485a:	6085      	str	r5, [r0, #8]
   8485c:	6062      	str	r2, [r4, #4]
   8485e:	50e3      	str	r3, [r4, r3]
   84860:	e7b7      	b.n	847d2 <_free_r+0x5a>
   84862:	07ff      	lsls	r7, r7, #31
   84864:	4403      	add	r3, r0
   84866:	d407      	bmi.n	84878 <_free_r+0x100>
   84868:	f855 5c08 	ldr.w	r5, [r5, #-8]
   8486c:	1b64      	subs	r4, r4, r5
   8486e:	68e2      	ldr	r2, [r4, #12]
   84870:	68a0      	ldr	r0, [r4, #8]
   84872:	442b      	add	r3, r5
   84874:	60c2      	str	r2, [r0, #12]
   84876:	6090      	str	r0, [r2, #8]
   84878:	4a30      	ldr	r2, [pc, #192]	; (8493c <_free_r+0x1c4>)
   8487a:	f043 0001 	orr.w	r0, r3, #1
   8487e:	6812      	ldr	r2, [r2, #0]
   84880:	6060      	str	r0, [r4, #4]
   84882:	4293      	cmp	r3, r2
   84884:	608c      	str	r4, [r1, #8]
   84886:	d3b9      	bcc.n	847fc <_free_r+0x84>
   84888:	4b2d      	ldr	r3, [pc, #180]	; (84940 <_free_r+0x1c8>)
   8488a:	4640      	mov	r0, r8
   8488c:	6819      	ldr	r1, [r3, #0]
   8488e:	f7ff ff23 	bl	846d8 <_malloc_trim_r>
   84892:	e7b3      	b.n	847fc <_free_r+0x84>
   84894:	4610      	mov	r0, r2
   84896:	e7cd      	b.n	84834 <_free_r+0xbc>
   84898:	1811      	adds	r1, r2, r0
   8489a:	6849      	ldr	r1, [r1, #4]
   8489c:	07c9      	lsls	r1, r1, #31
   8489e:	d444      	bmi.n	8492a <_free_r+0x1b2>
   848a0:	6891      	ldr	r1, [r2, #8]
   848a2:	4403      	add	r3, r0
   848a4:	68d2      	ldr	r2, [r2, #12]
   848a6:	f043 0001 	orr.w	r0, r3, #1
   848aa:	60ca      	str	r2, [r1, #12]
   848ac:	6091      	str	r1, [r2, #8]
   848ae:	6060      	str	r0, [r4, #4]
   848b0:	50e3      	str	r3, [r4, r3]
   848b2:	e7a3      	b.n	847fc <_free_r+0x84>
   848b4:	2a14      	cmp	r2, #20
   848b6:	d816      	bhi.n	848e6 <_free_r+0x16e>
   848b8:	f102 075c 	add.w	r7, r2, #92	; 0x5c
   848bc:	00ff      	lsls	r7, r7, #3
   848be:	f102 055b 	add.w	r5, r2, #91	; 0x5b
   848c2:	e7aa      	b.n	8481a <_free_r+0xa2>
   848c4:	2301      	movs	r3, #1
   848c6:	10aa      	asrs	r2, r5, #2
   848c8:	684d      	ldr	r5, [r1, #4]
   848ca:	4093      	lsls	r3, r2
   848cc:	432b      	orrs	r3, r5
   848ce:	604b      	str	r3, [r1, #4]
   848d0:	4603      	mov	r3, r0
   848d2:	e7b0      	b.n	84836 <_free_r+0xbe>
   848d4:	f043 0201 	orr.w	r2, r3, #1
   848d8:	614c      	str	r4, [r1, #20]
   848da:	610c      	str	r4, [r1, #16]
   848dc:	60e5      	str	r5, [r4, #12]
   848de:	60a5      	str	r5, [r4, #8]
   848e0:	6062      	str	r2, [r4, #4]
   848e2:	50e3      	str	r3, [r4, r3]
   848e4:	e78a      	b.n	847fc <_free_r+0x84>
   848e6:	2a54      	cmp	r2, #84	; 0x54
   848e8:	d806      	bhi.n	848f8 <_free_r+0x180>
   848ea:	0b1a      	lsrs	r2, r3, #12
   848ec:	f102 076f 	add.w	r7, r2, #111	; 0x6f
   848f0:	00ff      	lsls	r7, r7, #3
   848f2:	f102 056e 	add.w	r5, r2, #110	; 0x6e
   848f6:	e790      	b.n	8481a <_free_r+0xa2>
   848f8:	f5b2 7faa 	cmp.w	r2, #340	; 0x154
   848fc:	d806      	bhi.n	8490c <_free_r+0x194>
   848fe:	0bda      	lsrs	r2, r3, #15
   84900:	f102 0778 	add.w	r7, r2, #120	; 0x78
   84904:	00ff      	lsls	r7, r7, #3
   84906:	f102 0577 	add.w	r5, r2, #119	; 0x77
   8490a:	e786      	b.n	8481a <_free_r+0xa2>
   8490c:	f240 5054 	movw	r0, #1364	; 0x554
   84910:	4282      	cmp	r2, r0
   84912:	d806      	bhi.n	84922 <_free_r+0x1aa>
   84914:	0c9a      	lsrs	r2, r3, #18
   84916:	f102 077d 	add.w	r7, r2, #125	; 0x7d
   8491a:	00ff      	lsls	r7, r7, #3
   8491c:	f102 057c 	add.w	r5, r2, #124	; 0x7c
   84920:	e77b      	b.n	8481a <_free_r+0xa2>
   84922:	f44f 777e 	mov.w	r7, #1016	; 0x3f8
   84926:	257e      	movs	r5, #126	; 0x7e
   84928:	e777      	b.n	8481a <_free_r+0xa2>
   8492a:	f043 0101 	orr.w	r1, r3, #1
   8492e:	6061      	str	r1, [r4, #4]
   84930:	6013      	str	r3, [r2, #0]
   84932:	e763      	b.n	847fc <_free_r+0x84>
   84934:	20070920 	.word	0x20070920
   84938:	20070928 	.word	0x20070928
   8493c:	20070d2c 	.word	0x20070d2c
   84940:	2007106c 	.word	0x2007106c

00084944 <_localeconv_r>:
   84944:	4a04      	ldr	r2, [pc, #16]	; (84958 <_localeconv_r+0x14>)
   84946:	4b05      	ldr	r3, [pc, #20]	; (8495c <_localeconv_r+0x18>)
   84948:	6812      	ldr	r2, [r2, #0]
   8494a:	6b50      	ldr	r0, [r2, #52]	; 0x34
   8494c:	2800      	cmp	r0, #0
   8494e:	bf08      	it	eq
   84950:	4618      	moveq	r0, r3
   84952:	30f0      	adds	r0, #240	; 0xf0
   84954:	4770      	bx	lr
   84956:	bf00      	nop
   84958:	200704f4 	.word	0x200704f4
   8495c:	20070d34 	.word	0x20070d34

00084960 <__retarget_lock_acquire_recursive>:
   84960:	4770      	bx	lr
   84962:	bf00      	nop

00084964 <__retarget_lock_release_recursive>:
   84964:	4770      	bx	lr
   84966:	bf00      	nop

00084968 <__ascii_mbtowc>:
   84968:	b082      	sub	sp, #8
   8496a:	b149      	cbz	r1, 84980 <__ascii_mbtowc+0x18>
   8496c:	b15a      	cbz	r2, 84986 <__ascii_mbtowc+0x1e>
   8496e:	b16b      	cbz	r3, 8498c <__ascii_mbtowc+0x24>
   84970:	7813      	ldrb	r3, [r2, #0]
   84972:	600b      	str	r3, [r1, #0]
   84974:	7812      	ldrb	r2, [r2, #0]
   84976:	1c10      	adds	r0, r2, #0
   84978:	bf18      	it	ne
   8497a:	2001      	movne	r0, #1
   8497c:	b002      	add	sp, #8
   8497e:	4770      	bx	lr
   84980:	a901      	add	r1, sp, #4
   84982:	2a00      	cmp	r2, #0
   84984:	d1f3      	bne.n	8496e <__ascii_mbtowc+0x6>
   84986:	4610      	mov	r0, r2
   84988:	b002      	add	sp, #8
   8498a:	4770      	bx	lr
   8498c:	f06f 0001 	mvn.w	r0, #1
   84990:	e7f4      	b.n	8497c <__ascii_mbtowc+0x14>
   84992:	bf00      	nop

00084994 <memchr>:
   84994:	0783      	lsls	r3, r0, #30
   84996:	b470      	push	{r4, r5, r6}
   84998:	b2cd      	uxtb	r5, r1
   8499a:	d03d      	beq.n	84a18 <memchr+0x84>
   8499c:	1e54      	subs	r4, r2, #1
   8499e:	b30a      	cbz	r2, 849e4 <memchr+0x50>
   849a0:	7803      	ldrb	r3, [r0, #0]
   849a2:	42ab      	cmp	r3, r5
   849a4:	d01f      	beq.n	849e6 <memchr+0x52>
   849a6:	1c43      	adds	r3, r0, #1
   849a8:	e005      	b.n	849b6 <memchr+0x22>
   849aa:	f114 34ff 	adds.w	r4, r4, #4294967295
   849ae:	d319      	bcc.n	849e4 <memchr+0x50>
   849b0:	7802      	ldrb	r2, [r0, #0]
   849b2:	42aa      	cmp	r2, r5
   849b4:	d017      	beq.n	849e6 <memchr+0x52>
   849b6:	f013 0f03 	tst.w	r3, #3
   849ba:	4618      	mov	r0, r3
   849bc:	f103 0301 	add.w	r3, r3, #1
   849c0:	d1f3      	bne.n	849aa <memchr+0x16>
   849c2:	2c03      	cmp	r4, #3
   849c4:	d811      	bhi.n	849ea <memchr+0x56>
   849c6:	b34c      	cbz	r4, 84a1c <memchr+0x88>
   849c8:	7803      	ldrb	r3, [r0, #0]
   849ca:	42ab      	cmp	r3, r5
   849cc:	d00b      	beq.n	849e6 <memchr+0x52>
   849ce:	4404      	add	r4, r0
   849d0:	1c43      	adds	r3, r0, #1
   849d2:	e002      	b.n	849da <memchr+0x46>
   849d4:	7802      	ldrb	r2, [r0, #0]
   849d6:	42aa      	cmp	r2, r5
   849d8:	d005      	beq.n	849e6 <memchr+0x52>
   849da:	429c      	cmp	r4, r3
   849dc:	4618      	mov	r0, r3
   849de:	f103 0301 	add.w	r3, r3, #1
   849e2:	d1f7      	bne.n	849d4 <memchr+0x40>
   849e4:	2000      	movs	r0, #0
   849e6:	bc70      	pop	{r4, r5, r6}
   849e8:	4770      	bx	lr
   849ea:	0209      	lsls	r1, r1, #8
   849ec:	b289      	uxth	r1, r1
   849ee:	4329      	orrs	r1, r5
   849f0:	ea41 4101 	orr.w	r1, r1, r1, lsl #16
   849f4:	6803      	ldr	r3, [r0, #0]
   849f6:	4606      	mov	r6, r0
   849f8:	404b      	eors	r3, r1
   849fa:	f1a3 3201 	sub.w	r2, r3, #16843009	; 0x1010101
   849fe:	ea22 0303 	bic.w	r3, r2, r3
   84a02:	f013 3f80 	tst.w	r3, #2155905152	; 0x80808080
   84a06:	f100 0004 	add.w	r0, r0, #4
   84a0a:	d103      	bne.n	84a14 <memchr+0x80>
   84a0c:	3c04      	subs	r4, #4
   84a0e:	2c03      	cmp	r4, #3
   84a10:	d8f0      	bhi.n	849f4 <memchr+0x60>
   84a12:	e7d8      	b.n	849c6 <memchr+0x32>
   84a14:	4630      	mov	r0, r6
   84a16:	e7d7      	b.n	849c8 <memchr+0x34>
   84a18:	4614      	mov	r4, r2
   84a1a:	e7d2      	b.n	849c2 <memchr+0x2e>
   84a1c:	4620      	mov	r0, r4
   84a1e:	e7e2      	b.n	849e6 <memchr+0x52>

00084a20 <memmove>:
   84a20:	4288      	cmp	r0, r1
   84a22:	b5f0      	push	{r4, r5, r6, r7, lr}
   84a24:	d90d      	bls.n	84a42 <memmove+0x22>
   84a26:	188b      	adds	r3, r1, r2
   84a28:	4298      	cmp	r0, r3
   84a2a:	d20a      	bcs.n	84a42 <memmove+0x22>
   84a2c:	1884      	adds	r4, r0, r2
   84a2e:	2a00      	cmp	r2, #0
   84a30:	d051      	beq.n	84ad6 <memmove+0xb6>
   84a32:	4622      	mov	r2, r4
   84a34:	f813 4d01 	ldrb.w	r4, [r3, #-1]!
   84a38:	4299      	cmp	r1, r3
   84a3a:	f802 4d01 	strb.w	r4, [r2, #-1]!
   84a3e:	d1f9      	bne.n	84a34 <memmove+0x14>
   84a40:	bdf0      	pop	{r4, r5, r6, r7, pc}
   84a42:	2a0f      	cmp	r2, #15
   84a44:	d948      	bls.n	84ad8 <memmove+0xb8>
   84a46:	ea41 0300 	orr.w	r3, r1, r0
   84a4a:	079b      	lsls	r3, r3, #30
   84a4c:	d146      	bne.n	84adc <memmove+0xbc>
   84a4e:	4615      	mov	r5, r2
   84a50:	f100 0410 	add.w	r4, r0, #16
   84a54:	f101 0310 	add.w	r3, r1, #16
   84a58:	f853 6c10 	ldr.w	r6, [r3, #-16]
   84a5c:	3d10      	subs	r5, #16
   84a5e:	f844 6c10 	str.w	r6, [r4, #-16]
   84a62:	f853 6c0c 	ldr.w	r6, [r3, #-12]
   84a66:	2d0f      	cmp	r5, #15
   84a68:	f844 6c0c 	str.w	r6, [r4, #-12]
   84a6c:	f853 6c08 	ldr.w	r6, [r3, #-8]
   84a70:	f104 0410 	add.w	r4, r4, #16
   84a74:	f844 6c18 	str.w	r6, [r4, #-24]
   84a78:	f853 6c04 	ldr.w	r6, [r3, #-4]
   84a7c:	f103 0310 	add.w	r3, r3, #16
   84a80:	f844 6c14 	str.w	r6, [r4, #-20]
   84a84:	d8e8      	bhi.n	84a58 <memmove+0x38>
   84a86:	f1a2 0310 	sub.w	r3, r2, #16
   84a8a:	f023 030f 	bic.w	r3, r3, #15
   84a8e:	f002 0e0f 	and.w	lr, r2, #15
   84a92:	3310      	adds	r3, #16
   84a94:	f1be 0f03 	cmp.w	lr, #3
   84a98:	4419      	add	r1, r3
   84a9a:	4403      	add	r3, r0
   84a9c:	d921      	bls.n	84ae2 <memmove+0xc2>
   84a9e:	460e      	mov	r6, r1
   84aa0:	4674      	mov	r4, lr
   84aa2:	1f1d      	subs	r5, r3, #4
   84aa4:	f856 7b04 	ldr.w	r7, [r6], #4
   84aa8:	3c04      	subs	r4, #4
   84aaa:	2c03      	cmp	r4, #3
   84aac:	f845 7f04 	str.w	r7, [r5, #4]!
   84ab0:	d8f8      	bhi.n	84aa4 <memmove+0x84>
   84ab2:	f1ae 0404 	sub.w	r4, lr, #4
   84ab6:	f024 0403 	bic.w	r4, r4, #3
   84aba:	3404      	adds	r4, #4
   84abc:	4421      	add	r1, r4
   84abe:	4423      	add	r3, r4
   84ac0:	f002 0203 	and.w	r2, r2, #3
   84ac4:	b162      	cbz	r2, 84ae0 <memmove+0xc0>
   84ac6:	3b01      	subs	r3, #1
   84ac8:	440a      	add	r2, r1
   84aca:	f811 4b01 	ldrb.w	r4, [r1], #1
   84ace:	428a      	cmp	r2, r1
   84ad0:	f803 4f01 	strb.w	r4, [r3, #1]!
   84ad4:	d1f9      	bne.n	84aca <memmove+0xaa>
   84ad6:	bdf0      	pop	{r4, r5, r6, r7, pc}
   84ad8:	4603      	mov	r3, r0
   84ada:	e7f3      	b.n	84ac4 <memmove+0xa4>
   84adc:	4603      	mov	r3, r0
   84ade:	e7f2      	b.n	84ac6 <memmove+0xa6>
   84ae0:	bdf0      	pop	{r4, r5, r6, r7, pc}
   84ae2:	4672      	mov	r2, lr
   84ae4:	e7ee      	b.n	84ac4 <memmove+0xa4>
   84ae6:	bf00      	nop

00084ae8 <_Balloc>:
   84ae8:	6cc3      	ldr	r3, [r0, #76]	; 0x4c
   84aea:	b570      	push	{r4, r5, r6, lr}
   84aec:	4605      	mov	r5, r0
   84aee:	460c      	mov	r4, r1
   84af0:	b14b      	cbz	r3, 84b06 <_Balloc+0x1e>
   84af2:	f853 0024 	ldr.w	r0, [r3, r4, lsl #2]
   84af6:	b180      	cbz	r0, 84b1a <_Balloc+0x32>
   84af8:	6802      	ldr	r2, [r0, #0]
   84afa:	f843 2024 	str.w	r2, [r3, r4, lsl #2]
   84afe:	2300      	movs	r3, #0
   84b00:	6103      	str	r3, [r0, #16]
   84b02:	60c3      	str	r3, [r0, #12]
   84b04:	bd70      	pop	{r4, r5, r6, pc}
   84b06:	2221      	movs	r2, #33	; 0x21
   84b08:	2104      	movs	r1, #4
   84b0a:	f000 fd8b 	bl	85624 <_calloc_r>
   84b0e:	64e8      	str	r0, [r5, #76]	; 0x4c
   84b10:	4603      	mov	r3, r0
   84b12:	2800      	cmp	r0, #0
   84b14:	d1ed      	bne.n	84af2 <_Balloc+0xa>
   84b16:	2000      	movs	r0, #0
   84b18:	bd70      	pop	{r4, r5, r6, pc}
   84b1a:	2101      	movs	r1, #1
   84b1c:	fa01 f604 	lsl.w	r6, r1, r4
   84b20:	1d72      	adds	r2, r6, #5
   84b22:	4628      	mov	r0, r5
   84b24:	0092      	lsls	r2, r2, #2
   84b26:	f000 fd7d 	bl	85624 <_calloc_r>
   84b2a:	2800      	cmp	r0, #0
   84b2c:	d0f3      	beq.n	84b16 <_Balloc+0x2e>
   84b2e:	6044      	str	r4, [r0, #4]
   84b30:	6086      	str	r6, [r0, #8]
   84b32:	e7e4      	b.n	84afe <_Balloc+0x16>

00084b34 <_Bfree>:
   84b34:	b131      	cbz	r1, 84b44 <_Bfree+0x10>
   84b36:	6cc3      	ldr	r3, [r0, #76]	; 0x4c
   84b38:	684a      	ldr	r2, [r1, #4]
   84b3a:	f853 0022 	ldr.w	r0, [r3, r2, lsl #2]
   84b3e:	6008      	str	r0, [r1, #0]
   84b40:	f843 1022 	str.w	r1, [r3, r2, lsl #2]
   84b44:	4770      	bx	lr
   84b46:	bf00      	nop

00084b48 <__multadd>:
   84b48:	b5f0      	push	{r4, r5, r6, r7, lr}
   84b4a:	460c      	mov	r4, r1
   84b4c:	4605      	mov	r5, r0
   84b4e:	f04f 0e00 	mov.w	lr, #0
   84b52:	690e      	ldr	r6, [r1, #16]
   84b54:	b083      	sub	sp, #12
   84b56:	f101 0714 	add.w	r7, r1, #20
   84b5a:	6838      	ldr	r0, [r7, #0]
   84b5c:	f10e 0e01 	add.w	lr, lr, #1
   84b60:	b281      	uxth	r1, r0
   84b62:	fb02 3301 	mla	r3, r2, r1, r3
   84b66:	0c01      	lsrs	r1, r0, #16
   84b68:	0c18      	lsrs	r0, r3, #16
   84b6a:	fb02 0101 	mla	r1, r2, r1, r0
   84b6e:	b29b      	uxth	r3, r3
   84b70:	eb03 4301 	add.w	r3, r3, r1, lsl #16
   84b74:	4576      	cmp	r6, lr
   84b76:	f847 3b04 	str.w	r3, [r7], #4
   84b7a:	ea4f 4311 	mov.w	r3, r1, lsr #16
   84b7e:	dcec      	bgt.n	84b5a <__multadd+0x12>
   84b80:	b13b      	cbz	r3, 84b92 <__multadd+0x4a>
   84b82:	68a2      	ldr	r2, [r4, #8]
   84b84:	4296      	cmp	r6, r2
   84b86:	da07      	bge.n	84b98 <__multadd+0x50>
   84b88:	eb04 0286 	add.w	r2, r4, r6, lsl #2
   84b8c:	3601      	adds	r6, #1
   84b8e:	6153      	str	r3, [r2, #20]
   84b90:	6126      	str	r6, [r4, #16]
   84b92:	4620      	mov	r0, r4
   84b94:	b003      	add	sp, #12
   84b96:	bdf0      	pop	{r4, r5, r6, r7, pc}
   84b98:	6861      	ldr	r1, [r4, #4]
   84b9a:	4628      	mov	r0, r5
   84b9c:	3101      	adds	r1, #1
   84b9e:	9301      	str	r3, [sp, #4]
   84ba0:	f7ff ffa2 	bl	84ae8 <_Balloc>
   84ba4:	4607      	mov	r7, r0
   84ba6:	6922      	ldr	r2, [r4, #16]
   84ba8:	f104 010c 	add.w	r1, r4, #12
   84bac:	3202      	adds	r2, #2
   84bae:	0092      	lsls	r2, r2, #2
   84bb0:	300c      	adds	r0, #12
   84bb2:	f7fd f9f9 	bl	81fa8 <memcpy>
   84bb6:	6cea      	ldr	r2, [r5, #76]	; 0x4c
   84bb8:	6861      	ldr	r1, [r4, #4]
   84bba:	9b01      	ldr	r3, [sp, #4]
   84bbc:	f852 0021 	ldr.w	r0, [r2, r1, lsl #2]
   84bc0:	6020      	str	r0, [r4, #0]
   84bc2:	f842 4021 	str.w	r4, [r2, r1, lsl #2]
   84bc6:	463c      	mov	r4, r7
   84bc8:	e7de      	b.n	84b88 <__multadd+0x40>
   84bca:	bf00      	nop

00084bcc <__hi0bits>:
   84bcc:	0c02      	lsrs	r2, r0, #16
   84bce:	0412      	lsls	r2, r2, #16
   84bd0:	4603      	mov	r3, r0
   84bd2:	b9b2      	cbnz	r2, 84c02 <__hi0bits+0x36>
   84bd4:	0403      	lsls	r3, r0, #16
   84bd6:	2010      	movs	r0, #16
   84bd8:	f013 4f7f 	tst.w	r3, #4278190080	; 0xff000000
   84bdc:	bf04      	itt	eq
   84bde:	021b      	lsleq	r3, r3, #8
   84be0:	3008      	addeq	r0, #8
   84be2:	f013 4f70 	tst.w	r3, #4026531840	; 0xf0000000
   84be6:	bf04      	itt	eq
   84be8:	011b      	lsleq	r3, r3, #4
   84bea:	3004      	addeq	r0, #4
   84bec:	f013 4f40 	tst.w	r3, #3221225472	; 0xc0000000
   84bf0:	bf04      	itt	eq
   84bf2:	009b      	lsleq	r3, r3, #2
   84bf4:	3002      	addeq	r0, #2
   84bf6:	2b00      	cmp	r3, #0
   84bf8:	db02      	blt.n	84c00 <__hi0bits+0x34>
   84bfa:	005b      	lsls	r3, r3, #1
   84bfc:	d403      	bmi.n	84c06 <__hi0bits+0x3a>
   84bfe:	2020      	movs	r0, #32
   84c00:	4770      	bx	lr
   84c02:	2000      	movs	r0, #0
   84c04:	e7e8      	b.n	84bd8 <__hi0bits+0xc>
   84c06:	3001      	adds	r0, #1
   84c08:	4770      	bx	lr
   84c0a:	bf00      	nop

00084c0c <__lo0bits>:
   84c0c:	6803      	ldr	r3, [r0, #0]
   84c0e:	4601      	mov	r1, r0
   84c10:	f013 0207 	ands.w	r2, r3, #7
   84c14:	d007      	beq.n	84c26 <__lo0bits+0x1a>
   84c16:	07da      	lsls	r2, r3, #31
   84c18:	d421      	bmi.n	84c5e <__lo0bits+0x52>
   84c1a:	0798      	lsls	r0, r3, #30
   84c1c:	d421      	bmi.n	84c62 <__lo0bits+0x56>
   84c1e:	089b      	lsrs	r3, r3, #2
   84c20:	600b      	str	r3, [r1, #0]
   84c22:	2002      	movs	r0, #2
   84c24:	4770      	bx	lr
   84c26:	b298      	uxth	r0, r3
   84c28:	b198      	cbz	r0, 84c52 <__lo0bits+0x46>
   84c2a:	4610      	mov	r0, r2
   84c2c:	f013 0fff 	tst.w	r3, #255	; 0xff
   84c30:	bf04      	itt	eq
   84c32:	0a1b      	lsreq	r3, r3, #8
   84c34:	3008      	addeq	r0, #8
   84c36:	071a      	lsls	r2, r3, #28
   84c38:	bf04      	itt	eq
   84c3a:	091b      	lsreq	r3, r3, #4
   84c3c:	3004      	addeq	r0, #4
   84c3e:	079a      	lsls	r2, r3, #30
   84c40:	bf04      	itt	eq
   84c42:	089b      	lsreq	r3, r3, #2
   84c44:	3002      	addeq	r0, #2
   84c46:	07da      	lsls	r2, r3, #31
   84c48:	d407      	bmi.n	84c5a <__lo0bits+0x4e>
   84c4a:	085b      	lsrs	r3, r3, #1
   84c4c:	d104      	bne.n	84c58 <__lo0bits+0x4c>
   84c4e:	2020      	movs	r0, #32
   84c50:	4770      	bx	lr
   84c52:	0c1b      	lsrs	r3, r3, #16
   84c54:	2010      	movs	r0, #16
   84c56:	e7e9      	b.n	84c2c <__lo0bits+0x20>
   84c58:	3001      	adds	r0, #1
   84c5a:	600b      	str	r3, [r1, #0]
   84c5c:	4770      	bx	lr
   84c5e:	2000      	movs	r0, #0
   84c60:	4770      	bx	lr
   84c62:	085b      	lsrs	r3, r3, #1
   84c64:	600b      	str	r3, [r1, #0]
   84c66:	2001      	movs	r0, #1
   84c68:	4770      	bx	lr
   84c6a:	bf00      	nop

00084c6c <__i2b>:
   84c6c:	b510      	push	{r4, lr}
   84c6e:	460c      	mov	r4, r1
   84c70:	2101      	movs	r1, #1
   84c72:	f7ff ff39 	bl	84ae8 <_Balloc>
   84c76:	2201      	movs	r2, #1
   84c78:	6144      	str	r4, [r0, #20]
   84c7a:	6102      	str	r2, [r0, #16]
   84c7c:	bd10      	pop	{r4, pc}
   84c7e:	bf00      	nop

00084c80 <__multiply>:
   84c80:	e92d 4ff0 	stmdb	sp!, {r4, r5, r6, r7, r8, r9, sl, fp, lr}
   84c84:	690c      	ldr	r4, [r1, #16]
   84c86:	6915      	ldr	r5, [r2, #16]
   84c88:	b083      	sub	sp, #12
   84c8a:	42ac      	cmp	r4, r5
   84c8c:	468b      	mov	fp, r1
   84c8e:	4616      	mov	r6, r2
   84c90:	da04      	bge.n	84c9c <__multiply+0x1c>
   84c92:	4622      	mov	r2, r4
   84c94:	46b3      	mov	fp, r6
   84c96:	462c      	mov	r4, r5
   84c98:	460e      	mov	r6, r1
   84c9a:	4615      	mov	r5, r2
   84c9c:	f8db 3008 	ldr.w	r3, [fp, #8]
   84ca0:	eb04 0805 	add.w	r8, r4, r5
   84ca4:	f8db 1004 	ldr.w	r1, [fp, #4]
   84ca8:	4598      	cmp	r8, r3
   84caa:	bfc8      	it	gt
   84cac:	3101      	addgt	r1, #1
   84cae:	f7ff ff1b 	bl	84ae8 <_Balloc>
   84cb2:	f100 0914 	add.w	r9, r0, #20
   84cb6:	eb09 0a88 	add.w	sl, r9, r8, lsl #2
   84cba:	45d1      	cmp	r9, sl
   84cbc:	9000      	str	r0, [sp, #0]
   84cbe:	d205      	bcs.n	84ccc <__multiply+0x4c>
   84cc0:	464b      	mov	r3, r9
   84cc2:	2100      	movs	r1, #0
   84cc4:	f843 1b04 	str.w	r1, [r3], #4
   84cc8:	459a      	cmp	sl, r3
   84cca:	d8fb      	bhi.n	84cc4 <__multiply+0x44>
   84ccc:	f106 0c14 	add.w	ip, r6, #20
   84cd0:	eb0c 0385 	add.w	r3, ip, r5, lsl #2
   84cd4:	f10b 0b14 	add.w	fp, fp, #20
   84cd8:	459c      	cmp	ip, r3
   84cda:	eb0b 0e84 	add.w	lr, fp, r4, lsl #2
   84cde:	d24b      	bcs.n	84d78 <__multiply+0xf8>
   84ce0:	f8cd a004 	str.w	sl, [sp, #4]
   84ce4:	469a      	mov	sl, r3
   84ce6:	f8dc 5000 	ldr.w	r5, [ip]
   84cea:	b2af      	uxth	r7, r5
   84cec:	b1e7      	cbz	r7, 84d28 <__multiply+0xa8>
   84cee:	464d      	mov	r5, r9
   84cf0:	465e      	mov	r6, fp
   84cf2:	2100      	movs	r1, #0
   84cf4:	f856 2b04 	ldr.w	r2, [r6], #4
   84cf8:	6828      	ldr	r0, [r5, #0]
   84cfa:	b293      	uxth	r3, r2
   84cfc:	b284      	uxth	r4, r0
   84cfe:	0c12      	lsrs	r2, r2, #16
   84d00:	fb07 4303 	mla	r3, r7, r3, r4
   84d04:	0c00      	lsrs	r0, r0, #16
   84d06:	fb07 0202 	mla	r2, r7, r2, r0
   84d0a:	440b      	add	r3, r1
   84d0c:	eb02 4113 	add.w	r1, r2, r3, lsr #16
   84d10:	b29b      	uxth	r3, r3
   84d12:	ea43 4301 	orr.w	r3, r3, r1, lsl #16
   84d16:	45b6      	cmp	lr, r6
   84d18:	f845 3b04 	str.w	r3, [r5], #4
   84d1c:	ea4f 4111 	mov.w	r1, r1, lsr #16
   84d20:	d8e8      	bhi.n	84cf4 <__multiply+0x74>
   84d22:	6029      	str	r1, [r5, #0]
   84d24:	f8dc 5000 	ldr.w	r5, [ip]
   84d28:	0c2d      	lsrs	r5, r5, #16
   84d2a:	d01d      	beq.n	84d68 <__multiply+0xe8>
   84d2c:	f8d9 3000 	ldr.w	r3, [r9]
   84d30:	4648      	mov	r0, r9
   84d32:	461c      	mov	r4, r3
   84d34:	4659      	mov	r1, fp
   84d36:	2200      	movs	r2, #0
   84d38:	880e      	ldrh	r6, [r1, #0]
   84d3a:	0c24      	lsrs	r4, r4, #16
   84d3c:	fb05 4406 	mla	r4, r5, r6, r4
   84d40:	b29b      	uxth	r3, r3
   84d42:	4422      	add	r2, r4
   84d44:	ea43 4302 	orr.w	r3, r3, r2, lsl #16
   84d48:	f840 3b04 	str.w	r3, [r0], #4
   84d4c:	f851 3b04 	ldr.w	r3, [r1], #4
   84d50:	6804      	ldr	r4, [r0, #0]
   84d52:	0c1b      	lsrs	r3, r3, #16
   84d54:	b2a6      	uxth	r6, r4
   84d56:	fb05 6303 	mla	r3, r5, r3, r6
   84d5a:	458e      	cmp	lr, r1
   84d5c:	eb03 4312 	add.w	r3, r3, r2, lsr #16
   84d60:	ea4f 4213 	mov.w	r2, r3, lsr #16
   84d64:	d8e8      	bhi.n	84d38 <__multiply+0xb8>
   84d66:	6003      	str	r3, [r0, #0]
   84d68:	f10c 0c04 	add.w	ip, ip, #4
   84d6c:	45e2      	cmp	sl, ip
   84d6e:	f109 0904 	add.w	r9, r9, #4
   84d72:	d8b8      	bhi.n	84ce6 <__multiply+0x66>
   84d74:	f8dd a004 	ldr.w	sl, [sp, #4]
   84d78:	f1b8 0f00 	cmp.w	r8, #0
   84d7c:	dd0b      	ble.n	84d96 <__multiply+0x116>
   84d7e:	f85a 3c04 	ldr.w	r3, [sl, #-4]
   84d82:	f1aa 0a04 	sub.w	sl, sl, #4
   84d86:	b11b      	cbz	r3, 84d90 <__multiply+0x110>
   84d88:	e005      	b.n	84d96 <__multiply+0x116>
   84d8a:	f85a 3d04 	ldr.w	r3, [sl, #-4]!
   84d8e:	b913      	cbnz	r3, 84d96 <__multiply+0x116>
   84d90:	f1b8 0801 	subs.w	r8, r8, #1
   84d94:	d1f9      	bne.n	84d8a <__multiply+0x10a>
   84d96:	9800      	ldr	r0, [sp, #0]
   84d98:	f8c0 8010 	str.w	r8, [r0, #16]
   84d9c:	b003      	add	sp, #12
   84d9e:	e8bd 8ff0 	ldmia.w	sp!, {r4, r5, r6, r7, r8, r9, sl, fp, pc}
   84da2:	bf00      	nop

00084da4 <__pow5mult>:
   84da4:	f012 0303 	ands.w	r3, r2, #3
   84da8:	e92d 41f0 	stmdb	sp!, {r4, r5, r6, r7, r8, lr}
   84dac:	4614      	mov	r4, r2
   84dae:	4607      	mov	r7, r0
   84db0:	d12e      	bne.n	84e10 <__pow5mult+0x6c>
   84db2:	460d      	mov	r5, r1
   84db4:	10a4      	asrs	r4, r4, #2
   84db6:	d01c      	beq.n	84df2 <__pow5mult+0x4e>
   84db8:	6cbe      	ldr	r6, [r7, #72]	; 0x48
   84dba:	b396      	cbz	r6, 84e22 <__pow5mult+0x7e>
   84dbc:	07e3      	lsls	r3, r4, #31
   84dbe:	f04f 0800 	mov.w	r8, #0
   84dc2:	d406      	bmi.n	84dd2 <__pow5mult+0x2e>
   84dc4:	1064      	asrs	r4, r4, #1
   84dc6:	d014      	beq.n	84df2 <__pow5mult+0x4e>
   84dc8:	6830      	ldr	r0, [r6, #0]
   84dca:	b1a8      	cbz	r0, 84df8 <__pow5mult+0x54>
   84dcc:	4606      	mov	r6, r0
   84dce:	07e3      	lsls	r3, r4, #31
   84dd0:	d5f8      	bpl.n	84dc4 <__pow5mult+0x20>
   84dd2:	4632      	mov	r2, r6
   84dd4:	4629      	mov	r1, r5
   84dd6:	4638      	mov	r0, r7
   84dd8:	f7ff ff52 	bl	84c80 <__multiply>
   84ddc:	b1b5      	cbz	r5, 84e0c <__pow5mult+0x68>
   84dde:	686a      	ldr	r2, [r5, #4]
   84de0:	6cfb      	ldr	r3, [r7, #76]	; 0x4c
   84de2:	1064      	asrs	r4, r4, #1
   84de4:	f853 1022 	ldr.w	r1, [r3, r2, lsl #2]
   84de8:	6029      	str	r1, [r5, #0]
   84dea:	f843 5022 	str.w	r5, [r3, r2, lsl #2]
   84dee:	4605      	mov	r5, r0
   84df0:	d1ea      	bne.n	84dc8 <__pow5mult+0x24>
   84df2:	4628      	mov	r0, r5
   84df4:	e8bd 81f0 	ldmia.w	sp!, {r4, r5, r6, r7, r8, pc}
   84df8:	4632      	mov	r2, r6
   84dfa:	4631      	mov	r1, r6
   84dfc:	4638      	mov	r0, r7
   84dfe:	f7ff ff3f 	bl	84c80 <__multiply>
   84e02:	6030      	str	r0, [r6, #0]
   84e04:	f8c0 8000 	str.w	r8, [r0]
   84e08:	4606      	mov	r6, r0
   84e0a:	e7e0      	b.n	84dce <__pow5mult+0x2a>
   84e0c:	4605      	mov	r5, r0
   84e0e:	e7d9      	b.n	84dc4 <__pow5mult+0x20>
   84e10:	4a0b      	ldr	r2, [pc, #44]	; (84e40 <__pow5mult+0x9c>)
   84e12:	3b01      	subs	r3, #1
   84e14:	f852 2023 	ldr.w	r2, [r2, r3, lsl #2]
   84e18:	2300      	movs	r3, #0
   84e1a:	f7ff fe95 	bl	84b48 <__multadd>
   84e1e:	4605      	mov	r5, r0
   84e20:	e7c8      	b.n	84db4 <__pow5mult+0x10>
   84e22:	2101      	movs	r1, #1
   84e24:	4638      	mov	r0, r7
   84e26:	f7ff fe5f 	bl	84ae8 <_Balloc>
   84e2a:	f240 2171 	movw	r1, #625	; 0x271
   84e2e:	2201      	movs	r2, #1
   84e30:	2300      	movs	r3, #0
   84e32:	6141      	str	r1, [r0, #20]
   84e34:	6102      	str	r2, [r0, #16]
   84e36:	4606      	mov	r6, r0
   84e38:	64b8      	str	r0, [r7, #72]	; 0x48
   84e3a:	6003      	str	r3, [r0, #0]
   84e3c:	e7be      	b.n	84dbc <__pow5mult+0x18>
   84e3e:	bf00      	nop
   84e40:	000864f0 	.word	0x000864f0

00084e44 <__lshift>:
   84e44:	e92d 43f8 	stmdb	sp!, {r3, r4, r5, r6, r7, r8, r9, lr}
   84e48:	690b      	ldr	r3, [r1, #16]
   84e4a:	1154      	asrs	r4, r2, #5
   84e4c:	eb04 0803 	add.w	r8, r4, r3
   84e50:	688b      	ldr	r3, [r1, #8]
   84e52:	f108 0501 	add.w	r5, r8, #1
   84e56:	429d      	cmp	r5, r3
   84e58:	460e      	mov	r6, r1
   84e5a:	4691      	mov	r9, r2
   84e5c:	4607      	mov	r7, r0
   84e5e:	6849      	ldr	r1, [r1, #4]
   84e60:	dd04      	ble.n	84e6c <__lshift+0x28>
   84e62:	005b      	lsls	r3, r3, #1
   84e64:	429d      	cmp	r5, r3
   84e66:	f101 0101 	add.w	r1, r1, #1
   84e6a:	dcfa      	bgt.n	84e62 <__lshift+0x1e>
   84e6c:	4638      	mov	r0, r7
   84e6e:	f7ff fe3b 	bl	84ae8 <_Balloc>
   84e72:	2c00      	cmp	r4, #0
   84e74:	f100 0314 	add.w	r3, r0, #20
   84e78:	dd06      	ble.n	84e88 <__lshift+0x44>
   84e7a:	2100      	movs	r1, #0
   84e7c:	eb03 0284 	add.w	r2, r3, r4, lsl #2
   84e80:	f843 1b04 	str.w	r1, [r3], #4
   84e84:	429a      	cmp	r2, r3
   84e86:	d1fb      	bne.n	84e80 <__lshift+0x3c>
   84e88:	6934      	ldr	r4, [r6, #16]
   84e8a:	f106 0114 	add.w	r1, r6, #20
   84e8e:	f019 091f 	ands.w	r9, r9, #31
   84e92:	eb01 0e84 	add.w	lr, r1, r4, lsl #2
   84e96:	d01d      	beq.n	84ed4 <__lshift+0x90>
   84e98:	2200      	movs	r2, #0
   84e9a:	f1c9 0c20 	rsb	ip, r9, #32
   84e9e:	680c      	ldr	r4, [r1, #0]
   84ea0:	fa04 f409 	lsl.w	r4, r4, r9
   84ea4:	4314      	orrs	r4, r2
   84ea6:	f843 4b04 	str.w	r4, [r3], #4
   84eaa:	f851 2b04 	ldr.w	r2, [r1], #4
   84eae:	458e      	cmp	lr, r1
   84eb0:	fa22 f20c 	lsr.w	r2, r2, ip
   84eb4:	d8f3      	bhi.n	84e9e <__lshift+0x5a>
   84eb6:	601a      	str	r2, [r3, #0]
   84eb8:	b10a      	cbz	r2, 84ebe <__lshift+0x7a>
   84eba:	f108 0502 	add.w	r5, r8, #2
   84ebe:	6cfb      	ldr	r3, [r7, #76]	; 0x4c
   84ec0:	6872      	ldr	r2, [r6, #4]
   84ec2:	3d01      	subs	r5, #1
   84ec4:	f853 1022 	ldr.w	r1, [r3, r2, lsl #2]
   84ec8:	6105      	str	r5, [r0, #16]
   84eca:	6031      	str	r1, [r6, #0]
   84ecc:	f843 6022 	str.w	r6, [r3, r2, lsl #2]
   84ed0:	e8bd 83f8 	ldmia.w	sp!, {r3, r4, r5, r6, r7, r8, r9, pc}
   84ed4:	3b04      	subs	r3, #4
   84ed6:	f851 2b04 	ldr.w	r2, [r1], #4
   84eda:	458e      	cmp	lr, r1
   84edc:	f843 2f04 	str.w	r2, [r3, #4]!
   84ee0:	d8f9      	bhi.n	84ed6 <__lshift+0x92>
   84ee2:	e7ec      	b.n	84ebe <__lshift+0x7a>

00084ee4 <__mcmp>:
   84ee4:	b430      	push	{r4, r5}
   84ee6:	690b      	ldr	r3, [r1, #16]
   84ee8:	4605      	mov	r5, r0
   84eea:	6900      	ldr	r0, [r0, #16]
   84eec:	1ac0      	subs	r0, r0, r3
   84eee:	d10f      	bne.n	84f10 <__mcmp+0x2c>
   84ef0:	009b      	lsls	r3, r3, #2
   84ef2:	3514      	adds	r5, #20
   84ef4:	3114      	adds	r1, #20
   84ef6:	4419      	add	r1, r3
   84ef8:	442b      	add	r3, r5
   84efa:	e001      	b.n	84f00 <__mcmp+0x1c>
   84efc:	429d      	cmp	r5, r3
   84efe:	d207      	bcs.n	84f10 <__mcmp+0x2c>
   84f00:	f853 4d04 	ldr.w	r4, [r3, #-4]!
   84f04:	f851 2d04 	ldr.w	r2, [r1, #-4]!
   84f08:	4294      	cmp	r4, r2
   84f0a:	d0f7      	beq.n	84efc <__mcmp+0x18>
   84f0c:	d302      	bcc.n	84f14 <__mcmp+0x30>
   84f0e:	2001      	movs	r0, #1
   84f10:	bc30      	pop	{r4, r5}
   84f12:	4770      	bx	lr
   84f14:	f04f 30ff 	mov.w	r0, #4294967295
   84f18:	e7fa      	b.n	84f10 <__mcmp+0x2c>
   84f1a:	bf00      	nop

00084f1c <__mdiff>:
   84f1c:	e92d 4ff8 	stmdb	sp!, {r3, r4, r5, r6, r7, r8, r9, sl, fp, lr}
   84f20:	690c      	ldr	r4, [r1, #16]
   84f22:	4689      	mov	r9, r1
   84f24:	6911      	ldr	r1, [r2, #16]
   84f26:	4692      	mov	sl, r2
   84f28:	1a64      	subs	r4, r4, r1
   84f2a:	2c00      	cmp	r4, #0
   84f2c:	d117      	bne.n	84f5e <__mdiff+0x42>
   84f2e:	0089      	lsls	r1, r1, #2
   84f30:	f109 0714 	add.w	r7, r9, #20
   84f34:	f102 0614 	add.w	r6, r2, #20
   84f38:	187b      	adds	r3, r7, r1
   84f3a:	4431      	add	r1, r6
   84f3c:	e001      	b.n	84f42 <__mdiff+0x26>
   84f3e:	429f      	cmp	r7, r3
   84f40:	d265      	bcs.n	8500e <__mdiff+0xf2>
   84f42:	f853 5d04 	ldr.w	r5, [r3, #-4]!
   84f46:	f851 2d04 	ldr.w	r2, [r1, #-4]!
   84f4a:	4295      	cmp	r5, r2
   84f4c:	d0f7      	beq.n	84f3e <__mdiff+0x22>
   84f4e:	d267      	bcs.n	85020 <__mdiff+0x104>
   84f50:	464b      	mov	r3, r9
   84f52:	46bb      	mov	fp, r7
   84f54:	46d1      	mov	r9, sl
   84f56:	4637      	mov	r7, r6
   84f58:	469a      	mov	sl, r3
   84f5a:	2401      	movs	r4, #1
   84f5c:	e005      	b.n	84f6a <__mdiff+0x4e>
   84f5e:	db61      	blt.n	85024 <__mdiff+0x108>
   84f60:	2400      	movs	r4, #0
   84f62:	f109 0714 	add.w	r7, r9, #20
   84f66:	f10a 0b14 	add.w	fp, sl, #20
   84f6a:	f8d9 1004 	ldr.w	r1, [r9, #4]
   84f6e:	f7ff fdbb 	bl	84ae8 <_Balloc>
   84f72:	465d      	mov	r5, fp
   84f74:	f04f 0800 	mov.w	r8, #0
   84f78:	f8d9 e010 	ldr.w	lr, [r9, #16]
   84f7c:	f8da 3010 	ldr.w	r3, [sl, #16]
   84f80:	463e      	mov	r6, r7
   84f82:	60c4      	str	r4, [r0, #12]
   84f84:	eb0b 0c83 	add.w	ip, fp, r3, lsl #2
   84f88:	eb07 078e 	add.w	r7, r7, lr, lsl #2
   84f8c:	f100 0414 	add.w	r4, r0, #20
   84f90:	f856 9b04 	ldr.w	r9, [r6], #4
   84f94:	f855 2b04 	ldr.w	r2, [r5], #4
   84f98:	fa1f f389 	uxth.w	r3, r9
   84f9c:	4443      	add	r3, r8
   84f9e:	fa1f f882 	uxth.w	r8, r2
   84fa2:	0c12      	lsrs	r2, r2, #16
   84fa4:	eba3 0308 	sub.w	r3, r3, r8
   84fa8:	ebc2 4219 	rsb	r2, r2, r9, lsr #16
   84fac:	eb02 4223 	add.w	r2, r2, r3, asr #16
   84fb0:	b29b      	uxth	r3, r3
   84fb2:	ea43 4302 	orr.w	r3, r3, r2, lsl #16
   84fb6:	45ac      	cmp	ip, r5
   84fb8:	f844 3b04 	str.w	r3, [r4], #4
   84fbc:	ea4f 4822 	mov.w	r8, r2, asr #16
   84fc0:	d8e6      	bhi.n	84f90 <__mdiff+0x74>
   84fc2:	42b7      	cmp	r7, r6
   84fc4:	d917      	bls.n	84ff6 <__mdiff+0xda>
   84fc6:	46a4      	mov	ip, r4
   84fc8:	4635      	mov	r5, r6
   84fca:	f855 3b04 	ldr.w	r3, [r5], #4
   84fce:	b299      	uxth	r1, r3
   84fd0:	4441      	add	r1, r8
   84fd2:	140a      	asrs	r2, r1, #16
   84fd4:	eb02 4213 	add.w	r2, r2, r3, lsr #16
   84fd8:	b289      	uxth	r1, r1
   84fda:	ea41 4302 	orr.w	r3, r1, r2, lsl #16
   84fde:	42af      	cmp	r7, r5
   84fe0:	f84c 3b04 	str.w	r3, [ip], #4
   84fe4:	ea4f 4822 	mov.w	r8, r2, asr #16
   84fe8:	d8ef      	bhi.n	84fca <__mdiff+0xae>
   84fea:	43f6      	mvns	r6, r6
   84fec:	4437      	add	r7, r6
   84fee:	f027 0703 	bic.w	r7, r7, #3
   84ff2:	3704      	adds	r7, #4
   84ff4:	443c      	add	r4, r7
   84ff6:	3c04      	subs	r4, #4
   84ff8:	b92b      	cbnz	r3, 85006 <__mdiff+0xea>
   84ffa:	f854 3d04 	ldr.w	r3, [r4, #-4]!
   84ffe:	f10e 3eff 	add.w	lr, lr, #4294967295
   85002:	2b00      	cmp	r3, #0
   85004:	d0f9      	beq.n	84ffa <__mdiff+0xde>
   85006:	f8c0 e010 	str.w	lr, [r0, #16]
   8500a:	e8bd 8ff8 	ldmia.w	sp!, {r3, r4, r5, r6, r7, r8, r9, sl, fp, pc}
   8500e:	2100      	movs	r1, #0
   85010:	f7ff fd6a 	bl	84ae8 <_Balloc>
   85014:	2201      	movs	r2, #1
   85016:	2300      	movs	r3, #0
   85018:	6102      	str	r2, [r0, #16]
   8501a:	6143      	str	r3, [r0, #20]
   8501c:	e8bd 8ff8 	ldmia.w	sp!, {r3, r4, r5, r6, r7, r8, r9, sl, fp, pc}
   85020:	46b3      	mov	fp, r6
   85022:	e7a2      	b.n	84f6a <__mdiff+0x4e>
   85024:	464b      	mov	r3, r9
   85026:	f109 0b14 	add.w	fp, r9, #20
   8502a:	f102 0714 	add.w	r7, r2, #20
   8502e:	4691      	mov	r9, r2
   85030:	2401      	movs	r4, #1
   85032:	469a      	mov	sl, r3
   85034:	e799      	b.n	84f6a <__mdiff+0x4e>
   85036:	bf00      	nop

00085038 <__d2b>:
   85038:	b5f0      	push	{r4, r5, r6, r7, lr}
   8503a:	2101      	movs	r1, #1
   8503c:	b083      	sub	sp, #12
   8503e:	461c      	mov	r4, r3
   85040:	f3c3 550a 	ubfx	r5, r3, #20, #11
   85044:	4616      	mov	r6, r2
   85046:	f7ff fd4f 	bl	84ae8 <_Balloc>
   8504a:	f3c4 0413 	ubfx	r4, r4, #0, #20
   8504e:	4607      	mov	r7, r0
   85050:	b10d      	cbz	r5, 85056 <__d2b+0x1e>
   85052:	f444 1480 	orr.w	r4, r4, #1048576	; 0x100000
   85056:	9401      	str	r4, [sp, #4]
   85058:	b306      	cbz	r6, 8509c <__d2b+0x64>
   8505a:	a802      	add	r0, sp, #8
   8505c:	f840 6d08 	str.w	r6, [r0, #-8]!
   85060:	f7ff fdd4 	bl	84c0c <__lo0bits>
   85064:	2800      	cmp	r0, #0
   85066:	d130      	bne.n	850ca <__d2b+0x92>
   85068:	e89d 000c 	ldmia.w	sp, {r2, r3}
   8506c:	617a      	str	r2, [r7, #20]
   8506e:	2b00      	cmp	r3, #0
   85070:	bf0c      	ite	eq
   85072:	2101      	moveq	r1, #1
   85074:	2102      	movne	r1, #2
   85076:	61bb      	str	r3, [r7, #24]
   85078:	6139      	str	r1, [r7, #16]
   8507a:	b9d5      	cbnz	r5, 850b2 <__d2b+0x7a>
   8507c:	9a08      	ldr	r2, [sp, #32]
   8507e:	eb07 0381 	add.w	r3, r7, r1, lsl #2
   85082:	f2a0 4032 	subw	r0, r0, #1074	; 0x432
   85086:	6010      	str	r0, [r2, #0]
   85088:	6918      	ldr	r0, [r3, #16]
   8508a:	f7ff fd9f 	bl	84bcc <__hi0bits>
   8508e:	9b09      	ldr	r3, [sp, #36]	; 0x24
   85090:	ebc0 1041 	rsb	r0, r0, r1, lsl #5
   85094:	6018      	str	r0, [r3, #0]
   85096:	4638      	mov	r0, r7
   85098:	b003      	add	sp, #12
   8509a:	bdf0      	pop	{r4, r5, r6, r7, pc}
   8509c:	a801      	add	r0, sp, #4
   8509e:	f7ff fdb5 	bl	84c0c <__lo0bits>
   850a2:	2201      	movs	r2, #1
   850a4:	9b01      	ldr	r3, [sp, #4]
   850a6:	4611      	mov	r1, r2
   850a8:	3020      	adds	r0, #32
   850aa:	613a      	str	r2, [r7, #16]
   850ac:	617b      	str	r3, [r7, #20]
   850ae:	2d00      	cmp	r5, #0
   850b0:	d0e4      	beq.n	8507c <__d2b+0x44>
   850b2:	f2a5 4333 	subw	r3, r5, #1075	; 0x433
   850b6:	9a08      	ldr	r2, [sp, #32]
   850b8:	4403      	add	r3, r0
   850ba:	6013      	str	r3, [r2, #0]
   850bc:	9b09      	ldr	r3, [sp, #36]	; 0x24
   850be:	f1c0 0035 	rsb	r0, r0, #53	; 0x35
   850c2:	6018      	str	r0, [r3, #0]
   850c4:	4638      	mov	r0, r7
   850c6:	b003      	add	sp, #12
   850c8:	bdf0      	pop	{r4, r5, r6, r7, pc}
   850ca:	9b01      	ldr	r3, [sp, #4]
   850cc:	f1c0 0220 	rsb	r2, r0, #32
   850d0:	9900      	ldr	r1, [sp, #0]
   850d2:	fa03 f202 	lsl.w	r2, r3, r2
   850d6:	430a      	orrs	r2, r1
   850d8:	40c3      	lsrs	r3, r0
   850da:	9301      	str	r3, [sp, #4]
   850dc:	617a      	str	r2, [r7, #20]
   850de:	e7c6      	b.n	8506e <__d2b+0x36>

000850e0 <_realloc_r>:
   850e0:	2900      	cmp	r1, #0
   850e2:	f000 8094 	beq.w	8520e <_realloc_r+0x12e>
   850e6:	e92d 4ff0 	stmdb	sp!, {r4, r5, r6, r7, r8, r9, sl, fp, lr}
   850ea:	460c      	mov	r4, r1
   850ec:	4615      	mov	r5, r2
   850ee:	b083      	sub	sp, #12
   850f0:	4680      	mov	r8, r0
   850f2:	f105 060b 	add.w	r6, r5, #11
   850f6:	f7fd f81b 	bl	82130 <__malloc_lock>
   850fa:	f854 ec04 	ldr.w	lr, [r4, #-4]
   850fe:	2e16      	cmp	r6, #22
   85100:	f02e 0703 	bic.w	r7, lr, #3
   85104:	f1a4 0908 	sub.w	r9, r4, #8
   85108:	d83c      	bhi.n	85184 <_realloc_r+0xa4>
   8510a:	2210      	movs	r2, #16
   8510c:	4616      	mov	r6, r2
   8510e:	42b5      	cmp	r5, r6
   85110:	d83d      	bhi.n	8518e <_realloc_r+0xae>
   85112:	4297      	cmp	r7, r2
   85114:	da43      	bge.n	8519e <_realloc_r+0xbe>
   85116:	4bc6      	ldr	r3, [pc, #792]	; (85430 <_realloc_r+0x350>)
   85118:	eb09 0007 	add.w	r0, r9, r7
   8511c:	6899      	ldr	r1, [r3, #8]
   8511e:	4288      	cmp	r0, r1
   85120:	f000 80c3 	beq.w	852aa <_realloc_r+0x1ca>
   85124:	6843      	ldr	r3, [r0, #4]
   85126:	f023 0101 	bic.w	r1, r3, #1
   8512a:	4401      	add	r1, r0
   8512c:	6849      	ldr	r1, [r1, #4]
   8512e:	07c9      	lsls	r1, r1, #31
   85130:	d54d      	bpl.n	851ce <_realloc_r+0xee>
   85132:	f01e 0f01 	tst.w	lr, #1
   85136:	f000 809b 	beq.w	85270 <_realloc_r+0x190>
   8513a:	4629      	mov	r1, r5
   8513c:	4640      	mov	r0, r8
   8513e:	f7fc fc91 	bl	81a64 <_malloc_r>
   85142:	4605      	mov	r5, r0
   85144:	2800      	cmp	r0, #0
   85146:	d03b      	beq.n	851c0 <_realloc_r+0xe0>
   85148:	f854 3c04 	ldr.w	r3, [r4, #-4]
   8514c:	f1a0 0208 	sub.w	r2, r0, #8
   85150:	f023 0301 	bic.w	r3, r3, #1
   85154:	444b      	add	r3, r9
   85156:	429a      	cmp	r2, r3
   85158:	f000 812b 	beq.w	853b2 <_realloc_r+0x2d2>
   8515c:	1f3a      	subs	r2, r7, #4
   8515e:	2a24      	cmp	r2, #36	; 0x24
   85160:	f200 8118 	bhi.w	85394 <_realloc_r+0x2b4>
   85164:	2a13      	cmp	r2, #19
   85166:	f200 80eb 	bhi.w	85340 <_realloc_r+0x260>
   8516a:	4603      	mov	r3, r0
   8516c:	4622      	mov	r2, r4
   8516e:	6811      	ldr	r1, [r2, #0]
   85170:	6019      	str	r1, [r3, #0]
   85172:	6851      	ldr	r1, [r2, #4]
   85174:	6059      	str	r1, [r3, #4]
   85176:	6892      	ldr	r2, [r2, #8]
   85178:	609a      	str	r2, [r3, #8]
   8517a:	4621      	mov	r1, r4
   8517c:	4640      	mov	r0, r8
   8517e:	f7ff fafb 	bl	84778 <_free_r>
   85182:	e01d      	b.n	851c0 <_realloc_r+0xe0>
   85184:	f026 0607 	bic.w	r6, r6, #7
   85188:	2e00      	cmp	r6, #0
   8518a:	4632      	mov	r2, r6
   8518c:	dabf      	bge.n	8510e <_realloc_r+0x2e>
   8518e:	2500      	movs	r5, #0
   85190:	230c      	movs	r3, #12
   85192:	4628      	mov	r0, r5
   85194:	f8c8 3000 	str.w	r3, [r8]
   85198:	b003      	add	sp, #12
   8519a:	e8bd 8ff0 	ldmia.w	sp!, {r4, r5, r6, r7, r8, r9, sl, fp, pc}
   8519e:	4625      	mov	r5, r4
   851a0:	1bbb      	subs	r3, r7, r6
   851a2:	2b0f      	cmp	r3, #15
   851a4:	f8d9 2004 	ldr.w	r2, [r9, #4]
   851a8:	d81d      	bhi.n	851e6 <_realloc_r+0x106>
   851aa:	f002 0201 	and.w	r2, r2, #1
   851ae:	433a      	orrs	r2, r7
   851b0:	eb09 0107 	add.w	r1, r9, r7
   851b4:	f8c9 2004 	str.w	r2, [r9, #4]
   851b8:	684b      	ldr	r3, [r1, #4]
   851ba:	f043 0301 	orr.w	r3, r3, #1
   851be:	604b      	str	r3, [r1, #4]
   851c0:	4640      	mov	r0, r8
   851c2:	f7fc ffbb 	bl	8213c <__malloc_unlock>
   851c6:	4628      	mov	r0, r5
   851c8:	b003      	add	sp, #12
   851ca:	e8bd 8ff0 	ldmia.w	sp!, {r4, r5, r6, r7, r8, r9, sl, fp, pc}
   851ce:	f023 0303 	bic.w	r3, r3, #3
   851d2:	18f9      	adds	r1, r7, r3
   851d4:	4291      	cmp	r1, r2
   851d6:	db1d      	blt.n	85214 <_realloc_r+0x134>
   851d8:	68c3      	ldr	r3, [r0, #12]
   851da:	6882      	ldr	r2, [r0, #8]
   851dc:	4625      	mov	r5, r4
   851de:	60d3      	str	r3, [r2, #12]
   851e0:	460f      	mov	r7, r1
   851e2:	609a      	str	r2, [r3, #8]
   851e4:	e7dc      	b.n	851a0 <_realloc_r+0xc0>
   851e6:	f002 0201 	and.w	r2, r2, #1
   851ea:	eb09 0106 	add.w	r1, r9, r6
   851ee:	f043 0301 	orr.w	r3, r3, #1
   851f2:	4332      	orrs	r2, r6
   851f4:	f8c9 2004 	str.w	r2, [r9, #4]
   851f8:	444f      	add	r7, r9
   851fa:	604b      	str	r3, [r1, #4]
   851fc:	687b      	ldr	r3, [r7, #4]
   851fe:	3108      	adds	r1, #8
   85200:	f043 0301 	orr.w	r3, r3, #1
   85204:	607b      	str	r3, [r7, #4]
   85206:	4640      	mov	r0, r8
   85208:	f7ff fab6 	bl	84778 <_free_r>
   8520c:	e7d8      	b.n	851c0 <_realloc_r+0xe0>
   8520e:	4611      	mov	r1, r2
   85210:	f7fc bc28 	b.w	81a64 <_malloc_r>
   85214:	f01e 0f01 	tst.w	lr, #1
   85218:	d18f      	bne.n	8513a <_realloc_r+0x5a>
   8521a:	f854 1c08 	ldr.w	r1, [r4, #-8]
   8521e:	eba9 0a01 	sub.w	sl, r9, r1
   85222:	f8da 1004 	ldr.w	r1, [sl, #4]
   85226:	f021 0103 	bic.w	r1, r1, #3
   8522a:	440b      	add	r3, r1
   8522c:	443b      	add	r3, r7
   8522e:	4293      	cmp	r3, r2
   85230:	db26      	blt.n	85280 <_realloc_r+0x1a0>
   85232:	4655      	mov	r5, sl
   85234:	68c1      	ldr	r1, [r0, #12]
   85236:	6880      	ldr	r0, [r0, #8]
   85238:	1f3a      	subs	r2, r7, #4
   8523a:	60c1      	str	r1, [r0, #12]
   8523c:	6088      	str	r0, [r1, #8]
   8523e:	f855 0f08 	ldr.w	r0, [r5, #8]!
   85242:	f8da 100c 	ldr.w	r1, [sl, #12]
   85246:	2a24      	cmp	r2, #36	; 0x24
   85248:	60c1      	str	r1, [r0, #12]
   8524a:	6088      	str	r0, [r1, #8]
   8524c:	d826      	bhi.n	8529c <_realloc_r+0x1bc>
   8524e:	2a13      	cmp	r2, #19
   85250:	f240 8081 	bls.w	85356 <_realloc_r+0x276>
   85254:	6821      	ldr	r1, [r4, #0]
   85256:	2a1b      	cmp	r2, #27
   85258:	f8ca 1008 	str.w	r1, [sl, #8]
   8525c:	6861      	ldr	r1, [r4, #4]
   8525e:	f8ca 100c 	str.w	r1, [sl, #12]
   85262:	f200 80ad 	bhi.w	853c0 <_realloc_r+0x2e0>
   85266:	f104 0008 	add.w	r0, r4, #8
   8526a:	f10a 0210 	add.w	r2, sl, #16
   8526e:	e074      	b.n	8535a <_realloc_r+0x27a>
   85270:	f854 3c08 	ldr.w	r3, [r4, #-8]
   85274:	eba9 0a03 	sub.w	sl, r9, r3
   85278:	f8da 1004 	ldr.w	r1, [sl, #4]
   8527c:	f021 0103 	bic.w	r1, r1, #3
   85280:	187b      	adds	r3, r7, r1
   85282:	4293      	cmp	r3, r2
   85284:	f6ff af59 	blt.w	8513a <_realloc_r+0x5a>
   85288:	4655      	mov	r5, sl
   8528a:	f8da 100c 	ldr.w	r1, [sl, #12]
   8528e:	f855 0f08 	ldr.w	r0, [r5, #8]!
   85292:	1f3a      	subs	r2, r7, #4
   85294:	2a24      	cmp	r2, #36	; 0x24
   85296:	60c1      	str	r1, [r0, #12]
   85298:	6088      	str	r0, [r1, #8]
   8529a:	d9d8      	bls.n	8524e <_realloc_r+0x16e>
   8529c:	4621      	mov	r1, r4
   8529e:	4628      	mov	r0, r5
   852a0:	461f      	mov	r7, r3
   852a2:	46d1      	mov	r9, sl
   852a4:	f7ff fbbc 	bl	84a20 <memmove>
   852a8:	e77a      	b.n	851a0 <_realloc_r+0xc0>
   852aa:	6841      	ldr	r1, [r0, #4]
   852ac:	f106 0010 	add.w	r0, r6, #16
   852b0:	f021 0b03 	bic.w	fp, r1, #3
   852b4:	44bb      	add	fp, r7
   852b6:	4583      	cmp	fp, r0
   852b8:	da58      	bge.n	8536c <_realloc_r+0x28c>
   852ba:	f01e 0f01 	tst.w	lr, #1
   852be:	f47f af3c 	bne.w	8513a <_realloc_r+0x5a>
   852c2:	f854 1c08 	ldr.w	r1, [r4, #-8]
   852c6:	eba9 0a01 	sub.w	sl, r9, r1
   852ca:	f8da 1004 	ldr.w	r1, [sl, #4]
   852ce:	f021 0103 	bic.w	r1, r1, #3
   852d2:	448b      	add	fp, r1
   852d4:	4558      	cmp	r0, fp
   852d6:	dcd3      	bgt.n	85280 <_realloc_r+0x1a0>
   852d8:	4655      	mov	r5, sl
   852da:	f8da 100c 	ldr.w	r1, [sl, #12]
   852de:	f855 0f08 	ldr.w	r0, [r5, #8]!
   852e2:	1f3a      	subs	r2, r7, #4
   852e4:	2a24      	cmp	r2, #36	; 0x24
   852e6:	60c1      	str	r1, [r0, #12]
   852e8:	6088      	str	r0, [r1, #8]
   852ea:	f200 808d 	bhi.w	85408 <_realloc_r+0x328>
   852ee:	2a13      	cmp	r2, #19
   852f0:	f240 8087 	bls.w	85402 <_realloc_r+0x322>
   852f4:	6821      	ldr	r1, [r4, #0]
   852f6:	2a1b      	cmp	r2, #27
   852f8:	f8ca 1008 	str.w	r1, [sl, #8]
   852fc:	6861      	ldr	r1, [r4, #4]
   852fe:	f8ca 100c 	str.w	r1, [sl, #12]
   85302:	f200 8088 	bhi.w	85416 <_realloc_r+0x336>
   85306:	f104 0108 	add.w	r1, r4, #8
   8530a:	f10a 0210 	add.w	r2, sl, #16
   8530e:	6808      	ldr	r0, [r1, #0]
   85310:	6010      	str	r0, [r2, #0]
   85312:	6848      	ldr	r0, [r1, #4]
   85314:	6050      	str	r0, [r2, #4]
   85316:	6889      	ldr	r1, [r1, #8]
   85318:	6091      	str	r1, [r2, #8]
   8531a:	ebab 0206 	sub.w	r2, fp, r6
   8531e:	eb0a 0106 	add.w	r1, sl, r6
   85322:	f042 0201 	orr.w	r2, r2, #1
   85326:	6099      	str	r1, [r3, #8]
   85328:	604a      	str	r2, [r1, #4]
   8532a:	f8da 3004 	ldr.w	r3, [sl, #4]
   8532e:	4640      	mov	r0, r8
   85330:	f003 0301 	and.w	r3, r3, #1
   85334:	431e      	orrs	r6, r3
   85336:	f8ca 6004 	str.w	r6, [sl, #4]
   8533a:	f7fc feff 	bl	8213c <__malloc_unlock>
   8533e:	e742      	b.n	851c6 <_realloc_r+0xe6>
   85340:	6823      	ldr	r3, [r4, #0]
   85342:	2a1b      	cmp	r2, #27
   85344:	6003      	str	r3, [r0, #0]
   85346:	6863      	ldr	r3, [r4, #4]
   85348:	6043      	str	r3, [r0, #4]
   8534a:	d827      	bhi.n	8539c <_realloc_r+0x2bc>
   8534c:	f100 0308 	add.w	r3, r0, #8
   85350:	f104 0208 	add.w	r2, r4, #8
   85354:	e70b      	b.n	8516e <_realloc_r+0x8e>
   85356:	4620      	mov	r0, r4
   85358:	462a      	mov	r2, r5
   8535a:	6801      	ldr	r1, [r0, #0]
   8535c:	461f      	mov	r7, r3
   8535e:	6011      	str	r1, [r2, #0]
   85360:	6841      	ldr	r1, [r0, #4]
   85362:	46d1      	mov	r9, sl
   85364:	6051      	str	r1, [r2, #4]
   85366:	6883      	ldr	r3, [r0, #8]
   85368:	6093      	str	r3, [r2, #8]
   8536a:	e719      	b.n	851a0 <_realloc_r+0xc0>
   8536c:	ebab 0b06 	sub.w	fp, fp, r6
   85370:	eb09 0106 	add.w	r1, r9, r6
   85374:	f04b 0201 	orr.w	r2, fp, #1
   85378:	6099      	str	r1, [r3, #8]
   8537a:	604a      	str	r2, [r1, #4]
   8537c:	f854 3c04 	ldr.w	r3, [r4, #-4]
   85380:	4640      	mov	r0, r8
   85382:	f003 0301 	and.w	r3, r3, #1
   85386:	431e      	orrs	r6, r3
   85388:	f844 6c04 	str.w	r6, [r4, #-4]
   8538c:	f7fc fed6 	bl	8213c <__malloc_unlock>
   85390:	4625      	mov	r5, r4
   85392:	e718      	b.n	851c6 <_realloc_r+0xe6>
   85394:	4621      	mov	r1, r4
   85396:	f7ff fb43 	bl	84a20 <memmove>
   8539a:	e6ee      	b.n	8517a <_realloc_r+0x9a>
   8539c:	68a3      	ldr	r3, [r4, #8]
   8539e:	2a24      	cmp	r2, #36	; 0x24
   853a0:	6083      	str	r3, [r0, #8]
   853a2:	68e3      	ldr	r3, [r4, #12]
   853a4:	60c3      	str	r3, [r0, #12]
   853a6:	d018      	beq.n	853da <_realloc_r+0x2fa>
   853a8:	f100 0310 	add.w	r3, r0, #16
   853ac:	f104 0210 	add.w	r2, r4, #16
   853b0:	e6dd      	b.n	8516e <_realloc_r+0x8e>
   853b2:	f850 3c04 	ldr.w	r3, [r0, #-4]
   853b6:	4625      	mov	r5, r4
   853b8:	f023 0303 	bic.w	r3, r3, #3
   853bc:	441f      	add	r7, r3
   853be:	e6ef      	b.n	851a0 <_realloc_r+0xc0>
   853c0:	68a1      	ldr	r1, [r4, #8]
   853c2:	2a24      	cmp	r2, #36	; 0x24
   853c4:	f8ca 1010 	str.w	r1, [sl, #16]
   853c8:	68e1      	ldr	r1, [r4, #12]
   853ca:	f8ca 1014 	str.w	r1, [sl, #20]
   853ce:	d00d      	beq.n	853ec <_realloc_r+0x30c>
   853d0:	f104 0010 	add.w	r0, r4, #16
   853d4:	f10a 0218 	add.w	r2, sl, #24
   853d8:	e7bf      	b.n	8535a <_realloc_r+0x27a>
   853da:	6922      	ldr	r2, [r4, #16]
   853dc:	f100 0318 	add.w	r3, r0, #24
   853e0:	6102      	str	r2, [r0, #16]
   853e2:	6961      	ldr	r1, [r4, #20]
   853e4:	f104 0218 	add.w	r2, r4, #24
   853e8:	6141      	str	r1, [r0, #20]
   853ea:	e6c0      	b.n	8516e <_realloc_r+0x8e>
   853ec:	6922      	ldr	r2, [r4, #16]
   853ee:	f104 0018 	add.w	r0, r4, #24
   853f2:	f8ca 2018 	str.w	r2, [sl, #24]
   853f6:	6961      	ldr	r1, [r4, #20]
   853f8:	f10a 0220 	add.w	r2, sl, #32
   853fc:	f8ca 101c 	str.w	r1, [sl, #28]
   85400:	e7ab      	b.n	8535a <_realloc_r+0x27a>
   85402:	4621      	mov	r1, r4
   85404:	462a      	mov	r2, r5
   85406:	e782      	b.n	8530e <_realloc_r+0x22e>
   85408:	4621      	mov	r1, r4
   8540a:	4628      	mov	r0, r5
   8540c:	9301      	str	r3, [sp, #4]
   8540e:	f7ff fb07 	bl	84a20 <memmove>
   85412:	9b01      	ldr	r3, [sp, #4]
   85414:	e781      	b.n	8531a <_realloc_r+0x23a>
   85416:	68a1      	ldr	r1, [r4, #8]
   85418:	2a24      	cmp	r2, #36	; 0x24
   8541a:	f8ca 1010 	str.w	r1, [sl, #16]
   8541e:	68e1      	ldr	r1, [r4, #12]
   85420:	f8ca 1014 	str.w	r1, [sl, #20]
   85424:	d006      	beq.n	85434 <_realloc_r+0x354>
   85426:	f104 0110 	add.w	r1, r4, #16
   8542a:	f10a 0218 	add.w	r2, sl, #24
   8542e:	e76e      	b.n	8530e <_realloc_r+0x22e>
   85430:	20070920 	.word	0x20070920
   85434:	6922      	ldr	r2, [r4, #16]
   85436:	f104 0118 	add.w	r1, r4, #24
   8543a:	f8ca 2018 	str.w	r2, [sl, #24]
   8543e:	6960      	ldr	r0, [r4, #20]
   85440:	f10a 0220 	add.w	r2, sl, #32
   85444:	f8ca 001c 	str.w	r0, [sl, #28]
   85448:	e761      	b.n	8530e <_realloc_r+0x22e>
   8544a:	bf00      	nop

0008544c <__ssprint_r>:
   8544c:	e92d 4ff0 	stmdb	sp!, {r4, r5, r6, r7, r8, r9, sl, fp, lr}
   85450:	6893      	ldr	r3, [r2, #8]
   85452:	b083      	sub	sp, #12
   85454:	4690      	mov	r8, r2
   85456:	2b00      	cmp	r3, #0
   85458:	d070      	beq.n	8553c <__ssprint_r+0xf0>
   8545a:	4682      	mov	sl, r0
   8545c:	460c      	mov	r4, r1
   8545e:	6817      	ldr	r7, [r2, #0]
   85460:	688d      	ldr	r5, [r1, #8]
   85462:	6808      	ldr	r0, [r1, #0]
   85464:	e042      	b.n	854ec <__ssprint_r+0xa0>
   85466:	89a3      	ldrh	r3, [r4, #12]
   85468:	f413 6f90 	tst.w	r3, #1152	; 0x480
   8546c:	d02e      	beq.n	854cc <__ssprint_r+0x80>
   8546e:	6965      	ldr	r5, [r4, #20]
   85470:	6921      	ldr	r1, [r4, #16]
   85472:	eb05 0545 	add.w	r5, r5, r5, lsl #1
   85476:	eba0 0b01 	sub.w	fp, r0, r1
   8547a:	eb05 75d5 	add.w	r5, r5, r5, lsr #31
   8547e:	f10b 0001 	add.w	r0, fp, #1
   85482:	106d      	asrs	r5, r5, #1
   85484:	4430      	add	r0, r6
   85486:	42a8      	cmp	r0, r5
   85488:	462a      	mov	r2, r5
   8548a:	bf84      	itt	hi
   8548c:	4605      	movhi	r5, r0
   8548e:	462a      	movhi	r2, r5
   85490:	055b      	lsls	r3, r3, #21
   85492:	d538      	bpl.n	85506 <__ssprint_r+0xba>
   85494:	4611      	mov	r1, r2
   85496:	4650      	mov	r0, sl
   85498:	f7fc fae4 	bl	81a64 <_malloc_r>
   8549c:	2800      	cmp	r0, #0
   8549e:	d03c      	beq.n	8551a <__ssprint_r+0xce>
   854a0:	465a      	mov	r2, fp
   854a2:	6921      	ldr	r1, [r4, #16]
   854a4:	9001      	str	r0, [sp, #4]
   854a6:	f7fc fd7f 	bl	81fa8 <memcpy>
   854aa:	89a2      	ldrh	r2, [r4, #12]
   854ac:	9b01      	ldr	r3, [sp, #4]
   854ae:	f422 6290 	bic.w	r2, r2, #1152	; 0x480
   854b2:	f042 0280 	orr.w	r2, r2, #128	; 0x80
   854b6:	81a2      	strh	r2, [r4, #12]
   854b8:	eba5 020b 	sub.w	r2, r5, fp
   854bc:	eb03 000b 	add.w	r0, r3, fp
   854c0:	6165      	str	r5, [r4, #20]
   854c2:	46b3      	mov	fp, r6
   854c4:	4635      	mov	r5, r6
   854c6:	6123      	str	r3, [r4, #16]
   854c8:	6020      	str	r0, [r4, #0]
   854ca:	60a2      	str	r2, [r4, #8]
   854cc:	465a      	mov	r2, fp
   854ce:	4649      	mov	r1, r9
   854d0:	f7ff faa6 	bl	84a20 <memmove>
   854d4:	f8d8 3008 	ldr.w	r3, [r8, #8]
   854d8:	68a2      	ldr	r2, [r4, #8]
   854da:	6820      	ldr	r0, [r4, #0]
   854dc:	1b55      	subs	r5, r2, r5
   854de:	4458      	add	r0, fp
   854e0:	1b9e      	subs	r6, r3, r6
   854e2:	60a5      	str	r5, [r4, #8]
   854e4:	6020      	str	r0, [r4, #0]
   854e6:	f8c8 6008 	str.w	r6, [r8, #8]
   854ea:	b33e      	cbz	r6, 8553c <__ssprint_r+0xf0>
   854ec:	687e      	ldr	r6, [r7, #4]
   854ee:	463b      	mov	r3, r7
   854f0:	3708      	adds	r7, #8
   854f2:	2e00      	cmp	r6, #0
   854f4:	d0fa      	beq.n	854ec <__ssprint_r+0xa0>
   854f6:	42ae      	cmp	r6, r5
   854f8:	f8d3 9000 	ldr.w	r9, [r3]
   854fc:	46ab      	mov	fp, r5
   854fe:	d2b2      	bcs.n	85466 <__ssprint_r+0x1a>
   85500:	4635      	mov	r5, r6
   85502:	46b3      	mov	fp, r6
   85504:	e7e2      	b.n	854cc <__ssprint_r+0x80>
   85506:	4650      	mov	r0, sl
   85508:	f7ff fdea 	bl	850e0 <_realloc_r>
   8550c:	4603      	mov	r3, r0
   8550e:	2800      	cmp	r0, #0
   85510:	d1d2      	bne.n	854b8 <__ssprint_r+0x6c>
   85512:	6921      	ldr	r1, [r4, #16]
   85514:	4650      	mov	r0, sl
   85516:	f7ff f92f 	bl	84778 <_free_r>
   8551a:	230c      	movs	r3, #12
   8551c:	2200      	movs	r2, #0
   8551e:	f04f 30ff 	mov.w	r0, #4294967295
   85522:	f8ca 3000 	str.w	r3, [sl]
   85526:	89a3      	ldrh	r3, [r4, #12]
   85528:	f043 0340 	orr.w	r3, r3, #64	; 0x40
   8552c:	81a3      	strh	r3, [r4, #12]
   8552e:	f8c8 2008 	str.w	r2, [r8, #8]
   85532:	f8c8 2004 	str.w	r2, [r8, #4]
   85536:	b003      	add	sp, #12
   85538:	e8bd 8ff0 	ldmia.w	sp!, {r4, r5, r6, r7, r8, r9, sl, fp, pc}
   8553c:	2000      	movs	r0, #0
   8553e:	f8c8 0004 	str.w	r0, [r8, #4]
   85542:	b003      	add	sp, #12
   85544:	e8bd 8ff0 	ldmia.w	sp!, {r4, r5, r6, r7, r8, r9, sl, fp, pc}

00085548 <__ascii_wctomb>:
   85548:	b119      	cbz	r1, 85552 <__ascii_wctomb+0xa>
   8554a:	2aff      	cmp	r2, #255	; 0xff
   8554c:	d803      	bhi.n	85556 <__ascii_wctomb+0xe>
   8554e:	700a      	strb	r2, [r1, #0]
   85550:	2101      	movs	r1, #1
   85552:	4608      	mov	r0, r1
   85554:	4770      	bx	lr
   85556:	238a      	movs	r3, #138	; 0x8a
   85558:	f04f 31ff 	mov.w	r1, #4294967295
   8555c:	6003      	str	r3, [r0, #0]
   8555e:	e7f8      	b.n	85552 <__ascii_wctomb+0xa>

00085560 <__register_exitproc>:
   85560:	e92d 43f8 	stmdb	sp!, {r3, r4, r5, r6, r7, r8, r9, lr}
   85564:	4d2c      	ldr	r5, [pc, #176]	; (85618 <__register_exitproc+0xb8>)
   85566:	4606      	mov	r6, r0
   85568:	6828      	ldr	r0, [r5, #0]
   8556a:	4698      	mov	r8, r3
   8556c:	460f      	mov	r7, r1
   8556e:	4691      	mov	r9, r2
   85570:	f7ff f9f6 	bl	84960 <__retarget_lock_acquire_recursive>
   85574:	4b29      	ldr	r3, [pc, #164]	; (8561c <__register_exitproc+0xbc>)
   85576:	681c      	ldr	r4, [r3, #0]
   85578:	f8d4 3148 	ldr.w	r3, [r4, #328]	; 0x148
   8557c:	2b00      	cmp	r3, #0
   8557e:	d03e      	beq.n	855fe <__register_exitproc+0x9e>
   85580:	685a      	ldr	r2, [r3, #4]
   85582:	2a1f      	cmp	r2, #31
   85584:	dc1c      	bgt.n	855c0 <__register_exitproc+0x60>
   85586:	f102 0e01 	add.w	lr, r2, #1
   8558a:	b176      	cbz	r6, 855aa <__register_exitproc+0x4a>
   8558c:	2101      	movs	r1, #1
   8558e:	eb03 0482 	add.w	r4, r3, r2, lsl #2
   85592:	f8c4 9088 	str.w	r9, [r4, #136]	; 0x88
   85596:	f8d3 0188 	ldr.w	r0, [r3, #392]	; 0x188
   8559a:	4091      	lsls	r1, r2
   8559c:	4308      	orrs	r0, r1
   8559e:	2e02      	cmp	r6, #2
   855a0:	f8c3 0188 	str.w	r0, [r3, #392]	; 0x188
   855a4:	f8c4 8108 	str.w	r8, [r4, #264]	; 0x108
   855a8:	d023      	beq.n	855f2 <__register_exitproc+0x92>
   855aa:	3202      	adds	r2, #2
   855ac:	f8c3 e004 	str.w	lr, [r3, #4]
   855b0:	6828      	ldr	r0, [r5, #0]
   855b2:	f843 7022 	str.w	r7, [r3, r2, lsl #2]
   855b6:	f7ff f9d5 	bl	84964 <__retarget_lock_release_recursive>
   855ba:	2000      	movs	r0, #0
   855bc:	e8bd 83f8 	ldmia.w	sp!, {r3, r4, r5, r6, r7, r8, r9, pc}
   855c0:	4b17      	ldr	r3, [pc, #92]	; (85620 <__register_exitproc+0xc0>)
   855c2:	b30b      	cbz	r3, 85608 <__register_exitproc+0xa8>
   855c4:	f44f 70c8 	mov.w	r0, #400	; 0x190
   855c8:	f7fc fa44 	bl	81a54 <malloc>
   855cc:	4603      	mov	r3, r0
   855ce:	b1d8      	cbz	r0, 85608 <__register_exitproc+0xa8>
   855d0:	2000      	movs	r0, #0
   855d2:	f8d4 1148 	ldr.w	r1, [r4, #328]	; 0x148
   855d6:	f04f 0e01 	mov.w	lr, #1
   855da:	6058      	str	r0, [r3, #4]
   855dc:	6019      	str	r1, [r3, #0]
   855de:	4602      	mov	r2, r0
   855e0:	f8c4 3148 	str.w	r3, [r4, #328]	; 0x148
   855e4:	f8c3 0188 	str.w	r0, [r3, #392]	; 0x188
   855e8:	f8c3 018c 	str.w	r0, [r3, #396]	; 0x18c
   855ec:	2e00      	cmp	r6, #0
   855ee:	d0dc      	beq.n	855aa <__register_exitproc+0x4a>
   855f0:	e7cc      	b.n	8558c <__register_exitproc+0x2c>
   855f2:	f8d3 018c 	ldr.w	r0, [r3, #396]	; 0x18c
   855f6:	4301      	orrs	r1, r0
   855f8:	f8c3 118c 	str.w	r1, [r3, #396]	; 0x18c
   855fc:	e7d5      	b.n	855aa <__register_exitproc+0x4a>
   855fe:	f504 73a6 	add.w	r3, r4, #332	; 0x14c
   85602:	f8c4 3148 	str.w	r3, [r4, #328]	; 0x148
   85606:	e7bb      	b.n	85580 <__register_exitproc+0x20>
   85608:	6828      	ldr	r0, [r5, #0]
   8560a:	f7ff f9ab 	bl	84964 <__retarget_lock_release_recursive>
   8560e:	f04f 30ff 	mov.w	r0, #4294967295
   85612:	e8bd 83f8 	ldmia.w	sp!, {r3, r4, r5, r6, r7, r8, r9, pc}
   85616:	bf00      	nop
   85618:	20070d30 	.word	0x20070d30
   8561c:	00086374 	.word	0x00086374
   85620:	00081a55 	.word	0x00081a55

00085624 <_calloc_r>:
   85624:	b510      	push	{r4, lr}
   85626:	fb02 f101 	mul.w	r1, r2, r1
   8562a:	f7fc fa1b 	bl	81a64 <_malloc_r>
   8562e:	4604      	mov	r4, r0
   85630:	b1d8      	cbz	r0, 8566a <_calloc_r+0x46>
   85632:	f850 2c04 	ldr.w	r2, [r0, #-4]
   85636:	f022 0203 	bic.w	r2, r2, #3
   8563a:	3a04      	subs	r2, #4
   8563c:	2a24      	cmp	r2, #36	; 0x24
   8563e:	d818      	bhi.n	85672 <_calloc_r+0x4e>
   85640:	2a13      	cmp	r2, #19
   85642:	d914      	bls.n	8566e <_calloc_r+0x4a>
   85644:	2300      	movs	r3, #0
   85646:	2a1b      	cmp	r2, #27
   85648:	6003      	str	r3, [r0, #0]
   8564a:	6043      	str	r3, [r0, #4]
   8564c:	d916      	bls.n	8567c <_calloc_r+0x58>
   8564e:	2a24      	cmp	r2, #36	; 0x24
   85650:	6083      	str	r3, [r0, #8]
   85652:	60c3      	str	r3, [r0, #12]
   85654:	bf11      	iteee	ne
   85656:	f100 0210 	addne.w	r2, r0, #16
   8565a:	6103      	streq	r3, [r0, #16]
   8565c:	6143      	streq	r3, [r0, #20]
   8565e:	f100 0218 	addeq.w	r2, r0, #24
   85662:	2300      	movs	r3, #0
   85664:	6013      	str	r3, [r2, #0]
   85666:	6053      	str	r3, [r2, #4]
   85668:	6093      	str	r3, [r2, #8]
   8566a:	4620      	mov	r0, r4
   8566c:	bd10      	pop	{r4, pc}
   8566e:	4602      	mov	r2, r0
   85670:	e7f7      	b.n	85662 <_calloc_r+0x3e>
   85672:	2100      	movs	r1, #0
   85674:	f7fc fd0e 	bl	82094 <memset>
   85678:	4620      	mov	r0, r4
   8567a:	bd10      	pop	{r4, pc}
   8567c:	f100 0208 	add.w	r2, r0, #8
   85680:	e7ef      	b.n	85662 <_calloc_r+0x3e>
   85682:	bf00      	nop

00085684 <__aeabi_drsub>:
   85684:	f081 4100 	eor.w	r1, r1, #2147483648	; 0x80000000
   85688:	e002      	b.n	85690 <__adddf3>
   8568a:	bf00      	nop

0008568c <__aeabi_dsub>:
   8568c:	f083 4300 	eor.w	r3, r3, #2147483648	; 0x80000000

00085690 <__adddf3>:
   85690:	b530      	push	{r4, r5, lr}
   85692:	ea4f 0441 	mov.w	r4, r1, lsl #1
   85696:	ea4f 0543 	mov.w	r5, r3, lsl #1
   8569a:	ea94 0f05 	teq	r4, r5
   8569e:	bf08      	it	eq
   856a0:	ea90 0f02 	teqeq	r0, r2
   856a4:	bf1f      	itttt	ne
   856a6:	ea54 0c00 	orrsne.w	ip, r4, r0
   856aa:	ea55 0c02 	orrsne.w	ip, r5, r2
   856ae:	ea7f 5c64 	mvnsne.w	ip, r4, asr #21
   856b2:	ea7f 5c65 	mvnsne.w	ip, r5, asr #21
   856b6:	f000 80e2 	beq.w	8587e <__adddf3+0x1ee>
   856ba:	ea4f 5454 	mov.w	r4, r4, lsr #21
   856be:	ebd4 5555 	rsbs	r5, r4, r5, lsr #21
   856c2:	bfb8      	it	lt
   856c4:	426d      	neglt	r5, r5
   856c6:	dd0c      	ble.n	856e2 <__adddf3+0x52>
   856c8:	442c      	add	r4, r5
   856ca:	ea80 0202 	eor.w	r2, r0, r2
   856ce:	ea81 0303 	eor.w	r3, r1, r3
   856d2:	ea82 0000 	eor.w	r0, r2, r0
   856d6:	ea83 0101 	eor.w	r1, r3, r1
   856da:	ea80 0202 	eor.w	r2, r0, r2
   856de:	ea81 0303 	eor.w	r3, r1, r3
   856e2:	2d36      	cmp	r5, #54	; 0x36
   856e4:	bf88      	it	hi
   856e6:	bd30      	pophi	{r4, r5, pc}
   856e8:	f011 4f00 	tst.w	r1, #2147483648	; 0x80000000
   856ec:	ea4f 3101 	mov.w	r1, r1, lsl #12
   856f0:	f44f 1c80 	mov.w	ip, #1048576	; 0x100000
   856f4:	ea4c 3111 	orr.w	r1, ip, r1, lsr #12
   856f8:	d002      	beq.n	85700 <__adddf3+0x70>
   856fa:	4240      	negs	r0, r0
   856fc:	eb61 0141 	sbc.w	r1, r1, r1, lsl #1
   85700:	f013 4f00 	tst.w	r3, #2147483648	; 0x80000000
   85704:	ea4f 3303 	mov.w	r3, r3, lsl #12
   85708:	ea4c 3313 	orr.w	r3, ip, r3, lsr #12
   8570c:	d002      	beq.n	85714 <__adddf3+0x84>
   8570e:	4252      	negs	r2, r2
   85710:	eb63 0343 	sbc.w	r3, r3, r3, lsl #1
   85714:	ea94 0f05 	teq	r4, r5
   85718:	f000 80a7 	beq.w	8586a <__adddf3+0x1da>
   8571c:	f1a4 0401 	sub.w	r4, r4, #1
   85720:	f1d5 0e20 	rsbs	lr, r5, #32
   85724:	db0d      	blt.n	85742 <__adddf3+0xb2>
   85726:	fa02 fc0e 	lsl.w	ip, r2, lr
   8572a:	fa22 f205 	lsr.w	r2, r2, r5
   8572e:	1880      	adds	r0, r0, r2
   85730:	f141 0100 	adc.w	r1, r1, #0
   85734:	fa03 f20e 	lsl.w	r2, r3, lr
   85738:	1880      	adds	r0, r0, r2
   8573a:	fa43 f305 	asr.w	r3, r3, r5
   8573e:	4159      	adcs	r1, r3
   85740:	e00e      	b.n	85760 <__adddf3+0xd0>
   85742:	f1a5 0520 	sub.w	r5, r5, #32
   85746:	f10e 0e20 	add.w	lr, lr, #32
   8574a:	2a01      	cmp	r2, #1
   8574c:	fa03 fc0e 	lsl.w	ip, r3, lr
   85750:	bf28      	it	cs
   85752:	f04c 0c02 	orrcs.w	ip, ip, #2
   85756:	fa43 f305 	asr.w	r3, r3, r5
   8575a:	18c0      	adds	r0, r0, r3
   8575c:	eb51 71e3 	adcs.w	r1, r1, r3, asr #31
   85760:	f001 4500 	and.w	r5, r1, #2147483648	; 0x80000000
   85764:	d507      	bpl.n	85776 <__adddf3+0xe6>
   85766:	f04f 0e00 	mov.w	lr, #0
   8576a:	f1dc 0c00 	rsbs	ip, ip, #0
   8576e:	eb7e 0000 	sbcs.w	r0, lr, r0
   85772:	eb6e 0101 	sbc.w	r1, lr, r1
   85776:	f5b1 1f80 	cmp.w	r1, #1048576	; 0x100000
   8577a:	d31b      	bcc.n	857b4 <__adddf3+0x124>
   8577c:	f5b1 1f00 	cmp.w	r1, #2097152	; 0x200000
   85780:	d30c      	bcc.n	8579c <__adddf3+0x10c>
   85782:	0849      	lsrs	r1, r1, #1
   85784:	ea5f 0030 	movs.w	r0, r0, rrx
   85788:	ea4f 0c3c 	mov.w	ip, ip, rrx
   8578c:	f104 0401 	add.w	r4, r4, #1
   85790:	ea4f 5244 	mov.w	r2, r4, lsl #21
   85794:	f512 0f80 	cmn.w	r2, #4194304	; 0x400000
   85798:	f080 809a 	bcs.w	858d0 <__adddf3+0x240>
   8579c:	f1bc 4f00 	cmp.w	ip, #2147483648	; 0x80000000
   857a0:	bf08      	it	eq
   857a2:	ea5f 0c50 	movseq.w	ip, r0, lsr #1
   857a6:	f150 0000 	adcs.w	r0, r0, #0
   857aa:	eb41 5104 	adc.w	r1, r1, r4, lsl #20
   857ae:	ea41 0105 	orr.w	r1, r1, r5
   857b2:	bd30      	pop	{r4, r5, pc}
   857b4:	ea5f 0c4c 	movs.w	ip, ip, lsl #1
   857b8:	4140      	adcs	r0, r0
   857ba:	eb41 0101 	adc.w	r1, r1, r1
   857be:	f411 1f80 	tst.w	r1, #1048576	; 0x100000
   857c2:	f1a4 0401 	sub.w	r4, r4, #1
   857c6:	d1e9      	bne.n	8579c <__adddf3+0x10c>
   857c8:	f091 0f00 	teq	r1, #0
   857cc:	bf04      	itt	eq
   857ce:	4601      	moveq	r1, r0
   857d0:	2000      	moveq	r0, #0
   857d2:	fab1 f381 	clz	r3, r1
   857d6:	bf08      	it	eq
   857d8:	3320      	addeq	r3, #32
   857da:	f1a3 030b 	sub.w	r3, r3, #11
   857de:	f1b3 0220 	subs.w	r2, r3, #32
   857e2:	da0c      	bge.n	857fe <__adddf3+0x16e>
   857e4:	320c      	adds	r2, #12
   857e6:	dd08      	ble.n	857fa <__adddf3+0x16a>
   857e8:	f102 0c14 	add.w	ip, r2, #20
   857ec:	f1c2 020c 	rsb	r2, r2, #12
   857f0:	fa01 f00c 	lsl.w	r0, r1, ip
   857f4:	fa21 f102 	lsr.w	r1, r1, r2
   857f8:	e00c      	b.n	85814 <__adddf3+0x184>
   857fa:	f102 0214 	add.w	r2, r2, #20
   857fe:	bfd8      	it	le
   85800:	f1c2 0c20 	rsble	ip, r2, #32
   85804:	fa01 f102 	lsl.w	r1, r1, r2
   85808:	fa20 fc0c 	lsr.w	ip, r0, ip
   8580c:	bfdc      	itt	le
   8580e:	ea41 010c 	orrle.w	r1, r1, ip
   85812:	4090      	lslle	r0, r2
   85814:	1ae4      	subs	r4, r4, r3
   85816:	bfa2      	ittt	ge
   85818:	eb01 5104 	addge.w	r1, r1, r4, lsl #20
   8581c:	4329      	orrge	r1, r5
   8581e:	bd30      	popge	{r4, r5, pc}
   85820:	ea6f 0404 	mvn.w	r4, r4
   85824:	3c1f      	subs	r4, #31
   85826:	da1c      	bge.n	85862 <__adddf3+0x1d2>
   85828:	340c      	adds	r4, #12
   8582a:	dc0e      	bgt.n	8584a <__adddf3+0x1ba>
   8582c:	f104 0414 	add.w	r4, r4, #20
   85830:	f1c4 0220 	rsb	r2, r4, #32
   85834:	fa20 f004 	lsr.w	r0, r0, r4
   85838:	fa01 f302 	lsl.w	r3, r1, r2
   8583c:	ea40 0003 	orr.w	r0, r0, r3
   85840:	fa21 f304 	lsr.w	r3, r1, r4
   85844:	ea45 0103 	orr.w	r1, r5, r3
   85848:	bd30      	pop	{r4, r5, pc}
   8584a:	f1c4 040c 	rsb	r4, r4, #12
   8584e:	f1c4 0220 	rsb	r2, r4, #32
   85852:	fa20 f002 	lsr.w	r0, r0, r2
   85856:	fa01 f304 	lsl.w	r3, r1, r4
   8585a:	ea40 0003 	orr.w	r0, r0, r3
   8585e:	4629      	mov	r1, r5
   85860:	bd30      	pop	{r4, r5, pc}
   85862:	fa21 f004 	lsr.w	r0, r1, r4
   85866:	4629      	mov	r1, r5
   85868:	bd30      	pop	{r4, r5, pc}
   8586a:	f094 0f00 	teq	r4, #0
   8586e:	f483 1380 	eor.w	r3, r3, #1048576	; 0x100000
   85872:	bf06      	itte	eq
   85874:	f481 1180 	eoreq.w	r1, r1, #1048576	; 0x100000
   85878:	3401      	addeq	r4, #1
   8587a:	3d01      	subne	r5, #1
   8587c:	e74e      	b.n	8571c <__adddf3+0x8c>
   8587e:	ea7f 5c64 	mvns.w	ip, r4, asr #21
   85882:	bf18      	it	ne
   85884:	ea7f 5c65 	mvnsne.w	ip, r5, asr #21
   85888:	d029      	beq.n	858de <__adddf3+0x24e>
   8588a:	ea94 0f05 	teq	r4, r5
   8588e:	bf08      	it	eq
   85890:	ea90 0f02 	teqeq	r0, r2
   85894:	d005      	beq.n	858a2 <__adddf3+0x212>
   85896:	ea54 0c00 	orrs.w	ip, r4, r0
   8589a:	bf04      	itt	eq
   8589c:	4619      	moveq	r1, r3
   8589e:	4610      	moveq	r0, r2
   858a0:	bd30      	pop	{r4, r5, pc}
   858a2:	ea91 0f03 	teq	r1, r3
   858a6:	bf1e      	ittt	ne
   858a8:	2100      	movne	r1, #0
   858aa:	2000      	movne	r0, #0
   858ac:	bd30      	popne	{r4, r5, pc}
   858ae:	ea5f 5c54 	movs.w	ip, r4, lsr #21
   858b2:	d105      	bne.n	858c0 <__adddf3+0x230>
   858b4:	0040      	lsls	r0, r0, #1
   858b6:	4149      	adcs	r1, r1
   858b8:	bf28      	it	cs
   858ba:	f041 4100 	orrcs.w	r1, r1, #2147483648	; 0x80000000
   858be:	bd30      	pop	{r4, r5, pc}
   858c0:	f514 0480 	adds.w	r4, r4, #4194304	; 0x400000
   858c4:	bf3c      	itt	cc
   858c6:	f501 1180 	addcc.w	r1, r1, #1048576	; 0x100000
   858ca:	bd30      	popcc	{r4, r5, pc}
   858cc:	f001 4500 	and.w	r5, r1, #2147483648	; 0x80000000
   858d0:	f045 41fe 	orr.w	r1, r5, #2130706432	; 0x7f000000
   858d4:	f441 0170 	orr.w	r1, r1, #15728640	; 0xf00000
   858d8:	f04f 0000 	mov.w	r0, #0
   858dc:	bd30      	pop	{r4, r5, pc}
   858de:	ea7f 5c64 	mvns.w	ip, r4, asr #21
   858e2:	bf1a      	itte	ne
   858e4:	4619      	movne	r1, r3
   858e6:	4610      	movne	r0, r2
   858e8:	ea7f 5c65 	mvnseq.w	ip, r5, asr #21
   858ec:	bf1c      	itt	ne
   858ee:	460b      	movne	r3, r1
   858f0:	4602      	movne	r2, r0
   858f2:	ea50 3401 	orrs.w	r4, r0, r1, lsl #12
   858f6:	bf06      	itte	eq
   858f8:	ea52 3503 	orrseq.w	r5, r2, r3, lsl #12
   858fc:	ea91 0f03 	teqeq	r1, r3
   85900:	f441 2100 	orrne.w	r1, r1, #524288	; 0x80000
   85904:	bd30      	pop	{r4, r5, pc}
   85906:	bf00      	nop

00085908 <__aeabi_ui2d>:
   85908:	f090 0f00 	teq	r0, #0
   8590c:	bf04      	itt	eq
   8590e:	2100      	moveq	r1, #0
   85910:	4770      	bxeq	lr
   85912:	b530      	push	{r4, r5, lr}
   85914:	f44f 6480 	mov.w	r4, #1024	; 0x400
   85918:	f104 0432 	add.w	r4, r4, #50	; 0x32
   8591c:	f04f 0500 	mov.w	r5, #0
   85920:	f04f 0100 	mov.w	r1, #0
   85924:	e750      	b.n	857c8 <__adddf3+0x138>
   85926:	bf00      	nop

00085928 <__aeabi_i2d>:
   85928:	f090 0f00 	teq	r0, #0
   8592c:	bf04      	itt	eq
   8592e:	2100      	moveq	r1, #0
   85930:	4770      	bxeq	lr
   85932:	b530      	push	{r4, r5, lr}
   85934:	f44f 6480 	mov.w	r4, #1024	; 0x400
   85938:	f104 0432 	add.w	r4, r4, #50	; 0x32
   8593c:	f010 4500 	ands.w	r5, r0, #2147483648	; 0x80000000
   85940:	bf48      	it	mi
   85942:	4240      	negmi	r0, r0
   85944:	f04f 0100 	mov.w	r1, #0
   85948:	e73e      	b.n	857c8 <__adddf3+0x138>
   8594a:	bf00      	nop

0008594c <__aeabi_f2d>:
   8594c:	0042      	lsls	r2, r0, #1
   8594e:	ea4f 01e2 	mov.w	r1, r2, asr #3
   85952:	ea4f 0131 	mov.w	r1, r1, rrx
   85956:	ea4f 7002 	mov.w	r0, r2, lsl #28
   8595a:	bf1f      	itttt	ne
   8595c:	f012 437f 	andsne.w	r3, r2, #4278190080	; 0xff000000
   85960:	f093 4f7f 	teqne	r3, #4278190080	; 0xff000000
   85964:	f081 5160 	eorne.w	r1, r1, #939524096	; 0x38000000
   85968:	4770      	bxne	lr
   8596a:	f092 0f00 	teq	r2, #0
   8596e:	bf14      	ite	ne
   85970:	f093 4f7f 	teqne	r3, #4278190080	; 0xff000000
   85974:	4770      	bxeq	lr
   85976:	b530      	push	{r4, r5, lr}
   85978:	f44f 7460 	mov.w	r4, #896	; 0x380
   8597c:	f001 4500 	and.w	r5, r1, #2147483648	; 0x80000000
   85980:	f021 4100 	bic.w	r1, r1, #2147483648	; 0x80000000
   85984:	e720      	b.n	857c8 <__adddf3+0x138>
   85986:	bf00      	nop

00085988 <__aeabi_ul2d>:
   85988:	ea50 0201 	orrs.w	r2, r0, r1
   8598c:	bf08      	it	eq
   8598e:	4770      	bxeq	lr
   85990:	b530      	push	{r4, r5, lr}
   85992:	f04f 0500 	mov.w	r5, #0
   85996:	e00a      	b.n	859ae <__aeabi_l2d+0x16>

00085998 <__aeabi_l2d>:
   85998:	ea50 0201 	orrs.w	r2, r0, r1
   8599c:	bf08      	it	eq
   8599e:	4770      	bxeq	lr
   859a0:	b530      	push	{r4, r5, lr}
   859a2:	f011 4500 	ands.w	r5, r1, #2147483648	; 0x80000000
   859a6:	d502      	bpl.n	859ae <__aeabi_l2d+0x16>
   859a8:	4240      	negs	r0, r0
   859aa:	eb61 0141 	sbc.w	r1, r1, r1, lsl #1
   859ae:	f44f 6480 	mov.w	r4, #1024	; 0x400
   859b2:	f104 0432 	add.w	r4, r4, #50	; 0x32
   859b6:	ea5f 5c91 	movs.w	ip, r1, lsr #22
   859ba:	f43f aedc 	beq.w	85776 <__adddf3+0xe6>
   859be:	f04f 0203 	mov.w	r2, #3
   859c2:	ea5f 0cdc 	movs.w	ip, ip, lsr #3
   859c6:	bf18      	it	ne
   859c8:	3203      	addne	r2, #3
   859ca:	ea5f 0cdc 	movs.w	ip, ip, lsr #3
   859ce:	bf18      	it	ne
   859d0:	3203      	addne	r2, #3
   859d2:	eb02 02dc 	add.w	r2, r2, ip, lsr #3
   859d6:	f1c2 0320 	rsb	r3, r2, #32
   859da:	fa00 fc03 	lsl.w	ip, r0, r3
   859de:	fa20 f002 	lsr.w	r0, r0, r2
   859e2:	fa01 fe03 	lsl.w	lr, r1, r3
   859e6:	ea40 000e 	orr.w	r0, r0, lr
   859ea:	fa21 f102 	lsr.w	r1, r1, r2
   859ee:	4414      	add	r4, r2
   859f0:	e6c1      	b.n	85776 <__adddf3+0xe6>
   859f2:	bf00      	nop

000859f4 <__aeabi_dmul>:
   859f4:	b570      	push	{r4, r5, r6, lr}
   859f6:	f04f 0cff 	mov.w	ip, #255	; 0xff
   859fa:	f44c 6ce0 	orr.w	ip, ip, #1792	; 0x700
   859fe:	ea1c 5411 	ands.w	r4, ip, r1, lsr #20
   85a02:	bf1d      	ittte	ne
   85a04:	ea1c 5513 	andsne.w	r5, ip, r3, lsr #20
   85a08:	ea94 0f0c 	teqne	r4, ip
   85a0c:	ea95 0f0c 	teqne	r5, ip
   85a10:	f000 f8de 	bleq	85bd0 <__aeabi_dmul+0x1dc>
   85a14:	442c      	add	r4, r5
   85a16:	ea81 0603 	eor.w	r6, r1, r3
   85a1a:	ea21 514c 	bic.w	r1, r1, ip, lsl #21
   85a1e:	ea23 534c 	bic.w	r3, r3, ip, lsl #21
   85a22:	ea50 3501 	orrs.w	r5, r0, r1, lsl #12
   85a26:	bf18      	it	ne
   85a28:	ea52 3503 	orrsne.w	r5, r2, r3, lsl #12
   85a2c:	f441 1180 	orr.w	r1, r1, #1048576	; 0x100000
   85a30:	f443 1380 	orr.w	r3, r3, #1048576	; 0x100000
   85a34:	d038      	beq.n	85aa8 <__aeabi_dmul+0xb4>
   85a36:	fba0 ce02 	umull	ip, lr, r0, r2
   85a3a:	f04f 0500 	mov.w	r5, #0
   85a3e:	fbe1 e502 	umlal	lr, r5, r1, r2
   85a42:	f006 4200 	and.w	r2, r6, #2147483648	; 0x80000000
   85a46:	fbe0 e503 	umlal	lr, r5, r0, r3
   85a4a:	f04f 0600 	mov.w	r6, #0
   85a4e:	fbe1 5603 	umlal	r5, r6, r1, r3
   85a52:	f09c 0f00 	teq	ip, #0
   85a56:	bf18      	it	ne
   85a58:	f04e 0e01 	orrne.w	lr, lr, #1
   85a5c:	f1a4 04ff 	sub.w	r4, r4, #255	; 0xff
   85a60:	f5b6 7f00 	cmp.w	r6, #512	; 0x200
   85a64:	f564 7440 	sbc.w	r4, r4, #768	; 0x300
   85a68:	d204      	bcs.n	85a74 <__aeabi_dmul+0x80>
   85a6a:	ea5f 0e4e 	movs.w	lr, lr, lsl #1
   85a6e:	416d      	adcs	r5, r5
   85a70:	eb46 0606 	adc.w	r6, r6, r6
   85a74:	ea42 21c6 	orr.w	r1, r2, r6, lsl #11
   85a78:	ea41 5155 	orr.w	r1, r1, r5, lsr #21
   85a7c:	ea4f 20c5 	mov.w	r0, r5, lsl #11
   85a80:	ea40 505e 	orr.w	r0, r0, lr, lsr #21
   85a84:	ea4f 2ece 	mov.w	lr, lr, lsl #11
   85a88:	f1b4 0cfd 	subs.w	ip, r4, #253	; 0xfd
   85a8c:	bf88      	it	hi
   85a8e:	f5bc 6fe0 	cmphi.w	ip, #1792	; 0x700
   85a92:	d81e      	bhi.n	85ad2 <__aeabi_dmul+0xde>
   85a94:	f1be 4f00 	cmp.w	lr, #2147483648	; 0x80000000
   85a98:	bf08      	it	eq
   85a9a:	ea5f 0e50 	movseq.w	lr, r0, lsr #1
   85a9e:	f150 0000 	adcs.w	r0, r0, #0
   85aa2:	eb41 5104 	adc.w	r1, r1, r4, lsl #20
   85aa6:	bd70      	pop	{r4, r5, r6, pc}
   85aa8:	f006 4600 	and.w	r6, r6, #2147483648	; 0x80000000
   85aac:	ea46 0101 	orr.w	r1, r6, r1
   85ab0:	ea40 0002 	orr.w	r0, r0, r2
   85ab4:	ea81 0103 	eor.w	r1, r1, r3
   85ab8:	ebb4 045c 	subs.w	r4, r4, ip, lsr #1
   85abc:	bfc2      	ittt	gt
   85abe:	ebd4 050c 	rsbsgt	r5, r4, ip
   85ac2:	ea41 5104 	orrgt.w	r1, r1, r4, lsl #20
   85ac6:	bd70      	popgt	{r4, r5, r6, pc}
   85ac8:	f441 1180 	orr.w	r1, r1, #1048576	; 0x100000
   85acc:	f04f 0e00 	mov.w	lr, #0
   85ad0:	3c01      	subs	r4, #1
   85ad2:	f300 80ab 	bgt.w	85c2c <__aeabi_dmul+0x238>
   85ad6:	f114 0f36 	cmn.w	r4, #54	; 0x36
   85ada:	bfde      	ittt	le
   85adc:	2000      	movle	r0, #0
   85ade:	f001 4100 	andle.w	r1, r1, #2147483648	; 0x80000000
   85ae2:	bd70      	pople	{r4, r5, r6, pc}
   85ae4:	f1c4 0400 	rsb	r4, r4, #0
   85ae8:	3c20      	subs	r4, #32
   85aea:	da35      	bge.n	85b58 <__aeabi_dmul+0x164>
   85aec:	340c      	adds	r4, #12
   85aee:	dc1b      	bgt.n	85b28 <__aeabi_dmul+0x134>
   85af0:	f104 0414 	add.w	r4, r4, #20
   85af4:	f1c4 0520 	rsb	r5, r4, #32
   85af8:	fa00 f305 	lsl.w	r3, r0, r5
   85afc:	fa20 f004 	lsr.w	r0, r0, r4
   85b00:	fa01 f205 	lsl.w	r2, r1, r5
   85b04:	ea40 0002 	orr.w	r0, r0, r2
   85b08:	f001 4200 	and.w	r2, r1, #2147483648	; 0x80000000
   85b0c:	f021 4100 	bic.w	r1, r1, #2147483648	; 0x80000000
   85b10:	eb10 70d3 	adds.w	r0, r0, r3, lsr #31
   85b14:	fa21 f604 	lsr.w	r6, r1, r4
   85b18:	eb42 0106 	adc.w	r1, r2, r6
   85b1c:	ea5e 0e43 	orrs.w	lr, lr, r3, lsl #1
   85b20:	bf08      	it	eq
   85b22:	ea20 70d3 	biceq.w	r0, r0, r3, lsr #31
   85b26:	bd70      	pop	{r4, r5, r6, pc}
   85b28:	f1c4 040c 	rsb	r4, r4, #12
   85b2c:	f1c4 0520 	rsb	r5, r4, #32
   85b30:	fa00 f304 	lsl.w	r3, r0, r4
   85b34:	fa20 f005 	lsr.w	r0, r0, r5
   85b38:	fa01 f204 	lsl.w	r2, r1, r4
   85b3c:	ea40 0002 	orr.w	r0, r0, r2
   85b40:	f001 4100 	and.w	r1, r1, #2147483648	; 0x80000000
   85b44:	eb10 70d3 	adds.w	r0, r0, r3, lsr #31
   85b48:	f141 0100 	adc.w	r1, r1, #0
   85b4c:	ea5e 0e43 	orrs.w	lr, lr, r3, lsl #1
   85b50:	bf08      	it	eq
   85b52:	ea20 70d3 	biceq.w	r0, r0, r3, lsr #31
   85b56:	bd70      	pop	{r4, r5, r6, pc}
   85b58:	f1c4 0520 	rsb	r5, r4, #32
   85b5c:	fa00 f205 	lsl.w	r2, r0, r5
   85b60:	ea4e 0e02 	orr.w	lr, lr, r2
   85b64:	fa20 f304 	lsr.w	r3, r0, r4
   85b68:	fa01 f205 	lsl.w	r2, r1, r5
   85b6c:	ea43 0302 	orr.w	r3, r3, r2
   85b70:	fa21 f004 	lsr.w	r0, r1, r4
   85b74:	f001 4100 	and.w	r1, r1, #2147483648	; 0x80000000
   85b78:	fa21 f204 	lsr.w	r2, r1, r4
   85b7c:	ea20 0002 	bic.w	r0, r0, r2
   85b80:	eb00 70d3 	add.w	r0, r0, r3, lsr #31
   85b84:	ea5e 0e43 	orrs.w	lr, lr, r3, lsl #1
   85b88:	bf08      	it	eq
   85b8a:	ea20 70d3 	biceq.w	r0, r0, r3, lsr #31
   85b8e:	bd70      	pop	{r4, r5, r6, pc}
   85b90:	f094 0f00 	teq	r4, #0
   85b94:	d10f      	bne.n	85bb6 <__aeabi_dmul+0x1c2>
   85b96:	f001 4600 	and.w	r6, r1, #2147483648	; 0x80000000
   85b9a:	0040      	lsls	r0, r0, #1
   85b9c:	eb41 0101 	adc.w	r1, r1, r1
   85ba0:	f411 1f80 	tst.w	r1, #1048576	; 0x100000
   85ba4:	bf08      	it	eq
   85ba6:	3c01      	subeq	r4, #1
   85ba8:	d0f7      	beq.n	85b9a <__aeabi_dmul+0x1a6>
   85baa:	ea41 0106 	orr.w	r1, r1, r6
   85bae:	f095 0f00 	teq	r5, #0
   85bb2:	bf18      	it	ne
   85bb4:	4770      	bxne	lr
   85bb6:	f003 4600 	and.w	r6, r3, #2147483648	; 0x80000000
   85bba:	0052      	lsls	r2, r2, #1
   85bbc:	eb43 0303 	adc.w	r3, r3, r3
   85bc0:	f413 1f80 	tst.w	r3, #1048576	; 0x100000
   85bc4:	bf08      	it	eq
   85bc6:	3d01      	subeq	r5, #1
   85bc8:	d0f7      	beq.n	85bba <__aeabi_dmul+0x1c6>
   85bca:	ea43 0306 	orr.w	r3, r3, r6
   85bce:	4770      	bx	lr
   85bd0:	ea94 0f0c 	teq	r4, ip
   85bd4:	ea0c 5513 	and.w	r5, ip, r3, lsr #20
   85bd8:	bf18      	it	ne
   85bda:	ea95 0f0c 	teqne	r5, ip
   85bde:	d00c      	beq.n	85bfa <__aeabi_dmul+0x206>
   85be0:	ea50 0641 	orrs.w	r6, r0, r1, lsl #1
   85be4:	bf18      	it	ne
   85be6:	ea52 0643 	orrsne.w	r6, r2, r3, lsl #1
   85bea:	d1d1      	bne.n	85b90 <__aeabi_dmul+0x19c>
   85bec:	ea81 0103 	eor.w	r1, r1, r3
   85bf0:	f001 4100 	and.w	r1, r1, #2147483648	; 0x80000000
   85bf4:	f04f 0000 	mov.w	r0, #0
   85bf8:	bd70      	pop	{r4, r5, r6, pc}
   85bfa:	ea50 0641 	orrs.w	r6, r0, r1, lsl #1
   85bfe:	bf06      	itte	eq
   85c00:	4610      	moveq	r0, r2
   85c02:	4619      	moveq	r1, r3
   85c04:	ea52 0643 	orrsne.w	r6, r2, r3, lsl #1
   85c08:	d019      	beq.n	85c3e <__aeabi_dmul+0x24a>
   85c0a:	ea94 0f0c 	teq	r4, ip
   85c0e:	d102      	bne.n	85c16 <__aeabi_dmul+0x222>
   85c10:	ea50 3601 	orrs.w	r6, r0, r1, lsl #12
   85c14:	d113      	bne.n	85c3e <__aeabi_dmul+0x24a>
   85c16:	ea95 0f0c 	teq	r5, ip
   85c1a:	d105      	bne.n	85c28 <__aeabi_dmul+0x234>
   85c1c:	ea52 3603 	orrs.w	r6, r2, r3, lsl #12
   85c20:	bf1c      	itt	ne
   85c22:	4610      	movne	r0, r2
   85c24:	4619      	movne	r1, r3
   85c26:	d10a      	bne.n	85c3e <__aeabi_dmul+0x24a>
   85c28:	ea81 0103 	eor.w	r1, r1, r3
   85c2c:	f001 4100 	and.w	r1, r1, #2147483648	; 0x80000000
   85c30:	f041 41fe 	orr.w	r1, r1, #2130706432	; 0x7f000000
   85c34:	f441 0170 	orr.w	r1, r1, #15728640	; 0xf00000
   85c38:	f04f 0000 	mov.w	r0, #0
   85c3c:	bd70      	pop	{r4, r5, r6, pc}
   85c3e:	f041 41fe 	orr.w	r1, r1, #2130706432	; 0x7f000000
   85c42:	f441 0178 	orr.w	r1, r1, #16252928	; 0xf80000
   85c46:	bd70      	pop	{r4, r5, r6, pc}

00085c48 <__aeabi_ddiv>:
   85c48:	b570      	push	{r4, r5, r6, lr}
   85c4a:	f04f 0cff 	mov.w	ip, #255	; 0xff
   85c4e:	f44c 6ce0 	orr.w	ip, ip, #1792	; 0x700
   85c52:	ea1c 5411 	ands.w	r4, ip, r1, lsr #20
   85c56:	bf1d      	ittte	ne
   85c58:	ea1c 5513 	andsne.w	r5, ip, r3, lsr #20
   85c5c:	ea94 0f0c 	teqne	r4, ip
   85c60:	ea95 0f0c 	teqne	r5, ip
   85c64:	f000 f8a7 	bleq	85db6 <__aeabi_ddiv+0x16e>
   85c68:	eba4 0405 	sub.w	r4, r4, r5
   85c6c:	ea81 0e03 	eor.w	lr, r1, r3
   85c70:	ea52 3503 	orrs.w	r5, r2, r3, lsl #12
   85c74:	ea4f 3101 	mov.w	r1, r1, lsl #12
   85c78:	f000 8088 	beq.w	85d8c <__aeabi_ddiv+0x144>
   85c7c:	ea4f 3303 	mov.w	r3, r3, lsl #12
   85c80:	f04f 5580 	mov.w	r5, #268435456	; 0x10000000
   85c84:	ea45 1313 	orr.w	r3, r5, r3, lsr #4
   85c88:	ea43 6312 	orr.w	r3, r3, r2, lsr #24
   85c8c:	ea4f 2202 	mov.w	r2, r2, lsl #8
   85c90:	ea45 1511 	orr.w	r5, r5, r1, lsr #4
   85c94:	ea45 6510 	orr.w	r5, r5, r0, lsr #24
   85c98:	ea4f 2600 	mov.w	r6, r0, lsl #8
   85c9c:	f00e 4100 	and.w	r1, lr, #2147483648	; 0x80000000
   85ca0:	429d      	cmp	r5, r3
   85ca2:	bf08      	it	eq
   85ca4:	4296      	cmpeq	r6, r2
   85ca6:	f144 04fd 	adc.w	r4, r4, #253	; 0xfd
   85caa:	f504 7440 	add.w	r4, r4, #768	; 0x300
   85cae:	d202      	bcs.n	85cb6 <__aeabi_ddiv+0x6e>
   85cb0:	085b      	lsrs	r3, r3, #1
   85cb2:	ea4f 0232 	mov.w	r2, r2, rrx
   85cb6:	1ab6      	subs	r6, r6, r2
   85cb8:	eb65 0503 	sbc.w	r5, r5, r3
   85cbc:	085b      	lsrs	r3, r3, #1
   85cbe:	ea4f 0232 	mov.w	r2, r2, rrx
   85cc2:	f44f 1080 	mov.w	r0, #1048576	; 0x100000
   85cc6:	f44f 2c00 	mov.w	ip, #524288	; 0x80000
   85cca:	ebb6 0e02 	subs.w	lr, r6, r2
   85cce:	eb75 0e03 	sbcs.w	lr, r5, r3
   85cd2:	bf22      	ittt	cs
   85cd4:	1ab6      	subcs	r6, r6, r2
   85cd6:	4675      	movcs	r5, lr
   85cd8:	ea40 000c 	orrcs.w	r0, r0, ip
   85cdc:	085b      	lsrs	r3, r3, #1
   85cde:	ea4f 0232 	mov.w	r2, r2, rrx
   85ce2:	ebb6 0e02 	subs.w	lr, r6, r2
   85ce6:	eb75 0e03 	sbcs.w	lr, r5, r3
   85cea:	bf22      	ittt	cs
   85cec:	1ab6      	subcs	r6, r6, r2
   85cee:	4675      	movcs	r5, lr
   85cf0:	ea40 005c 	orrcs.w	r0, r0, ip, lsr #1
   85cf4:	085b      	lsrs	r3, r3, #1
   85cf6:	ea4f 0232 	mov.w	r2, r2, rrx
   85cfa:	ebb6 0e02 	subs.w	lr, r6, r2
   85cfe:	eb75 0e03 	sbcs.w	lr, r5, r3
   85d02:	bf22      	ittt	cs
   85d04:	1ab6      	subcs	r6, r6, r2
   85d06:	4675      	movcs	r5, lr
   85d08:	ea40 009c 	orrcs.w	r0, r0, ip, lsr #2
   85d0c:	085b      	lsrs	r3, r3, #1
   85d0e:	ea4f 0232 	mov.w	r2, r2, rrx
   85d12:	ebb6 0e02 	subs.w	lr, r6, r2
   85d16:	eb75 0e03 	sbcs.w	lr, r5, r3
   85d1a:	bf22      	ittt	cs
   85d1c:	1ab6      	subcs	r6, r6, r2
   85d1e:	4675      	movcs	r5, lr
   85d20:	ea40 00dc 	orrcs.w	r0, r0, ip, lsr #3
   85d24:	ea55 0e06 	orrs.w	lr, r5, r6
   85d28:	d018      	beq.n	85d5c <__aeabi_ddiv+0x114>
   85d2a:	ea4f 1505 	mov.w	r5, r5, lsl #4
   85d2e:	ea45 7516 	orr.w	r5, r5, r6, lsr #28
   85d32:	ea4f 1606 	mov.w	r6, r6, lsl #4
   85d36:	ea4f 03c3 	mov.w	r3, r3, lsl #3
   85d3a:	ea43 7352 	orr.w	r3, r3, r2, lsr #29
   85d3e:	ea4f 02c2 	mov.w	r2, r2, lsl #3
   85d42:	ea5f 1c1c 	movs.w	ip, ip, lsr #4
   85d46:	d1c0      	bne.n	85cca <__aeabi_ddiv+0x82>
   85d48:	f411 1f80 	tst.w	r1, #1048576	; 0x100000
   85d4c:	d10b      	bne.n	85d66 <__aeabi_ddiv+0x11e>
   85d4e:	ea41 0100 	orr.w	r1, r1, r0
   85d52:	f04f 0000 	mov.w	r0, #0
   85d56:	f04f 4c00 	mov.w	ip, #2147483648	; 0x80000000
   85d5a:	e7b6      	b.n	85cca <__aeabi_ddiv+0x82>
   85d5c:	f411 1f80 	tst.w	r1, #1048576	; 0x100000
   85d60:	bf04      	itt	eq
   85d62:	4301      	orreq	r1, r0
   85d64:	2000      	moveq	r0, #0
   85d66:	f1b4 0cfd 	subs.w	ip, r4, #253	; 0xfd
   85d6a:	bf88      	it	hi
   85d6c:	f5bc 6fe0 	cmphi.w	ip, #1792	; 0x700
   85d70:	f63f aeaf 	bhi.w	85ad2 <__aeabi_dmul+0xde>
   85d74:	ebb5 0c03 	subs.w	ip, r5, r3
   85d78:	bf04      	itt	eq
   85d7a:	ebb6 0c02 	subseq.w	ip, r6, r2
   85d7e:	ea5f 0c50 	movseq.w	ip, r0, lsr #1
   85d82:	f150 0000 	adcs.w	r0, r0, #0
   85d86:	eb41 5104 	adc.w	r1, r1, r4, lsl #20
   85d8a:	bd70      	pop	{r4, r5, r6, pc}
   85d8c:	f00e 4e00 	and.w	lr, lr, #2147483648	; 0x80000000
   85d90:	ea4e 3111 	orr.w	r1, lr, r1, lsr #12
   85d94:	eb14 045c 	adds.w	r4, r4, ip, lsr #1
   85d98:	bfc2      	ittt	gt
   85d9a:	ebd4 050c 	rsbsgt	r5, r4, ip
   85d9e:	ea41 5104 	orrgt.w	r1, r1, r4, lsl #20
   85da2:	bd70      	popgt	{r4, r5, r6, pc}
   85da4:	f441 1180 	orr.w	r1, r1, #1048576	; 0x100000
   85da8:	f04f 0e00 	mov.w	lr, #0
   85dac:	3c01      	subs	r4, #1
   85dae:	e690      	b.n	85ad2 <__aeabi_dmul+0xde>
   85db0:	ea45 0e06 	orr.w	lr, r5, r6
   85db4:	e68d      	b.n	85ad2 <__aeabi_dmul+0xde>
   85db6:	ea0c 5513 	and.w	r5, ip, r3, lsr #20
   85dba:	ea94 0f0c 	teq	r4, ip
   85dbe:	bf08      	it	eq
   85dc0:	ea95 0f0c 	teqeq	r5, ip
   85dc4:	f43f af3b 	beq.w	85c3e <__aeabi_dmul+0x24a>
   85dc8:	ea94 0f0c 	teq	r4, ip
   85dcc:	d10a      	bne.n	85de4 <__aeabi_ddiv+0x19c>
   85dce:	ea50 3401 	orrs.w	r4, r0, r1, lsl #12
   85dd2:	f47f af34 	bne.w	85c3e <__aeabi_dmul+0x24a>
   85dd6:	ea95 0f0c 	teq	r5, ip
   85dda:	f47f af25 	bne.w	85c28 <__aeabi_dmul+0x234>
   85dde:	4610      	mov	r0, r2
   85de0:	4619      	mov	r1, r3
   85de2:	e72c      	b.n	85c3e <__aeabi_dmul+0x24a>
   85de4:	ea95 0f0c 	teq	r5, ip
   85de8:	d106      	bne.n	85df8 <__aeabi_ddiv+0x1b0>
   85dea:	ea52 3503 	orrs.w	r5, r2, r3, lsl #12
   85dee:	f43f aefd 	beq.w	85bec <__aeabi_dmul+0x1f8>
   85df2:	4610      	mov	r0, r2
   85df4:	4619      	mov	r1, r3
   85df6:	e722      	b.n	85c3e <__aeabi_dmul+0x24a>
   85df8:	ea50 0641 	orrs.w	r6, r0, r1, lsl #1
   85dfc:	bf18      	it	ne
   85dfe:	ea52 0643 	orrsne.w	r6, r2, r3, lsl #1
   85e02:	f47f aec5 	bne.w	85b90 <__aeabi_dmul+0x19c>
   85e06:	ea50 0441 	orrs.w	r4, r0, r1, lsl #1
   85e0a:	f47f af0d 	bne.w	85c28 <__aeabi_dmul+0x234>
   85e0e:	ea52 0543 	orrs.w	r5, r2, r3, lsl #1
   85e12:	f47f aeeb 	bne.w	85bec <__aeabi_dmul+0x1f8>
   85e16:	e712      	b.n	85c3e <__aeabi_dmul+0x24a>

00085e18 <__gedf2>:
   85e18:	f04f 3cff 	mov.w	ip, #4294967295
   85e1c:	e006      	b.n	85e2c <__cmpdf2+0x4>
   85e1e:	bf00      	nop

00085e20 <__ledf2>:
   85e20:	f04f 0c01 	mov.w	ip, #1
   85e24:	e002      	b.n	85e2c <__cmpdf2+0x4>
   85e26:	bf00      	nop

00085e28 <__cmpdf2>:
   85e28:	f04f 0c01 	mov.w	ip, #1
   85e2c:	f84d cd04 	str.w	ip, [sp, #-4]!
   85e30:	ea4f 0c41 	mov.w	ip, r1, lsl #1
   85e34:	ea7f 5c6c 	mvns.w	ip, ip, asr #21
   85e38:	ea4f 0c43 	mov.w	ip, r3, lsl #1
   85e3c:	bf18      	it	ne
   85e3e:	ea7f 5c6c 	mvnsne.w	ip, ip, asr #21
   85e42:	d01b      	beq.n	85e7c <__cmpdf2+0x54>
   85e44:	b001      	add	sp, #4
   85e46:	ea50 0c41 	orrs.w	ip, r0, r1, lsl #1
   85e4a:	bf0c      	ite	eq
   85e4c:	ea52 0c43 	orrseq.w	ip, r2, r3, lsl #1
   85e50:	ea91 0f03 	teqne	r1, r3
   85e54:	bf02      	ittt	eq
   85e56:	ea90 0f02 	teqeq	r0, r2
   85e5a:	2000      	moveq	r0, #0
   85e5c:	4770      	bxeq	lr
   85e5e:	f110 0f00 	cmn.w	r0, #0
   85e62:	ea91 0f03 	teq	r1, r3
   85e66:	bf58      	it	pl
   85e68:	4299      	cmppl	r1, r3
   85e6a:	bf08      	it	eq
   85e6c:	4290      	cmpeq	r0, r2
   85e6e:	bf2c      	ite	cs
   85e70:	17d8      	asrcs	r0, r3, #31
   85e72:	ea6f 70e3 	mvncc.w	r0, r3, asr #31
   85e76:	f040 0001 	orr.w	r0, r0, #1
   85e7a:	4770      	bx	lr
   85e7c:	ea4f 0c41 	mov.w	ip, r1, lsl #1
   85e80:	ea7f 5c6c 	mvns.w	ip, ip, asr #21
   85e84:	d102      	bne.n	85e8c <__cmpdf2+0x64>
   85e86:	ea50 3c01 	orrs.w	ip, r0, r1, lsl #12
   85e8a:	d107      	bne.n	85e9c <__cmpdf2+0x74>
   85e8c:	ea4f 0c43 	mov.w	ip, r3, lsl #1
   85e90:	ea7f 5c6c 	mvns.w	ip, ip, asr #21
   85e94:	d1d6      	bne.n	85e44 <__cmpdf2+0x1c>
   85e96:	ea52 3c03 	orrs.w	ip, r2, r3, lsl #12
   85e9a:	d0d3      	beq.n	85e44 <__cmpdf2+0x1c>
   85e9c:	f85d 0b04 	ldr.w	r0, [sp], #4
   85ea0:	4770      	bx	lr
   85ea2:	bf00      	nop

00085ea4 <__aeabi_cdrcmple>:
   85ea4:	4684      	mov	ip, r0
   85ea6:	4610      	mov	r0, r2
   85ea8:	4662      	mov	r2, ip
   85eaa:	468c      	mov	ip, r1
   85eac:	4619      	mov	r1, r3
   85eae:	4663      	mov	r3, ip
   85eb0:	e000      	b.n	85eb4 <__aeabi_cdcmpeq>
   85eb2:	bf00      	nop

00085eb4 <__aeabi_cdcmpeq>:
   85eb4:	b501      	push	{r0, lr}
   85eb6:	f7ff ffb7 	bl	85e28 <__cmpdf2>
   85eba:	2800      	cmp	r0, #0
   85ebc:	bf48      	it	mi
   85ebe:	f110 0f00 	cmnmi.w	r0, #0
   85ec2:	bd01      	pop	{r0, pc}

00085ec4 <__aeabi_dcmpeq>:
   85ec4:	f84d ed08 	str.w	lr, [sp, #-8]!
   85ec8:	f7ff fff4 	bl	85eb4 <__aeabi_cdcmpeq>
   85ecc:	bf0c      	ite	eq
   85ece:	2001      	moveq	r0, #1
   85ed0:	2000      	movne	r0, #0
   85ed2:	f85d fb08 	ldr.w	pc, [sp], #8
   85ed6:	bf00      	nop

00085ed8 <__aeabi_dcmplt>:
   85ed8:	f84d ed08 	str.w	lr, [sp, #-8]!
   85edc:	f7ff ffea 	bl	85eb4 <__aeabi_cdcmpeq>
   85ee0:	bf34      	ite	cc
   85ee2:	2001      	movcc	r0, #1
   85ee4:	2000      	movcs	r0, #0
   85ee6:	f85d fb08 	ldr.w	pc, [sp], #8
   85eea:	bf00      	nop

00085eec <__aeabi_dcmple>:
   85eec:	f84d ed08 	str.w	lr, [sp, #-8]!
   85ef0:	f7ff ffe0 	bl	85eb4 <__aeabi_cdcmpeq>
   85ef4:	bf94      	ite	ls
   85ef6:	2001      	movls	r0, #1
   85ef8:	2000      	movhi	r0, #0
   85efa:	f85d fb08 	ldr.w	pc, [sp], #8
   85efe:	bf00      	nop

00085f00 <__aeabi_dcmpge>:
   85f00:	f84d ed08 	str.w	lr, [sp, #-8]!
   85f04:	f7ff ffce 	bl	85ea4 <__aeabi_cdrcmple>
   85f08:	bf94      	ite	ls
   85f0a:	2001      	movls	r0, #1
   85f0c:	2000      	movhi	r0, #0
   85f0e:	f85d fb08 	ldr.w	pc, [sp], #8
   85f12:	bf00      	nop

00085f14 <__aeabi_dcmpgt>:
   85f14:	f84d ed08 	str.w	lr, [sp, #-8]!
   85f18:	f7ff ffc4 	bl	85ea4 <__aeabi_cdrcmple>
   85f1c:	bf34      	ite	cc
   85f1e:	2001      	movcc	r0, #1
   85f20:	2000      	movcs	r0, #0
   85f22:	f85d fb08 	ldr.w	pc, [sp], #8
   85f26:	bf00      	nop

00085f28 <__aeabi_dcmpun>:
   85f28:	ea4f 0c41 	mov.w	ip, r1, lsl #1
   85f2c:	ea7f 5c6c 	mvns.w	ip, ip, asr #21
   85f30:	d102      	bne.n	85f38 <__aeabi_dcmpun+0x10>
   85f32:	ea50 3c01 	orrs.w	ip, r0, r1, lsl #12
   85f36:	d10a      	bne.n	85f4e <__aeabi_dcmpun+0x26>
   85f38:	ea4f 0c43 	mov.w	ip, r3, lsl #1
   85f3c:	ea7f 5c6c 	mvns.w	ip, ip, asr #21
   85f40:	d102      	bne.n	85f48 <__aeabi_dcmpun+0x20>
   85f42:	ea52 3c03 	orrs.w	ip, r2, r3, lsl #12
   85f46:	d102      	bne.n	85f4e <__aeabi_dcmpun+0x26>
   85f48:	f04f 0000 	mov.w	r0, #0
   85f4c:	4770      	bx	lr
   85f4e:	f04f 0001 	mov.w	r0, #1
   85f52:	4770      	bx	lr

00085f54 <__aeabi_d2iz>:
   85f54:	ea4f 0241 	mov.w	r2, r1, lsl #1
   85f58:	f512 1200 	adds.w	r2, r2, #2097152	; 0x200000
   85f5c:	d215      	bcs.n	85f8a <__aeabi_d2iz+0x36>
   85f5e:	d511      	bpl.n	85f84 <__aeabi_d2iz+0x30>
   85f60:	f46f 7378 	mvn.w	r3, #992	; 0x3e0
   85f64:	ebb3 5262 	subs.w	r2, r3, r2, asr #21
   85f68:	d912      	bls.n	85f90 <__aeabi_d2iz+0x3c>
   85f6a:	ea4f 23c1 	mov.w	r3, r1, lsl #11
   85f6e:	f043 4300 	orr.w	r3, r3, #2147483648	; 0x80000000
   85f72:	ea43 5350 	orr.w	r3, r3, r0, lsr #21
   85f76:	f011 4f00 	tst.w	r1, #2147483648	; 0x80000000
   85f7a:	fa23 f002 	lsr.w	r0, r3, r2
   85f7e:	bf18      	it	ne
   85f80:	4240      	negne	r0, r0
   85f82:	4770      	bx	lr
   85f84:	f04f 0000 	mov.w	r0, #0
   85f88:	4770      	bx	lr
   85f8a:	ea50 3001 	orrs.w	r0, r0, r1, lsl #12
   85f8e:	d105      	bne.n	85f9c <__aeabi_d2iz+0x48>
   85f90:	f011 4000 	ands.w	r0, r1, #2147483648	; 0x80000000
   85f94:	bf08      	it	eq
   85f96:	f06f 4000 	mvneq.w	r0, #2147483648	; 0x80000000
   85f9a:	4770      	bx	lr
   85f9c:	f04f 0000 	mov.w	r0, #0
   85fa0:	4770      	bx	lr
   85fa2:	bf00      	nop

00085fa4 <__aeabi_uldivmod>:
   85fa4:	b953      	cbnz	r3, 85fbc <__aeabi_uldivmod+0x18>
   85fa6:	b94a      	cbnz	r2, 85fbc <__aeabi_uldivmod+0x18>
   85fa8:	2900      	cmp	r1, #0
   85faa:	bf08      	it	eq
   85fac:	2800      	cmpeq	r0, #0
   85fae:	bf1c      	itt	ne
   85fb0:	f04f 31ff 	movne.w	r1, #4294967295
   85fb4:	f04f 30ff 	movne.w	r0, #4294967295
   85fb8:	f000 b97a 	b.w	862b0 <__aeabi_idiv0>
   85fbc:	f1ad 0c08 	sub.w	ip, sp, #8
   85fc0:	e96d ce04 	strd	ip, lr, [sp, #-16]!
   85fc4:	f000 f806 	bl	85fd4 <__udivmoddi4>
   85fc8:	f8dd e004 	ldr.w	lr, [sp, #4]
   85fcc:	e9dd 2302 	ldrd	r2, r3, [sp, #8]
   85fd0:	b004      	add	sp, #16
   85fd2:	4770      	bx	lr

00085fd4 <__udivmoddi4>:
   85fd4:	e92d 47f0 	stmdb	sp!, {r4, r5, r6, r7, r8, r9, sl, lr}
   85fd8:	468c      	mov	ip, r1
   85fda:	460e      	mov	r6, r1
   85fdc:	4604      	mov	r4, r0
   85fde:	9d08      	ldr	r5, [sp, #32]
   85fe0:	2b00      	cmp	r3, #0
   85fe2:	d150      	bne.n	86086 <__udivmoddi4+0xb2>
   85fe4:	428a      	cmp	r2, r1
   85fe6:	4617      	mov	r7, r2
   85fe8:	d96c      	bls.n	860c4 <__udivmoddi4+0xf0>
   85fea:	fab2 fe82 	clz	lr, r2
   85fee:	f1be 0f00 	cmp.w	lr, #0
   85ff2:	d00b      	beq.n	8600c <__udivmoddi4+0x38>
   85ff4:	f1ce 0c20 	rsb	ip, lr, #32
   85ff8:	fa01 f60e 	lsl.w	r6, r1, lr
   85ffc:	fa20 fc0c 	lsr.w	ip, r0, ip
   86000:	fa02 f70e 	lsl.w	r7, r2, lr
   86004:	ea4c 0c06 	orr.w	ip, ip, r6
   86008:	fa00 f40e 	lsl.w	r4, r0, lr
   8600c:	0c3a      	lsrs	r2, r7, #16
   8600e:	fbbc f9f2 	udiv	r9, ip, r2
   86012:	b2bb      	uxth	r3, r7
   86014:	fb02 cc19 	mls	ip, r2, r9, ip
   86018:	fb09 fa03 	mul.w	sl, r9, r3
   8601c:	ea4f 4814 	mov.w	r8, r4, lsr #16
   86020:	ea48 460c 	orr.w	r6, r8, ip, lsl #16
   86024:	45b2      	cmp	sl, r6
   86026:	d90a      	bls.n	8603e <__udivmoddi4+0x6a>
   86028:	19f6      	adds	r6, r6, r7
   8602a:	f109 31ff 	add.w	r1, r9, #4294967295
   8602e:	f080 8125 	bcs.w	8627c <__udivmoddi4+0x2a8>
   86032:	45b2      	cmp	sl, r6
   86034:	f240 8122 	bls.w	8627c <__udivmoddi4+0x2a8>
   86038:	f1a9 0902 	sub.w	r9, r9, #2
   8603c:	443e      	add	r6, r7
   8603e:	eba6 060a 	sub.w	r6, r6, sl
   86042:	fbb6 f0f2 	udiv	r0, r6, r2
   86046:	fb02 6610 	mls	r6, r2, r0, r6
   8604a:	fb00 f303 	mul.w	r3, r0, r3
   8604e:	b2a4      	uxth	r4, r4
   86050:	ea44 4406 	orr.w	r4, r4, r6, lsl #16
   86054:	42a3      	cmp	r3, r4
   86056:	d909      	bls.n	8606c <__udivmoddi4+0x98>
   86058:	19e4      	adds	r4, r4, r7
   8605a:	f100 32ff 	add.w	r2, r0, #4294967295
   8605e:	f080 810b 	bcs.w	86278 <__udivmoddi4+0x2a4>
   86062:	42a3      	cmp	r3, r4
   86064:	f240 8108 	bls.w	86278 <__udivmoddi4+0x2a4>
   86068:	3802      	subs	r0, #2
   8606a:	443c      	add	r4, r7
   8606c:	2100      	movs	r1, #0
   8606e:	1ae4      	subs	r4, r4, r3
   86070:	ea40 4009 	orr.w	r0, r0, r9, lsl #16
   86074:	2d00      	cmp	r5, #0
   86076:	d062      	beq.n	8613e <__udivmoddi4+0x16a>
   86078:	2300      	movs	r3, #0
   8607a:	fa24 f40e 	lsr.w	r4, r4, lr
   8607e:	602c      	str	r4, [r5, #0]
   86080:	606b      	str	r3, [r5, #4]
   86082:	e8bd 87f0 	ldmia.w	sp!, {r4, r5, r6, r7, r8, r9, sl, pc}
   86086:	428b      	cmp	r3, r1
   86088:	d907      	bls.n	8609a <__udivmoddi4+0xc6>
   8608a:	2d00      	cmp	r5, #0
   8608c:	d055      	beq.n	8613a <__udivmoddi4+0x166>
   8608e:	2100      	movs	r1, #0
   86090:	e885 0041 	stmia.w	r5, {r0, r6}
   86094:	4608      	mov	r0, r1
   86096:	e8bd 87f0 	ldmia.w	sp!, {r4, r5, r6, r7, r8, r9, sl, pc}
   8609a:	fab3 f183 	clz	r1, r3
   8609e:	2900      	cmp	r1, #0
   860a0:	f040 808f 	bne.w	861c2 <__udivmoddi4+0x1ee>
   860a4:	42b3      	cmp	r3, r6
   860a6:	d302      	bcc.n	860ae <__udivmoddi4+0xda>
   860a8:	4282      	cmp	r2, r0
   860aa:	f200 80fc 	bhi.w	862a6 <__udivmoddi4+0x2d2>
   860ae:	1a84      	subs	r4, r0, r2
   860b0:	eb66 0603 	sbc.w	r6, r6, r3
   860b4:	2001      	movs	r0, #1
   860b6:	46b4      	mov	ip, r6
   860b8:	2d00      	cmp	r5, #0
   860ba:	d040      	beq.n	8613e <__udivmoddi4+0x16a>
   860bc:	e885 1010 	stmia.w	r5, {r4, ip}
   860c0:	e8bd 87f0 	ldmia.w	sp!, {r4, r5, r6, r7, r8, r9, sl, pc}
   860c4:	b912      	cbnz	r2, 860cc <__udivmoddi4+0xf8>
   860c6:	2701      	movs	r7, #1
   860c8:	fbb7 f7f2 	udiv	r7, r7, r2
   860cc:	fab7 fe87 	clz	lr, r7
   860d0:	f1be 0f00 	cmp.w	lr, #0
   860d4:	d135      	bne.n	86142 <__udivmoddi4+0x16e>
   860d6:	2101      	movs	r1, #1
   860d8:	1bf6      	subs	r6, r6, r7
   860da:	ea4f 4c17 	mov.w	ip, r7, lsr #16
   860de:	fa1f f887 	uxth.w	r8, r7
   860e2:	fbb6 f2fc 	udiv	r2, r6, ip
   860e6:	fb0c 6612 	mls	r6, ip, r2, r6
   860ea:	fb08 f002 	mul.w	r0, r8, r2
   860ee:	0c23      	lsrs	r3, r4, #16
   860f0:	ea43 4606 	orr.w	r6, r3, r6, lsl #16
   860f4:	42b0      	cmp	r0, r6
   860f6:	d907      	bls.n	86108 <__udivmoddi4+0x134>
   860f8:	19f6      	adds	r6, r6, r7
   860fa:	f102 33ff 	add.w	r3, r2, #4294967295
   860fe:	d202      	bcs.n	86106 <__udivmoddi4+0x132>
   86100:	42b0      	cmp	r0, r6
   86102:	f200 80d2 	bhi.w	862aa <__udivmoddi4+0x2d6>
   86106:	461a      	mov	r2, r3
   86108:	1a36      	subs	r6, r6, r0
   8610a:	fbb6 f0fc 	udiv	r0, r6, ip
   8610e:	fb0c 6610 	mls	r6, ip, r0, r6
   86112:	fb08 f800 	mul.w	r8, r8, r0
   86116:	b2a3      	uxth	r3, r4
   86118:	ea43 4406 	orr.w	r4, r3, r6, lsl #16
   8611c:	45a0      	cmp	r8, r4
   8611e:	d907      	bls.n	86130 <__udivmoddi4+0x15c>
   86120:	19e4      	adds	r4, r4, r7
   86122:	f100 33ff 	add.w	r3, r0, #4294967295
   86126:	d202      	bcs.n	8612e <__udivmoddi4+0x15a>
   86128:	45a0      	cmp	r8, r4
   8612a:	f200 80b9 	bhi.w	862a0 <__udivmoddi4+0x2cc>
   8612e:	4618      	mov	r0, r3
   86130:	eba4 0408 	sub.w	r4, r4, r8
   86134:	ea40 4002 	orr.w	r0, r0, r2, lsl #16
   86138:	e79c      	b.n	86074 <__udivmoddi4+0xa0>
   8613a:	4629      	mov	r1, r5
   8613c:	4628      	mov	r0, r5
   8613e:	e8bd 87f0 	ldmia.w	sp!, {r4, r5, r6, r7, r8, r9, sl, pc}
   86142:	fa07 f70e 	lsl.w	r7, r7, lr
   86146:	f1ce 0320 	rsb	r3, lr, #32
   8614a:	fa26 f203 	lsr.w	r2, r6, r3
   8614e:	ea4f 4c17 	mov.w	ip, r7, lsr #16
   86152:	fbb2 f1fc 	udiv	r1, r2, ip
   86156:	fa1f f887 	uxth.w	r8, r7
   8615a:	fb0c 2211 	mls	r2, ip, r1, r2
   8615e:	fa06 f60e 	lsl.w	r6, r6, lr
   86162:	fa20 f303 	lsr.w	r3, r0, r3
   86166:	fb01 f908 	mul.w	r9, r1, r8
   8616a:	4333      	orrs	r3, r6
   8616c:	0c1e      	lsrs	r6, r3, #16
   8616e:	ea46 4602 	orr.w	r6, r6, r2, lsl #16
   86172:	45b1      	cmp	r9, r6
   86174:	fa00 f40e 	lsl.w	r4, r0, lr
   86178:	d909      	bls.n	8618e <__udivmoddi4+0x1ba>
   8617a:	19f6      	adds	r6, r6, r7
   8617c:	f101 32ff 	add.w	r2, r1, #4294967295
   86180:	f080 808c 	bcs.w	8629c <__udivmoddi4+0x2c8>
   86184:	45b1      	cmp	r9, r6
   86186:	f240 8089 	bls.w	8629c <__udivmoddi4+0x2c8>
   8618a:	3902      	subs	r1, #2
   8618c:	443e      	add	r6, r7
   8618e:	eba6 0609 	sub.w	r6, r6, r9
   86192:	fbb6 f0fc 	udiv	r0, r6, ip
   86196:	fb0c 6210 	mls	r2, ip, r0, r6
   8619a:	fb00 f908 	mul.w	r9, r0, r8
   8619e:	b29e      	uxth	r6, r3
   861a0:	ea46 4602 	orr.w	r6, r6, r2, lsl #16
   861a4:	45b1      	cmp	r9, r6
   861a6:	d907      	bls.n	861b8 <__udivmoddi4+0x1e4>
   861a8:	19f6      	adds	r6, r6, r7
   861aa:	f100 33ff 	add.w	r3, r0, #4294967295
   861ae:	d271      	bcs.n	86294 <__udivmoddi4+0x2c0>
   861b0:	45b1      	cmp	r9, r6
   861b2:	d96f      	bls.n	86294 <__udivmoddi4+0x2c0>
   861b4:	3802      	subs	r0, #2
   861b6:	443e      	add	r6, r7
   861b8:	eba6 0609 	sub.w	r6, r6, r9
   861bc:	ea40 4101 	orr.w	r1, r0, r1, lsl #16
   861c0:	e78f      	b.n	860e2 <__udivmoddi4+0x10e>
   861c2:	f1c1 0720 	rsb	r7, r1, #32
   861c6:	fa22 f807 	lsr.w	r8, r2, r7
   861ca:	408b      	lsls	r3, r1
   861cc:	ea48 0303 	orr.w	r3, r8, r3
   861d0:	fa26 f407 	lsr.w	r4, r6, r7
   861d4:	ea4f 4e13 	mov.w	lr, r3, lsr #16
   861d8:	fbb4 f9fe 	udiv	r9, r4, lr
   861dc:	fa1f fc83 	uxth.w	ip, r3
   861e0:	fb0e 4419 	mls	r4, lr, r9, r4
   861e4:	408e      	lsls	r6, r1
   861e6:	fa20 f807 	lsr.w	r8, r0, r7
   861ea:	fb09 fa0c 	mul.w	sl, r9, ip
   861ee:	ea48 0806 	orr.w	r8, r8, r6
   861f2:	ea4f 4618 	mov.w	r6, r8, lsr #16
   861f6:	ea46 4404 	orr.w	r4, r6, r4, lsl #16
   861fa:	45a2      	cmp	sl, r4
   861fc:	fa02 f201 	lsl.w	r2, r2, r1
   86200:	fa00 f601 	lsl.w	r6, r0, r1
   86204:	d908      	bls.n	86218 <__udivmoddi4+0x244>
   86206:	18e4      	adds	r4, r4, r3
   86208:	f109 30ff 	add.w	r0, r9, #4294967295
   8620c:	d244      	bcs.n	86298 <__udivmoddi4+0x2c4>
   8620e:	45a2      	cmp	sl, r4
   86210:	d942      	bls.n	86298 <__udivmoddi4+0x2c4>
   86212:	f1a9 0902 	sub.w	r9, r9, #2
   86216:	441c      	add	r4, r3
   86218:	eba4 040a 	sub.w	r4, r4, sl
   8621c:	fbb4 f0fe 	udiv	r0, r4, lr
   86220:	fb0e 4410 	mls	r4, lr, r0, r4
   86224:	fb00 fc0c 	mul.w	ip, r0, ip
   86228:	fa1f f888 	uxth.w	r8, r8
   8622c:	ea48 4404 	orr.w	r4, r8, r4, lsl #16
   86230:	45a4      	cmp	ip, r4
   86232:	d907      	bls.n	86244 <__udivmoddi4+0x270>
   86234:	18e4      	adds	r4, r4, r3
   86236:	f100 3eff 	add.w	lr, r0, #4294967295
   8623a:	d229      	bcs.n	86290 <__udivmoddi4+0x2bc>
   8623c:	45a4      	cmp	ip, r4
   8623e:	d927      	bls.n	86290 <__udivmoddi4+0x2bc>
   86240:	3802      	subs	r0, #2
   86242:	441c      	add	r4, r3
   86244:	ea40 4009 	orr.w	r0, r0, r9, lsl #16
   86248:	fba0 8902 	umull	r8, r9, r0, r2
   8624c:	eba4 0c0c 	sub.w	ip, r4, ip
   86250:	45cc      	cmp	ip, r9
   86252:	46c2      	mov	sl, r8
   86254:	46ce      	mov	lr, r9
   86256:	d315      	bcc.n	86284 <__udivmoddi4+0x2b0>
   86258:	d012      	beq.n	86280 <__udivmoddi4+0x2ac>
   8625a:	b155      	cbz	r5, 86272 <__udivmoddi4+0x29e>
   8625c:	ebb6 030a 	subs.w	r3, r6, sl
   86260:	eb6c 060e 	sbc.w	r6, ip, lr
   86264:	fa06 f707 	lsl.w	r7, r6, r7
   86268:	40cb      	lsrs	r3, r1
   8626a:	431f      	orrs	r7, r3
   8626c:	40ce      	lsrs	r6, r1
   8626e:	602f      	str	r7, [r5, #0]
   86270:	606e      	str	r6, [r5, #4]
   86272:	2100      	movs	r1, #0
   86274:	e8bd 87f0 	ldmia.w	sp!, {r4, r5, r6, r7, r8, r9, sl, pc}
   86278:	4610      	mov	r0, r2
   8627a:	e6f7      	b.n	8606c <__udivmoddi4+0x98>
   8627c:	4689      	mov	r9, r1
   8627e:	e6de      	b.n	8603e <__udivmoddi4+0x6a>
   86280:	4546      	cmp	r6, r8
   86282:	d2ea      	bcs.n	8625a <__udivmoddi4+0x286>
   86284:	ebb8 0a02 	subs.w	sl, r8, r2
   86288:	eb69 0e03 	sbc.w	lr, r9, r3
   8628c:	3801      	subs	r0, #1
   8628e:	e7e4      	b.n	8625a <__udivmoddi4+0x286>
   86290:	4670      	mov	r0, lr
   86292:	e7d7      	b.n	86244 <__udivmoddi4+0x270>
   86294:	4618      	mov	r0, r3
   86296:	e78f      	b.n	861b8 <__udivmoddi4+0x1e4>
   86298:	4681      	mov	r9, r0
   8629a:	e7bd      	b.n	86218 <__udivmoddi4+0x244>
   8629c:	4611      	mov	r1, r2
   8629e:	e776      	b.n	8618e <__udivmoddi4+0x1ba>
   862a0:	3802      	subs	r0, #2
   862a2:	443c      	add	r4, r7
   862a4:	e744      	b.n	86130 <__udivmoddi4+0x15c>
   862a6:	4608      	mov	r0, r1
   862a8:	e706      	b.n	860b8 <__udivmoddi4+0xe4>
   862aa:	3a02      	subs	r2, #2
   862ac:	443e      	add	r6, r7
   862ae:	e72b      	b.n	86108 <__udivmoddi4+0x134>

000862b0 <__aeabi_idiv0>:
   862b0:	4770      	bx	lr
   862b2:	bf00      	nop
   862b4:	74697257 	.word	0x74697257
   862b8:	20676e69 	.word	0x20676e69
   862bc:	66206f74 	.word	0x66206f74
   862c0:	6873616c 	.word	0x6873616c
   862c4:	0000000a 	.word	0x0000000a
   862c8:	20646142 	.word	0x20646142
   862cc:	6f6c6e75 	.word	0x6f6c6e75
   862d0:	000a6b63 	.word	0x000a6b63
   862d4:	20646142 	.word	0x20646142
   862d8:	74697277 	.word	0x74697277
   862dc:	00000a65 	.word	0x00000a65
   862e0:	20646142 	.word	0x20646142
   862e4:	6b636f6c 	.word	0x6b636f6c
   862e8:	0000000a 	.word	0x0000000a
   862ec:	6f727245 	.word	0x6f727245
   862f0:	000a3372 	.word	0x000a3372
   862f4:	646e6553 	.word	0x646e6553
   862f8:	20465220 	.word	0x20465220
   862fc:	0000000a 	.word	0x0000000a

00086300 <pipe0>:
   86300:	00f000f0 00f000f0 000000f1 64616572     ............read
   86310:	67657220 20752520 206c6176 25207525      reg %u val %u %
   86320:	75252075 20752520 000a7525 64616572     u %u %u %u..read
   86330:	67657220 20752520 206c6176 0a207525      reg %u val %u .
   86340:	00000000 6f727245 000a3272 6f727245     ....Error2..Erro
   86350:	00000a72 74697257 6f742065 616c6620     r...Write to fla
   86360:	000a6873 74617453 68632065 65676e61     sh..State change
   86370:	0000000a                                ....

00086374 <_global_impure_ptr>:
   86374:	200704f8 00464e49 00666e69 004e414e     ... INF.inf.NAN.
   86384:	006e616e 33323130 37363534 42413938     nan.0123456789AB
   86394:	46454443 00000000 33323130 37363534     CDEF....01234567
   863a4:	62613938 66656463 00000000 6c756e28     89abcdef....(nul
   863b4:	0000296c 00000030                       l)..0...

000863bc <blanks.7223>:
   863bc:	20202020 20202020 20202020 20202020                     

000863cc <zeroes.7224>:
   863cc:	30303030 30303030 30303030 30303030     0000000000000000
   863dc:	69666e49 7974696e 00000000 004e614e     Infinity....NaN.
   863ec:	00000043 49534f50 00000058 0000002e     C...POSIX.......
   863fc:	00000000                                ....

00086400 <__mprec_bigtens>:
   86400:	37e08000 4341c379 b5056e17 4693b8b5     ...7y.AC.n.....F
   86410:	e93ff9f5 4d384f03 f9301d32 5a827748     ..?..O8M2.0.Hw.Z
   86420:	7f73bf3c 75154fdd                       <.s..O.u

00086428 <__mprec_tens>:
   86428:	00000000 3ff00000 00000000 40240000     .......?......$@
   86438:	00000000 40590000 00000000 408f4000     ......Y@.....@.@
   86448:	00000000 40c38800 00000000 40f86a00     .......@.....j.@
   86458:	00000000 412e8480 00000000 416312d0     .......A......cA
   86468:	00000000 4197d784 00000000 41cdcd65     .......A....e..A
   86478:	20000000 4202a05f e8000000 42374876     ... _..B....vH7B
   86488:	a2000000 426d1a94 e5400000 42a2309c     ......mB..@..0.B
   86498:	1e900000 42d6bcc4 26340000 430c6bf5     .......B..4&.k.C
   864a8:	37e08000 4341c379 85d8a000 43763457     ...7y.AC....W4vC
   864b8:	674ec800 43abc16d 60913d00 43e158e4     ..Ngm..C.=.`.X.C
   864c8:	78b58c40 4415af1d d6e2ef50 444b1ae4     @..x...DP.....KD
   864d8:	064dd592 4480f0cf c7e14af6 44b52d02     ..M....D.J...-.D
   864e8:	79d99db4 44ea7843                       ...yCx.D

000864f0 <p05.6055>:
   864f0:	00000005 00000019 0000007d              ........}...

000864fc <_ctype_>:
   864fc:	20202000 20202020 28282020 20282828     .         ((((( 
   8650c:	20202020 20202020 20202020 20202020                     
   8651c:	10108820 10101010 10101010 10101010      ...............
   8652c:	04040410 04040404 10040404 10101010     ................
   8653c:	41411010 41414141 01010101 01010101     ..AAAAAA........
   8654c:	01010101 01010101 01010101 10101010     ................
   8655c:	42421010 42424242 02020202 02020202     ..BBBBBB........
   8656c:	02020202 02020202 02020202 10101010     ................
   8657c:	00000020 00000000 00000000 00000000      ...............
	...

00086600 <_init>:
   86600:	b5f8      	push	{r3, r4, r5, r6, r7, lr}
   86602:	bf00      	nop
   86604:	bcf8      	pop	{r3, r4, r5, r6, r7}
   86606:	bc08      	pop	{r3}
   86608:	469e      	mov	lr, r3
   8660a:	4770      	bx	lr

0008660c <__init_array_start>:
   8660c:	00083715 	.word	0x00083715

00086610 <__frame_dummy_init_array_entry>:
   86610:	00080119                                ....

00086614 <_fini>:
   86614:	b5f8      	push	{r3, r4, r5, r6, r7, lr}
   86616:	bf00      	nop
   86618:	bcf8      	pop	{r3, r4, r5, r6, r7}
   8661a:	bc08      	pop	{r3}
   8661c:	469e      	mov	lr, r3
   8661e:	4770      	bx	lr

00086620 <__fini_array_start>:
   86620:	000800f5 	.word	0x000800f5

Disassembly of section .relocate:

20070000 <efc_perform_read_sequence>:
__no_inline
RAMFUNC
uint32_t efc_perform_read_sequence(Efc *p_efc,
		uint32_t ul_cmd_st, uint32_t ul_cmd_sp,
		uint32_t *p_ul_buf, uint32_t ul_size)
{
20070000:	b470      	push	{r4, r5, r6}
20070002:	b083      	sub	sp, #12
20070004:	9e06      	ldr	r6, [sp, #24]
	volatile uint32_t ul_status;
	uint32_t ul_cnt;

#if (SAM3U4 || SAM3XA || SAM4SD16 || SAM4SD32 || SAM4C32 || SAM4CMS32|| SAM4CMP32)
	uint32_t *p_ul_data =
			(uint32_t *) ((p_efc == EFC0) ?
20070006:	4d1b      	ldr	r5, [pc, #108]	; (20070074 <efc_perform_read_sequence+0x74>)
20070008:	42a8      	cmp	r0, r5
2007000a:	bf0c      	ite	eq
2007000c:	f44f 2500 	moveq.w	r5, #524288	; 0x80000
20070010:	f44f 2540 	movne.w	r5, #786432	; 0xc0000
	uint32_t *p_ul_data = (uint32_t *) READ_BUFF_ADDR;
#else
	return EFC_RC_NOT_SUPPORT;
#endif

	if (p_ul_buf == NULL) {
20070014:	b35b      	cbz	r3, 2007006e <efc_perform_read_sequence+0x6e>
20070016:	461c      	mov	r4, r3
		return EFC_RC_INVALID;
	}

	p_efc->EEFC_FMR |= (0x1u << 16);
20070018:	6803      	ldr	r3, [r0, #0]
2007001a:	f443 3380 	orr.w	r3, r3, #65536	; 0x10000
2007001e:	6003      	str	r3, [r0, #0]
	 SAMV71 || SAMV70 || SAMS70 || SAME70)
	p_efc->EEFC_FCR = EEFC_FCR_FKEY_PASSWD | EEFC_FCR_FARG(0)
			| EEFC_FCR_FCMD(ul_cmd_st);
#else
	p_efc->EEFC_FCR = EEFC_FCR_FKEY(FWP_KEY) | EEFC_FCR_FARG(0)
			| EEFC_FCR_FCMD(ul_cmd_st);
20070020:	b2c9      	uxtb	r1, r1
20070022:	f041 41b4 	orr.w	r1, r1, #1509949440	; 0x5a000000
	p_efc->EEFC_FCR = EEFC_FCR_FKEY(FWP_KEY) | EEFC_FCR_FARG(0)
20070026:	6041      	str	r1, [r0, #4]
#endif
	/* Wait for the FRDY bit in the Flash Programming Status Register
	 * (EEFC_FSR) falls.
	 */
	do {
		ul_status = p_efc->EEFC_FSR;
20070028:	6883      	ldr	r3, [r0, #8]
2007002a:	9301      	str	r3, [sp, #4]
	} while ((ul_status & EEFC_FSR_FRDY) == EEFC_FSR_FRDY);
2007002c:	9b01      	ldr	r3, [sp, #4]
2007002e:	f013 0f01 	tst.w	r3, #1
20070032:	d1f9      	bne.n	20070028 <efc_perform_read_sequence+0x28>

	/* The data is located in the first address of the Flash
	 * memory mapping.
	 */
	for (ul_cnt = 0; ul_cnt < ul_size; ul_cnt++) {
20070034:	b14e      	cbz	r6, 2007004a <efc_perform_read_sequence+0x4a>
20070036:	4629      	mov	r1, r5
20070038:	1f23      	subs	r3, r4, #4
2007003a:	eb05 0586 	add.w	r5, r5, r6, lsl #2
		p_ul_buf[ul_cnt] = p_ul_data[ul_cnt];
2007003e:	f851 4b04 	ldr.w	r4, [r1], #4
20070042:	f843 4f04 	str.w	r4, [r3, #4]!
	for (ul_cnt = 0; ul_cnt < ul_size; ul_cnt++) {
20070046:	42a9      	cmp	r1, r5
20070048:	d1f9      	bne.n	2007003e <efc_perform_read_sequence+0x3e>
	 SAMV71 || SAMV70 || SAMS70 || SAME70)
			EEFC_FCR_FKEY_PASSWD | EEFC_FCR_FARG(0) |
			EEFC_FCR_FCMD(ul_cmd_sp);
#else
			EEFC_FCR_FKEY(FWP_KEY) | EEFC_FCR_FARG(0) |
			EEFC_FCR_FCMD(ul_cmd_sp);
2007004a:	b2d2      	uxtb	r2, r2
			EEFC_FCR_FKEY(FWP_KEY) | EEFC_FCR_FARG(0) |
2007004c:	f042 42b4 	orr.w	r2, r2, #1509949440	; 0x5a000000
	p_efc->EEFC_FCR =
20070050:	6042      	str	r2, [r0, #4]
#endif
	/* Wait for the FRDY bit in the Flash Programming Status Register (EEFC_FSR)
	 * rises.
	 */
	do {
		ul_status = p_efc->EEFC_FSR;
20070052:	6883      	ldr	r3, [r0, #8]
20070054:	9301      	str	r3, [sp, #4]
	} while ((ul_status & EEFC_FSR_FRDY) != EEFC_FSR_FRDY);
20070056:	9b01      	ldr	r3, [sp, #4]
20070058:	f013 0f01 	tst.w	r3, #1
2007005c:	d0f9      	beq.n	20070052 <efc_perform_read_sequence+0x52>

	p_efc->EEFC_FMR &= ~(0x1u << 16);
2007005e:	6803      	ldr	r3, [r0, #0]
20070060:	f423 3380 	bic.w	r3, r3, #65536	; 0x10000
20070064:	6003      	str	r3, [r0, #0]

	return EFC_RC_OK;
20070066:	2000      	movs	r0, #0
}
20070068:	b003      	add	sp, #12
2007006a:	bc70      	pop	{r4, r5, r6}
2007006c:	4770      	bx	lr
		return EFC_RC_INVALID;
2007006e:	2002      	movs	r0, #2
20070070:	e7fa      	b.n	20070068 <efc_perform_read_sequence+0x68>
20070072:	bf00      	nop
20070074:	400e0a00 	.word	0x400e0a00

20070078 <efc_write_fmr>:
 */
__no_inline
RAMFUNC
void efc_write_fmr(Efc *p_efc, uint32_t ul_fmr)
{
	p_efc->EEFC_FMR = ul_fmr;
20070078:	6001      	str	r1, [r0, #0]
2007007a:	4770      	bx	lr

2007007c <efc_perform_fcr>:
 * \return The current status.
 */
__no_inline
RAMFUNC
uint32_t efc_perform_fcr(Efc *p_efc, uint32_t ul_fcr)
{
2007007c:	b082      	sub	sp, #8
	volatile uint32_t ul_status;

	p_efc->EEFC_FCR = ul_fcr;
2007007e:	6041      	str	r1, [r0, #4]
	do {
		ul_status = p_efc->EEFC_FSR;
20070080:	6883      	ldr	r3, [r0, #8]
20070082:	9301      	str	r3, [sp, #4]
	} while ((ul_status & EEFC_FSR_FRDY) != EEFC_FSR_FRDY);
20070084:	9b01      	ldr	r3, [sp, #4]
20070086:	f013 0f01 	tst.w	r3, #1
2007008a:	d0f9      	beq.n	20070080 <efc_perform_fcr+0x4>

	return (ul_status & EEFC_ERROR_FLAGS);
2007008c:	9801      	ldr	r0, [sp, #4]
}
2007008e:	f000 0006 	and.w	r0, r0, #6
20070092:	b002      	add	sp, #8
20070094:	4770      	bx	lr
20070096:	bf00      	nop

20070098 <SystemInit>:
	EFC0->EEFC_FMR = EEFC_FMR_FWS(4);
20070098:	f44f 6380 	mov.w	r3, #1024	; 0x400
2007009c:	4a20      	ldr	r2, [pc, #128]	; (20070120 <SystemInit+0x88>)
2007009e:	6013      	str	r3, [r2, #0]
	EFC1->EEFC_FMR = EEFC_FMR_FWS(4);
200700a0:	f502 7200 	add.w	r2, r2, #512	; 0x200
200700a4:	6013      	str	r3, [r2, #0]
	if (!(PMC->CKGR_MOR & CKGR_MOR_MOSCSEL)) {
200700a6:	4b1f      	ldr	r3, [pc, #124]	; (20070124 <SystemInit+0x8c>)
200700a8:	6a1b      	ldr	r3, [r3, #32]
200700aa:	f013 7f80 	tst.w	r3, #16777216	; 0x1000000
200700ae:	d107      	bne.n	200700c0 <SystemInit+0x28>
		PMC->CKGR_MOR = SYS_CKGR_MOR_KEY_VALUE | SYS_BOARD_OSCOUNT | 
200700b0:	4a1d      	ldr	r2, [pc, #116]	; (20070128 <SystemInit+0x90>)
200700b2:	4b1c      	ldr	r3, [pc, #112]	; (20070124 <SystemInit+0x8c>)
200700b4:	621a      	str	r2, [r3, #32]
		while (!(PMC->PMC_SR & PMC_SR_MOSCXTS)) {
200700b6:	461a      	mov	r2, r3
200700b8:	6e93      	ldr	r3, [r2, #104]	; 0x68
200700ba:	f013 0f01 	tst.w	r3, #1
200700be:	d0fb      	beq.n	200700b8 <SystemInit+0x20>
	PMC->CKGR_MOR = SYS_CKGR_MOR_KEY_VALUE | SYS_BOARD_OSCOUNT | 
200700c0:	4a1a      	ldr	r2, [pc, #104]	; (2007012c <SystemInit+0x94>)
200700c2:	4b18      	ldr	r3, [pc, #96]	; (20070124 <SystemInit+0x8c>)
200700c4:	621a      	str	r2, [r3, #32]
	while (!(PMC->PMC_SR & PMC_SR_MOSCSELS)) {
200700c6:	461a      	mov	r2, r3
200700c8:	6e93      	ldr	r3, [r2, #104]	; 0x68
200700ca:	f413 3f80 	tst.w	r3, #65536	; 0x10000
200700ce:	d0fb      	beq.n	200700c8 <SystemInit+0x30>
 	PMC->PMC_MCKR = (PMC->PMC_MCKR & ~(uint32_t)PMC_MCKR_CSS_Msk) | 
200700d0:	4a14      	ldr	r2, [pc, #80]	; (20070124 <SystemInit+0x8c>)
200700d2:	6b13      	ldr	r3, [r2, #48]	; 0x30
200700d4:	f023 0303 	bic.w	r3, r3, #3
200700d8:	f043 0301 	orr.w	r3, r3, #1
200700dc:	6313      	str	r3, [r2, #48]	; 0x30
	while (!(PMC->PMC_SR & PMC_SR_MCKRDY)) {
200700de:	6e93      	ldr	r3, [r2, #104]	; 0x68
200700e0:	f013 0f08 	tst.w	r3, #8
200700e4:	d0fb      	beq.n	200700de <SystemInit+0x46>
	PMC->CKGR_PLLAR = SYS_BOARD_PLLAR;
200700e6:	4a12      	ldr	r2, [pc, #72]	; (20070130 <SystemInit+0x98>)
200700e8:	4b0e      	ldr	r3, [pc, #56]	; (20070124 <SystemInit+0x8c>)
200700ea:	629a      	str	r2, [r3, #40]	; 0x28
	while (!(PMC->PMC_SR & PMC_SR_LOCKA)) {
200700ec:	461a      	mov	r2, r3
200700ee:	6e93      	ldr	r3, [r2, #104]	; 0x68
200700f0:	f013 0f02 	tst.w	r3, #2
200700f4:	d0fb      	beq.n	200700ee <SystemInit+0x56>
	PMC->PMC_MCKR = (SYS_BOARD_MCKR & ~PMC_MCKR_CSS_Msk) | PMC_MCKR_CSS_MAIN_CLK;
200700f6:	2211      	movs	r2, #17
200700f8:	4b0a      	ldr	r3, [pc, #40]	; (20070124 <SystemInit+0x8c>)
200700fa:	631a      	str	r2, [r3, #48]	; 0x30
	while (!(PMC->PMC_SR & PMC_SR_MCKRDY)) {
200700fc:	461a      	mov	r2, r3
200700fe:	6e93      	ldr	r3, [r2, #104]	; 0x68
20070100:	f013 0f08 	tst.w	r3, #8
20070104:	d0fb      	beq.n	200700fe <SystemInit+0x66>
	PMC->PMC_MCKR = SYS_BOARD_MCKR;
20070106:	2212      	movs	r2, #18
20070108:	4b06      	ldr	r3, [pc, #24]	; (20070124 <SystemInit+0x8c>)
2007010a:	631a      	str	r2, [r3, #48]	; 0x30
	while (!(PMC->PMC_SR & PMC_SR_MCKRDY)) {
2007010c:	461a      	mov	r2, r3
2007010e:	6e93      	ldr	r3, [r2, #104]	; 0x68
20070110:	f013 0f08 	tst.w	r3, #8
20070114:	d0fb      	beq.n	2007010e <SystemInit+0x76>
	SystemCoreClock = CHIP_FREQ_CPU_MAX;
20070116:	4a07      	ldr	r2, [pc, #28]	; (20070134 <SystemInit+0x9c>)
20070118:	4b07      	ldr	r3, [pc, #28]	; (20070138 <SystemInit+0xa0>)
2007011a:	601a      	str	r2, [r3, #0]
2007011c:	4770      	bx	lr
2007011e:	bf00      	nop
20070120:	400e0a00 	.word	0x400e0a00
20070124:	400e0600 	.word	0x400e0600
20070128:	00370809 	.word	0x00370809
2007012c:	01370809 	.word	0x01370809
20070130:	200d3f01 	.word	0x200d3f01
20070134:	0501bd00 	.word	0x0501bd00
20070138:	200704e4 	.word	0x200704e4

2007013c <system_init_flash>:
__no_inline
RAMFUNC
void system_init_flash(uint32_t ul_clk)
{
	/* Set FWS for embedded Flash access according to operating frequency */
	if (ul_clk < CHIP_FREQ_FWS_0) {
2007013c:	4b1b      	ldr	r3, [pc, #108]	; (200701ac <system_init_flash+0x70>)
2007013e:	4298      	cmp	r0, r3
20070140:	d915      	bls.n	2007016e <system_init_flash+0x32>
		EFC0->EEFC_FMR = EEFC_FMR_FWS(0);
		EFC1->EEFC_FMR = EEFC_FMR_FWS(0);
	} else if (ul_clk < CHIP_FREQ_FWS_1) {
20070142:	4b1b      	ldr	r3, [pc, #108]	; (200701b0 <system_init_flash+0x74>)
20070144:	4298      	cmp	r0, r3
20070146:	d919      	bls.n	2007017c <system_init_flash+0x40>
		EFC0->EEFC_FMR = EEFC_FMR_FWS(1);
		EFC1->EEFC_FMR = EEFC_FMR_FWS(1);
	} else if (ul_clk < CHIP_FREQ_FWS_2) {
20070148:	4b1a      	ldr	r3, [pc, #104]	; (200701b4 <system_init_flash+0x78>)
2007014a:	4298      	cmp	r0, r3
2007014c:	d91e      	bls.n	2007018c <system_init_flash+0x50>
		EFC0->EEFC_FMR = EEFC_FMR_FWS(2);
		EFC1->EEFC_FMR = EEFC_FMR_FWS(2);
	} else if (ul_clk < CHIP_FREQ_FWS_3) {
2007014e:	4b1a      	ldr	r3, [pc, #104]	; (200701b8 <system_init_flash+0x7c>)
20070150:	4298      	cmp	r0, r3
20070152:	d923      	bls.n	2007019c <system_init_flash+0x60>
		EFC0->EEFC_FMR = EEFC_FMR_FWS(3);
		EFC1->EEFC_FMR = EEFC_FMR_FWS(3);
	} else if (ul_clk < CHIP_FREQ_FWS_4) {
20070154:	4b19      	ldr	r3, [pc, #100]	; (200701bc <system_init_flash+0x80>)
20070156:	4298      	cmp	r0, r3
		EFC0->EEFC_FMR = EEFC_FMR_FWS(4);
20070158:	bf94      	ite	ls
2007015a:	f44f 6380 	movls.w	r3, #1024	; 0x400
		EFC1->EEFC_FMR = EEFC_FMR_FWS(4);	
	} else {
		EFC0->EEFC_FMR = EEFC_FMR_FWS(5);
2007015e:	f44f 63a0 	movhi.w	r3, #1280	; 0x500
20070162:	4a17      	ldr	r2, [pc, #92]	; (200701c0 <system_init_flash+0x84>)
20070164:	6013      	str	r3, [r2, #0]
		EFC1->EEFC_FMR = EEFC_FMR_FWS(5);
20070166:	f502 7200 	add.w	r2, r2, #512	; 0x200
2007016a:	6013      	str	r3, [r2, #0]
2007016c:	4770      	bx	lr
		EFC0->EEFC_FMR = EEFC_FMR_FWS(0);
2007016e:	2300      	movs	r3, #0
20070170:	4a13      	ldr	r2, [pc, #76]	; (200701c0 <system_init_flash+0x84>)
20070172:	6013      	str	r3, [r2, #0]
		EFC1->EEFC_FMR = EEFC_FMR_FWS(0);
20070174:	f502 7200 	add.w	r2, r2, #512	; 0x200
20070178:	6013      	str	r3, [r2, #0]
2007017a:	4770      	bx	lr
		EFC0->EEFC_FMR = EEFC_FMR_FWS(1);
2007017c:	f44f 7380 	mov.w	r3, #256	; 0x100
20070180:	4a0f      	ldr	r2, [pc, #60]	; (200701c0 <system_init_flash+0x84>)
20070182:	6013      	str	r3, [r2, #0]
		EFC1->EEFC_FMR = EEFC_FMR_FWS(1);
20070184:	f502 7200 	add.w	r2, r2, #512	; 0x200
20070188:	6013      	str	r3, [r2, #0]
2007018a:	4770      	bx	lr
		EFC0->EEFC_FMR = EEFC_FMR_FWS(2);
2007018c:	f44f 7300 	mov.w	r3, #512	; 0x200
20070190:	4a0b      	ldr	r2, [pc, #44]	; (200701c0 <system_init_flash+0x84>)
20070192:	6013      	str	r3, [r2, #0]
		EFC1->EEFC_FMR = EEFC_FMR_FWS(2);
20070194:	f502 7200 	add.w	r2, r2, #512	; 0x200
20070198:	6013      	str	r3, [r2, #0]
2007019a:	4770      	bx	lr
		EFC0->EEFC_FMR = EEFC_FMR_FWS(3);
2007019c:	f44f 7340 	mov.w	r3, #768	; 0x300
200701a0:	4a07      	ldr	r2, [pc, #28]	; (200701c0 <system_init_flash+0x84>)
200701a2:	6013      	str	r3, [r2, #0]
		EFC1->EEFC_FMR = EEFC_FMR_FWS(3);
200701a4:	f502 7200 	add.w	r2, r2, #512	; 0x200
200701a8:	6013      	str	r3, [r2, #0]
200701aa:	4770      	bx	lr
200701ac:	0121eabf 	.word	0x0121eabf
200701b0:	02faf07f 	.word	0x02faf07f
200701b4:	03d08fff 	.word	0x03d08fff
200701b8:	04c4b3ff 	.word	0x04c4b3ff
200701bc:	055d4a7f 	.word	0x055d4a7f
200701c0:	400e0a00 	.word	0x400e0a00

200701c4 <ADC_Handler>:

__no_inline
RAMFUNC
ISR(ADC_Handler)
{	
	if(ADC->ADC_ISR & ADC_ISR_EOC0)
200701c4:	4b91      	ldr	r3, [pc, #580]	; (2007040c <ADC_Handler+0x248>)
200701c6:	6b1b      	ldr	r3, [r3, #48]	; 0x30
200701c8:	f013 0f01 	tst.w	r3, #1
200701cc:	d100      	bne.n	200701d0 <ADC_Handler+0xc>
200701ce:	4770      	bx	lr
{	
200701d0:	b570      	push	{r4, r5, r6, lr}
		//float Inp;
		//pio_set_pin_high(LED2_GPIO); //for real time debug	
		uint32_t OutDataToDAC0;
		uint32_t OutDataToDAC1;
		uint32_t Energy;
		pio_set_pin_high(PIO_PA7_IDX);
200701d2:	2007      	movs	r0, #7
200701d4:	4b8e      	ldr	r3, [pc, #568]	; (20070410 <ADC_Handler+0x24c>)
200701d6:	4798      	blx	r3
		Data = ADC->ADC_CDR[0]-MAX_ADC/2;
200701d8:	4b8c      	ldr	r3, [pc, #560]	; (2007040c <ADC_Handler+0x248>)
200701da:	6d19      	ldr	r1, [r3, #80]	; 0x50
200701dc:	f5a1 6100 	sub.w	r1, r1, #2048	; 0x800
200701e0:	4c8c      	ldr	r4, [pc, #560]	; (20070414 <ADC_Handler+0x250>)
200701e2:	6021      	str	r1, [r4, #0]
		
		Energy = FIFO2_Insert(&WaveArray, Data);
200701e4:	488c      	ldr	r0, [pc, #560]	; (20070418 <ADC_Handler+0x254>)
200701e6:	4b8d      	ldr	r3, [pc, #564]	; (2007041c <ADC_Handler+0x258>)
200701e8:	4798      	blx	r3

void FIFO_Init(XFifo* Fifo );

inline void FIFO_Insert(XFifo* Fifo, int32_t input)
{
	Fifo->Data[Fifo->WriteInx] = input;
200701ea:	4a8d      	ldr	r2, [pc, #564]	; (20070420 <ADC_Handler+0x25c>)
200701ec:	6813      	ldr	r3, [r2, #0]
200701ee:	eb02 0183 	add.w	r1, r2, r3, lsl #2
200701f2:	6824      	ldr	r4, [r4, #0]
200701f4:	60cc      	str	r4, [r1, #12]
	Fifo->WriteInx = Fifo->WriteInx + 1;
200701f6:	3301      	adds	r3, #1
200701f8:	6013      	str	r3, [r2, #0]
	if(Fifo->WriteInx == 3)
200701fa:	2b03      	cmp	r3, #3
200701fc:	d007      	beq.n	2007020e <ADC_Handler+0x4a>


inline int32_t FIFO_Filter(XFifo* Fifo)
{
	int32_t Xn,Xnp,Xnpp;	
	switch(Fifo->WriteInx)
200701fe:	b14b      	cbz	r3, 20070214 <ADC_Handler+0x50>
20070200:	2b01      	cmp	r3, #1
20070202:	d014      	beq.n	2007022e <ADC_Handler+0x6a>
		Xn = Fifo->Data[0];
		Xnp = Fifo->Data[2];
		Xnpp = Fifo->Data[1];
		break;
		default: // 2
		Xn = Fifo->Data[1];
20070204:	4b86      	ldr	r3, [pc, #536]	; (20070420 <ADC_Handler+0x25c>)
20070206:	6919      	ldr	r1, [r3, #16]
		Xnp = Fifo->Data[0];
20070208:	68dc      	ldr	r4, [r3, #12]
		Xnpp = Fifo->Data[2];
2007020a:	695b      	ldr	r3, [r3, #20]
2007020c:	e006      	b.n	2007021c <ADC_Handler+0x58>
		Fifo->WriteInx = 0;
2007020e:	2200      	movs	r2, #0
20070210:	4b83      	ldr	r3, [pc, #524]	; (20070420 <ADC_Handler+0x25c>)
20070212:	601a      	str	r2, [r3, #0]
		Xn = Fifo->Data[2];
20070214:	4b82      	ldr	r3, [pc, #520]	; (20070420 <ADC_Handler+0x25c>)
20070216:	6959      	ldr	r1, [r3, #20]
		Xnp = Fifo->Data[1];
20070218:	691c      	ldr	r4, [r3, #16]
		Xnpp = Fifo->Data[0];
2007021a:	68db      	ldr	r3, [r3, #12]
	switch(Fifo->WriteIndxY)
2007021c:	4a80      	ldr	r2, [pc, #512]	; (20070420 <ADC_Handler+0x25c>)
2007021e:	6892      	ldr	r2, [r2, #8]
20070220:	b152      	cbz	r2, 20070238 <ADC_Handler+0x74>
20070222:	2a01      	cmp	r2, #1
20070224:	d034      	beq.n	20070290 <ADC_Handler+0xcc>
		Yp = Fifo->FilterY[1];
20070226:	4d7e      	ldr	r5, [pc, #504]	; (20070420 <ADC_Handler+0x25c>)
20070228:	69ee      	ldr	r6, [r5, #28]
		Ypp = Fifo->FilterY[0];
2007022a:	69ad      	ldr	r5, [r5, #24]
2007022c:	e007      	b.n	2007023e <ADC_Handler+0x7a>
		Xn = Fifo->Data[0];
2007022e:	4b7c      	ldr	r3, [pc, #496]	; (20070420 <ADC_Handler+0x25c>)
20070230:	68d9      	ldr	r1, [r3, #12]
		Xnp = Fifo->Data[2];
20070232:	695c      	ldr	r4, [r3, #20]
		Xnpp = Fifo->Data[1];
20070234:	691b      	ldr	r3, [r3, #16]
20070236:	e7f1      	b.n	2007021c <ADC_Handler+0x58>
		Yp = Fifo->FilterY[2];
20070238:	4d79      	ldr	r5, [pc, #484]	; (20070420 <ADC_Handler+0x25c>)
2007023a:	6a2e      	ldr	r6, [r5, #32]
		Ypp = Fifo->FilterY[1];
2007023c:	69ed      	ldr	r5, [r5, #28]
	Out = (Xn*BETA_MUL2_Q - 2*BETA_MUL2_Q*Xnp + BETA_MUL2_Q*Xnpp + Fifo->BetaMul2Q*Yp - Ypp*BETA_MUL2_Q)*(Fifo->BetaSQRTInvQ); // The second order filter HPF*/
2007023e:	eba1 0144 	sub.w	r1, r1, r4, lsl #1
20070242:	4419      	add	r1, r3
20070244:	4c76      	ldr	r4, [pc, #472]	; (20070420 <ADC_Handler+0x25c>)
20070246:	6b63      	ldr	r3, [r4, #52]	; 0x34
20070248:	fb03 f306 	mul.w	r3, r3, r6
2007024c:	eb03 1301 	add.w	r3, r3, r1, lsl #4
20070250:	eba3 1305 	sub.w	r3, r3, r5, lsl #4
20070254:	6ba1      	ldr	r1, [r4, #56]	; 0x38
20070256:	fb01 f303 	mul.w	r3, r1, r3
	Fifo->FilterY[Fifo->WriteIndxY] = input;
2007025a:	1d91      	adds	r1, r2, #6
	FIFO_YInsert(Fifo, (Out>>(4+13)) );
2007025c:	145d      	asrs	r5, r3, #17
	Fifo->FilterY[Fifo->WriteIndxY] = input;
2007025e:	f844 5021 	str.w	r5, [r4, r1, lsl #2]
	Fifo->WriteIndxY = Fifo->WriteIndxY + 1;
20070262:	3201      	adds	r2, #1
	if(Fifo->WriteIndxY == 3)
20070264:	2a03      	cmp	r2, #3
20070266:	d017      	beq.n	20070298 <ADC_Handler+0xd4>
	Fifo->WriteIndxY = Fifo->WriteIndxY + 1;
20070268:	60a2      	str	r2, [r4, #8]
		FIFO_Insert(&Fifo,Data);
		OutData = FIFO_Filter(&Fifo);
		OutData = abs(OutData);
2007026a:	2b00      	cmp	r3, #0
2007026c:	bfb8      	it	lt
2007026e:	425b      	neglt	r3, r3
20070270:	4a6c      	ldr	r2, [pc, #432]	; (20070424 <ADC_Handler+0x260>)
20070272:	6013      	str	r3, [r2, #0]
		//SoundSum = FIFO2_Insert(&Fifo2p1, OutData);		
		//FIFO2_Insert(&fifoDebug,SoundSum);
		switch(FilterState)		
20070274:	4a6c      	ldr	r2, [pc, #432]	; (20070428 <ADC_Handler+0x264>)
20070276:	6812      	ldr	r2, [r2, #0]
20070278:	2a06      	cmp	r2, #6
2007027a:	f200 80f8 	bhi.w	2007046e <ADC_Handler+0x2aa>
2007027e:	e8df f012 	tbh	[pc, r2, lsl #1]
20070282:	000f      	.short	0x000f
20070284:	00580031 	.word	0x00580031
20070288:	00b00074 	.word	0x00b00074
2007028c:	010c00eb 	.word	0x010c00eb
		Yp = Fifo->FilterY[0];
20070290:	4d63      	ldr	r5, [pc, #396]	; (20070420 <ADC_Handler+0x25c>)
20070292:	69ae      	ldr	r6, [r5, #24]
		Ypp = Fifo->FilterY[2];
20070294:	6a2d      	ldr	r5, [r5, #32]
20070296:	e7d2      	b.n	2007023e <ADC_Handler+0x7a>
		Fifo->WriteIndxY = 0;
20070298:	2100      	movs	r1, #0
2007029a:	4a61      	ldr	r2, [pc, #388]	; (20070420 <ADC_Handler+0x25c>)
2007029c:	6091      	str	r1, [r2, #8]
2007029e:	e7e4      	b.n	2007026a <ADC_Handler+0xa6>
		{
			case 0:
				SecondDetVal = 0;
200702a0:	2200      	movs	r2, #0
200702a2:	4962      	ldr	r1, [pc, #392]	; (2007042c <ADC_Handler+0x268>)
200702a4:	600a      	str	r2, [r1, #0]
				FirstDetVal = 0;
200702a6:	4962      	ldr	r1, [pc, #392]	; (20070430 <ADC_Handler+0x26c>)
200702a8:	600a      	str	r2, [r1, #0]
				MaxEnergy = 0;
200702aa:	4962      	ldr	r1, [pc, #392]	; (20070434 <ADC_Handler+0x270>)
200702ac:	600a      	str	r2, [r1, #0]
				if(OutData>MaxAllowedFirstVal)
200702ae:	4a62      	ldr	r2, [pc, #392]	; (20070438 <ADC_Handler+0x274>)
200702b0:	6812      	ldr	r2, [r2, #0]
200702b2:	4293      	cmp	r3, r2
200702b4:	d906      	bls.n	200702c4 <ADC_Handler+0x100>
				{
					FilterState = 5;
200702b6:	2205      	movs	r2, #5
200702b8:	4b5b      	ldr	r3, [pc, #364]	; (20070428 <ADC_Handler+0x264>)
200702ba:	601a      	str	r2, [r3, #0]
					delay = 0;
200702bc:	2200      	movs	r2, #0
200702be:	4b5f      	ldr	r3, [pc, #380]	; (2007043c <ADC_Handler+0x278>)
200702c0:	601a      	str	r2, [r3, #0]
200702c2:	e0d4      	b.n	2007046e <ADC_Handler+0x2aa>
				}
				else if(OutData>Threshold)
200702c4:	4a5e      	ldr	r2, [pc, #376]	; (20070440 <ADC_Handler+0x27c>)
200702c6:	6812      	ldr	r2, [r2, #0]
200702c8:	4293      	cmp	r3, r2
200702ca:	f240 80d0 	bls.w	2007046e <ADC_Handler+0x2aa>
				{
					//Det_flag = 1;
					//adc_disable_interrupt(ADC,ADC_IER_EOC0);;
					FirstDetVal = OutData;
200702ce:	4a58      	ldr	r2, [pc, #352]	; (20070430 <ADC_Handler+0x26c>)
200702d0:	6013      	str	r3, [r2, #0]
					MaxEnergy = Energy;
200702d2:	4b58      	ldr	r3, [pc, #352]	; (20070434 <ADC_Handler+0x270>)
200702d4:	6018      	str	r0, [r3, #0]
					FilterState = 1;
200702d6:	2201      	movs	r2, #1
200702d8:	4b53      	ldr	r3, [pc, #332]	; (20070428 <ADC_Handler+0x264>)
200702da:	601a      	str	r2, [r3, #0]
					delay = 0;					
200702dc:	2200      	movs	r2, #0
200702de:	4b57      	ldr	r3, [pc, #348]	; (2007043c <ADC_Handler+0x278>)
200702e0:	601a      	str	r2, [r3, #0]
200702e2:	e0c4      	b.n	2007046e <ADC_Handler+0x2aa>
				}	
			break;
			
			case 1:
				if(OutData>MaxAllowedFirstVal)
200702e4:	4a54      	ldr	r2, [pc, #336]	; (20070438 <ADC_Handler+0x274>)
200702e6:	6812      	ldr	r2, [r2, #0]
200702e8:	4293      	cmp	r3, r2
200702ea:	d90d      	bls.n	20070308 <ADC_Handler+0x144>
				{
					FilterState = 5;
200702ec:	2205      	movs	r2, #5
200702ee:	4b4e      	ldr	r3, [pc, #312]	; (20070428 <ADC_Handler+0x264>)
200702f0:	601a      	str	r2, [r3, #0]
					delay = 0;
200702f2:	2200      	movs	r2, #0
200702f4:	4b51      	ldr	r3, [pc, #324]	; (2007043c <ADC_Handler+0x278>)
200702f6:	601a      	str	r2, [r3, #0]
					{
						FilterState = 2;
						delay = 0;
					}
				}
				if(Energy > MaxEnergy)
200702f8:	4b4e      	ldr	r3, [pc, #312]	; (20070434 <ADC_Handler+0x270>)
200702fa:	681b      	ldr	r3, [r3, #0]
200702fc:	4298      	cmp	r0, r3
200702fe:	f240 80b6 	bls.w	2007046e <ADC_Handler+0x2aa>
					MaxEnergy = Energy;
20070302:	4b4c      	ldr	r3, [pc, #304]	; (20070434 <ADC_Handler+0x270>)
20070304:	6018      	str	r0, [r3, #0]
20070306:	e0b2      	b.n	2007046e <ADC_Handler+0x2aa>
					if(FirstDetVal<(OutData))
20070308:	4a49      	ldr	r2, [pc, #292]	; (20070430 <ADC_Handler+0x26c>)
2007030a:	6812      	ldr	r2, [r2, #0]
2007030c:	4293      	cmp	r3, r2
						FirstDetVal	= OutData; // finding the max FirstDetVal					
2007030e:	bfc4      	itt	gt
20070310:	4a47      	ldrgt	r2, [pc, #284]	; (20070430 <ADC_Handler+0x26c>)
20070312:	6013      	strgt	r3, [r2, #0]
					delay++;
20070314:	4a49      	ldr	r2, [pc, #292]	; (2007043c <ADC_Handler+0x278>)
20070316:	6813      	ldr	r3, [r2, #0]
20070318:	3301      	adds	r3, #1
2007031a:	6013      	str	r3, [r2, #0]
					if(delay>=2600)
2007031c:	f640 2227 	movw	r2, #2599	; 0xa27
20070320:	4293      	cmp	r3, r2
20070322:	d9e9      	bls.n	200702f8 <ADC_Handler+0x134>
						FilterState = 2;
20070324:	2202      	movs	r2, #2
20070326:	4b40      	ldr	r3, [pc, #256]	; (20070428 <ADC_Handler+0x264>)
20070328:	601a      	str	r2, [r3, #0]
						delay = 0;
2007032a:	2200      	movs	r2, #0
2007032c:	4b43      	ldr	r3, [pc, #268]	; (2007043c <ADC_Handler+0x278>)
2007032e:	601a      	str	r2, [r3, #0]
20070330:	e7e2      	b.n	200702f8 <ADC_Handler+0x134>
			break;
				
			case 2:
				if(OutData>FirstDetVal)
20070332:	4a3f      	ldr	r2, [pc, #252]	; (20070430 <ADC_Handler+0x26c>)
20070334:	6812      	ldr	r2, [r2, #0]
20070336:	4293      	cmp	r3, r2
20070338:	dd06      	ble.n	20070348 <ADC_Handler+0x184>
				{
					FilterState = 5;
2007033a:	2205      	movs	r2, #5
2007033c:	4b3a      	ldr	r3, [pc, #232]	; (20070428 <ADC_Handler+0x264>)
2007033e:	601a      	str	r2, [r3, #0]
					delay = 0;
20070340:	2200      	movs	r2, #0
20070342:	4b3e      	ldr	r3, [pc, #248]	; (2007043c <ADC_Handler+0x278>)
20070344:	601a      	str	r2, [r3, #0]
20070346:	e092      	b.n	2007046e <ADC_Handler+0x2aa>
				}				
				else if(delay<9000)
20070348:	4b3c      	ldr	r3, [pc, #240]	; (2007043c <ADC_Handler+0x278>)
2007034a:	681b      	ldr	r3, [r3, #0]
2007034c:	f242 3227 	movw	r2, #8999	; 0x2327
20070350:	4293      	cmp	r3, r2
20070352:	d803      	bhi.n	2007035c <ADC_Handler+0x198>
				{
					delay++;
20070354:	3301      	adds	r3, #1
20070356:	4a39      	ldr	r2, [pc, #228]	; (2007043c <ADC_Handler+0x278>)
20070358:	6013      	str	r3, [r2, #0]
2007035a:	e088      	b.n	2007046e <ADC_Handler+0x2aa>
				}
				else
				{
					FilterState = 3;
2007035c:	2203      	movs	r2, #3
2007035e:	4b32      	ldr	r3, [pc, #200]	; (20070428 <ADC_Handler+0x264>)
20070360:	601a      	str	r2, [r3, #0]
					delay = 0;
20070362:	2200      	movs	r2, #0
20070364:	4b35      	ldr	r3, [pc, #212]	; (2007043c <ADC_Handler+0x278>)
20070366:	601a      	str	r2, [r3, #0]
20070368:	e081      	b.n	2007046e <ADC_Handler+0x2aa>
				}				
			break;
			
			case 3:
				if(delay<10000)
2007036a:	4a34      	ldr	r2, [pc, #208]	; (2007043c <ADC_Handler+0x278>)
2007036c:	6812      	ldr	r2, [r2, #0]
2007036e:	f242 710f 	movw	r1, #9999	; 0x270f
20070372:	428a      	cmp	r2, r1
20070374:	d809      	bhi.n	2007038a <ADC_Handler+0x1c6>
				{
					delay++;
20070376:	3201      	adds	r2, #1
20070378:	4930      	ldr	r1, [pc, #192]	; (2007043c <ADC_Handler+0x278>)
2007037a:	600a      	str	r2, [r1, #0]
					if(SecondDetVal<OutData)					
2007037c:	4a2b      	ldr	r2, [pc, #172]	; (2007042c <ADC_Handler+0x268>)
2007037e:	6812      	ldr	r2, [r2, #0]
20070380:	4293      	cmp	r3, r2
20070382:	dd74      	ble.n	2007046e <ADC_Handler+0x2aa>
						SecondDetVal = OutData;
20070384:	4a29      	ldr	r2, [pc, #164]	; (2007042c <ADC_Handler+0x268>)
20070386:	6013      	str	r3, [r2, #0]
20070388:	e071      	b.n	2007046e <ADC_Handler+0x2aa>
				}
				else
				{
					if( ((SecondDetVal/5)<=(FirstDetVal/2)) && ((SecondDetVal/126)>=(FirstDetVal/100)) )  //last working value = 1.25
2007038a:	4b28      	ldr	r3, [pc, #160]	; (2007042c <ADC_Handler+0x268>)
2007038c:	681b      	ldr	r3, [r3, #0]
2007038e:	4a28      	ldr	r2, [pc, #160]	; (20070430 <ADC_Handler+0x26c>)
20070390:	6812      	ldr	r2, [r2, #0]
20070392:	482c      	ldr	r0, [pc, #176]	; (20070444 <ADC_Handler+0x280>)
20070394:	fb80 1003 	smull	r1, r0, r0, r3
20070398:	17d9      	asrs	r1, r3, #31
2007039a:	ebc1 0160 	rsb	r1, r1, r0, asr #1
2007039e:	eb02 70d2 	add.w	r0, r2, r2, lsr #31
200703a2:	ebb1 0f60 	cmp.w	r1, r0, asr #1
200703a6:	dc15      	bgt.n	200703d4 <ADC_Handler+0x210>
200703a8:	4927      	ldr	r1, [pc, #156]	; (20070448 <ADC_Handler+0x284>)
200703aa:	fb81 0103 	smull	r0, r1, r1, r3
200703ae:	4419      	add	r1, r3
200703b0:	17db      	asrs	r3, r3, #31
200703b2:	ebc3 13a1 	rsb	r3, r3, r1, asr #6
200703b6:	4925      	ldr	r1, [pc, #148]	; (2007044c <ADC_Handler+0x288>)
200703b8:	fb81 0102 	smull	r0, r1, r1, r2
200703bc:	17d2      	asrs	r2, r2, #31
200703be:	ebc2 1261 	rsb	r2, r2, r1, asr #5
200703c2:	4293      	cmp	r3, r2
200703c4:	db06      	blt.n	200703d4 <ADC_Handler+0x210>
					{
						FilterState = 4;
200703c6:	2204      	movs	r2, #4
200703c8:	4b17      	ldr	r3, [pc, #92]	; (20070428 <ADC_Handler+0x264>)
200703ca:	601a      	str	r2, [r3, #0]
						delay = 0;
200703cc:	2200      	movs	r2, #0
200703ce:	4b1b      	ldr	r3, [pc, #108]	; (2007043c <ADC_Handler+0x278>)
200703d0:	601a      	str	r2, [r3, #0]
200703d2:	e04c      	b.n	2007046e <ADC_Handler+0x2aa>
					}
					else
					{
						FilterState = 5;
200703d4:	2205      	movs	r2, #5
200703d6:	4b14      	ldr	r3, [pc, #80]	; (20070428 <ADC_Handler+0x264>)
200703d8:	601a      	str	r2, [r3, #0]
						delay = 0;
200703da:	2200      	movs	r2, #0
200703dc:	4b17      	ldr	r3, [pc, #92]	; (2007043c <ADC_Handler+0x278>)
200703de:	601a      	str	r2, [r3, #0]
200703e0:	e045      	b.n	2007046e <ADC_Handler+0x2aa>
					}
				}				
			break;
			
			case 4:
				if(delay<250)
200703e2:	4b16      	ldr	r3, [pc, #88]	; (2007043c <ADC_Handler+0x278>)
200703e4:	681b      	ldr	r3, [r3, #0]
200703e6:	2bf9      	cmp	r3, #249	; 0xf9
200703e8:	d803      	bhi.n	200703f2 <ADC_Handler+0x22e>
				{
					delay++;					
200703ea:	3301      	adds	r3, #1
200703ec:	4a13      	ldr	r2, [pc, #76]	; (2007043c <ADC_Handler+0x278>)
200703ee:	6013      	str	r3, [r2, #0]
200703f0:	e03d      	b.n	2007046e <ADC_Handler+0x2aa>
				}
				else
				{
					Det_flag = 1;
200703f2:	2101      	movs	r1, #1
200703f4:	4b16      	ldr	r3, [pc, #88]	; (20070450 <ADC_Handler+0x28c>)
200703f6:	6019      	str	r1, [r3, #0]
					FilterState = 6;
200703f8:	2206      	movs	r2, #6
200703fa:	4b0b      	ldr	r3, [pc, #44]	; (20070428 <ADC_Handler+0x264>)
200703fc:	601a      	str	r2, [r3, #0]
					delay = 0;
200703fe:	2200      	movs	r2, #0
20070400:	4b0e      	ldr	r3, [pc, #56]	; (2007043c <ADC_Handler+0x278>)
20070402:	601a      	str	r2, [r3, #0]
					adc_disable_interrupt(ADC,ADC_IER_EOC0);
20070404:	4801      	ldr	r0, [pc, #4]	; (2007040c <ADC_Handler+0x248>)
20070406:	4b13      	ldr	r3, [pc, #76]	; (20070454 <ADC_Handler+0x290>)
20070408:	4798      	blx	r3
2007040a:	e030      	b.n	2007046e <ADC_Handler+0x2aa>
2007040c:	400c0000 	.word	0x400c0000
20070410:	000811d7 	.word	0x000811d7
20070414:	2007109c 	.word	0x2007109c
20070418:	20071074 	.word	0x20071074
2007041c:	000802e9 	.word	0x000802e9
20070420:	200710b4 	.word	0x200710b4
20070424:	20071038 	.word	0x20071038
20070428:	200704e8 	.word	0x200704e8
2007042c:	200710ac 	.word	0x200710ac
20070430:	200710a4 	.word	0x200710a4
20070434:	200710b0 	.word	0x200710b0
20070438:	200704ec 	.word	0x200704ec
2007043c:	200710a8 	.word	0x200710a8
20070440:	200704f0 	.word	0x200704f0
20070444:	66666667 	.word	0x66666667
20070448:	82082083 	.word	0x82082083
2007044c:	51eb851f 	.word	0x51eb851f
20070450:	20071034 	.word	0x20071034
20070454:	000801eb 	.word	0x000801eb
				}				
			break;
			
			case 5: // Noise state
				if(delay<150000) //3 seconds hold off due noise
20070458:	4b19      	ldr	r3, [pc, #100]	; (200704c0 <ADC_Handler+0x2fc>)
2007045a:	681b      	ldr	r3, [r3, #0]
2007045c:	4a19      	ldr	r2, [pc, #100]	; (200704c4 <ADC_Handler+0x300>)
2007045e:	4293      	cmp	r3, r2
				{					
					delay++;
20070460:	bf91      	iteee	ls
20070462:	3301      	addls	r3, #1
				}
				else
				{					
					FilterState = 0;
20070464:	2300      	movhi	r3, #0
20070466:	4a18      	ldrhi	r2, [pc, #96]	; (200704c8 <ADC_Handler+0x304>)
20070468:	6013      	strhi	r3, [r2, #0]
					delay = 0;
2007046a:	4a15      	ldr	r2, [pc, #84]	; (200704c0 <ADC_Handler+0x2fc>)
2007046c:	6013      	str	r3, [r2, #0]
				break;
			default:break;
			
		}	
		//pio_set_pin_low(LED2_GPIO);// for real time debug
		if(!pio_get_pin_value(PIO_PA15_IDX))
2007046e:	200f      	movs	r0, #15
20070470:	4b16      	ldr	r3, [pc, #88]	; (200704cc <ADC_Handler+0x308>)
20070472:	4798      	blx	r3
20070474:	b9f0      	cbnz	r0, 200704b4 <ADC_Handler+0x2f0>
		{
			OutDataToDAC0  = (FirstDetVal>>9)&0xfff;			
20070476:	4b16      	ldr	r3, [pc, #88]	; (200704d0 <ADC_Handler+0x30c>)
20070478:	6818      	ldr	r0, [r3, #0]
2007047a:	f3c0 204b 	ubfx	r0, r0, #9, #12
			//OutDataToDAC1  = ((SecondDetVal>>9)&0xfff)|(1<<12);			
			OutDataToDAC1 = ((MaxEnergy >> 18)&0xfff)|(1<<12);
2007047e:	4b15      	ldr	r3, [pc, #84]	; (200704d4 <ADC_Handler+0x310>)
20070480:	681c      	ldr	r4, [r3, #0]
20070482:	f3c4 448b 	ubfx	r4, r4, #18, #12
20070486:	f444 5480 	orr.w	r4, r4, #4096	; 0x1000
		{
			OutDataToDAC0 = MAX_SIGNAL<<(17-9);
			//OutDataToDAC1  = ((MAX_SIGNAL)<<(17-9))|(1<<12);
			OutDataToDAC1  = (1<<(28-18))|(1<<12);
		}
		DAC3X8E_write(OutDataToDAC0);
2007048a:	4d13      	ldr	r5, [pc, #76]	; (200704d8 <ADC_Handler+0x314>)
2007048c:	47a8      	blx	r5
		DAC3X8E_write(OutDataToDAC1);
2007048e:	4620      	mov	r0, r4
20070490:	47a8      	blx	r5
		pio_set_pin_low(PIO_PA7_IDX);
20070492:	2007      	movs	r0, #7
20070494:	4b11      	ldr	r3, [pc, #68]	; (200704dc <ADC_Handler+0x318>)
20070496:	4798      	blx	r3
20070498:	bd70      	pop	{r4, r5, r6, pc}
				if(delay<50000) //1 seconds to stable the filter
2007049a:	4b09      	ldr	r3, [pc, #36]	; (200704c0 <ADC_Handler+0x2fc>)
2007049c:	681b      	ldr	r3, [r3, #0]
2007049e:	f24c 324f 	movw	r2, #49999	; 0xc34f
200704a2:	4293      	cmp	r3, r2
					delay++;
200704a4:	bf91      	iteee	ls
200704a6:	3301      	addls	r3, #1
					FilterState = 0;
200704a8:	2300      	movhi	r3, #0
200704aa:	4a07      	ldrhi	r2, [pc, #28]	; (200704c8 <ADC_Handler+0x304>)
200704ac:	6013      	strhi	r3, [r2, #0]
					delay = 0;
200704ae:	4a04      	ldr	r2, [pc, #16]	; (200704c0 <ADC_Handler+0x2fc>)
200704b0:	6013      	str	r3, [r2, #0]
200704b2:	e7dc      	b.n	2007046e <ADC_Handler+0x2aa>
			OutDataToDAC1  = (1<<(28-18))|(1<<12);
200704b4:	f44f 54a0 	mov.w	r4, #5120	; 0x1400
			OutDataToDAC0 = MAX_SIGNAL<<(17-9);
200704b8:	f44f 6010 	mov.w	r0, #2304	; 0x900
200704bc:	e7e5      	b.n	2007048a <ADC_Handler+0x2c6>
200704be:	bf00      	nop
200704c0:	200710a8 	.word	0x200710a8
200704c4:	000249ef 	.word	0x000249ef
200704c8:	200704e8 	.word	0x200704e8
200704cc:	000811bb 	.word	0x000811bb
200704d0:	200710a4 	.word	0x200710a4
200704d4:	200710b0 	.word	0x200710b0
200704d8:	000803a5 	.word	0x000803a5
200704dc:	000811f1 	.word	0x000811f1

200704e0 <g_interrupt_enabled>:
200704e0:	00000001                                ....

200704e4 <SystemCoreClock>:
200704e4:	003d0900                                ..=.

200704e8 <FilterState>:
200704e8:	00000006                                ....

200704ec <MaxAllowedFirstVal>:
200704ec:	ffffffff                                ....

200704f0 <Threshold>:
200704f0:	00000fa0                                ....

200704f4 <_impure_ptr>:
200704f4:	200704f8                                ... 

200704f8 <impure_data>:
200704f8:	00000000 200707e4 2007084c 200708b4     ....... L.. ... 
	...
200705a0:	00000001 00000000 abcd330e e66d1234     .........3..4.m.
200705b0:	0005deec 0000000b 00000000 00000000     ................
	...

20070920 <__malloc_av_>:
	...
20070928:	20070920 20070920 20070928 20070928      ..  .. (.. (.. 
20070938:	20070930 20070930 20070938 20070938     0.. 0.. 8.. 8.. 
20070948:	20070940 20070940 20070948 20070948     @.. @.. H.. H.. 
20070958:	20070950 20070950 20070958 20070958     P.. P.. X.. X.. 
20070968:	20070960 20070960 20070968 20070968     `.. `.. h.. h.. 
20070978:	20070970 20070970 20070978 20070978     p.. p.. x.. x.. 
20070988:	20070980 20070980 20070988 20070988     ... ... ... ... 
20070998:	20070990 20070990 20070998 20070998     ... ... ... ... 
200709a8:	200709a0 200709a0 200709a8 200709a8     ... ... ... ... 
200709b8:	200709b0 200709b0 200709b8 200709b8     ... ... ... ... 
200709c8:	200709c0 200709c0 200709c8 200709c8     ... ... ... ... 
200709d8:	200709d0 200709d0 200709d8 200709d8     ... ... ... ... 
200709e8:	200709e0 200709e0 200709e8 200709e8     ... ... ... ... 
200709f8:	200709f0 200709f0 200709f8 200709f8     ... ... ... ... 
20070a08:	20070a00 20070a00 20070a08 20070a08     ... ... ... ... 
20070a18:	20070a10 20070a10 20070a18 20070a18     ... ... ... ... 
20070a28:	20070a20 20070a20 20070a28 20070a28      ..  .. (.. (.. 
20070a38:	20070a30 20070a30 20070a38 20070a38     0.. 0.. 8.. 8.. 
20070a48:	20070a40 20070a40 20070a48 20070a48     @.. @.. H.. H.. 
20070a58:	20070a50 20070a50 20070a58 20070a58     P.. P.. X.. X.. 
20070a68:	20070a60 20070a60 20070a68 20070a68     `.. `.. h.. h.. 
20070a78:	20070a70 20070a70 20070a78 20070a78     p.. p.. x.. x.. 
20070a88:	20070a80 20070a80 20070a88 20070a88     ... ... ... ... 
20070a98:	20070a90 20070a90 20070a98 20070a98     ... ... ... ... 
20070aa8:	20070aa0 20070aa0 20070aa8 20070aa8     ... ... ... ... 
20070ab8:	20070ab0 20070ab0 20070ab8 20070ab8     ... ... ... ... 
20070ac8:	20070ac0 20070ac0 20070ac8 20070ac8     ... ... ... ... 
20070ad8:	20070ad0 20070ad0 20070ad8 20070ad8     ... ... ... ... 
20070ae8:	20070ae0 20070ae0 20070ae8 20070ae8     ... ... ... ... 
20070af8:	20070af0 20070af0 20070af8 20070af8     ... ... ... ... 
20070b08:	20070b00 20070b00 20070b08 20070b08     ... ... ... ... 
20070b18:	20070b10 20070b10 20070b18 20070b18     ... ... ... ... 
20070b28:	20070b20 20070b20 20070b28 20070b28      ..  .. (.. (.. 
20070b38:	20070b30 20070b30 20070b38 20070b38     0.. 0.. 8.. 8.. 
20070b48:	20070b40 20070b40 20070b48 20070b48     @.. @.. H.. H.. 
20070b58:	20070b50 20070b50 20070b58 20070b58     P.. P.. X.. X.. 
20070b68:	20070b60 20070b60 20070b68 20070b68     `.. `.. h.. h.. 
20070b78:	20070b70 20070b70 20070b78 20070b78     p.. p.. x.. x.. 
20070b88:	20070b80 20070b80 20070b88 20070b88     ... ... ... ... 
20070b98:	20070b90 20070b90 20070b98 20070b98     ... ... ... ... 
20070ba8:	20070ba0 20070ba0 20070ba8 20070ba8     ... ... ... ... 
20070bb8:	20070bb0 20070bb0 20070bb8 20070bb8     ... ... ... ... 
20070bc8:	20070bc0 20070bc0 20070bc8 20070bc8     ... ... ... ... 
20070bd8:	20070bd0 20070bd0 20070bd8 20070bd8     ... ... ... ... 
20070be8:	20070be0 20070be0 20070be8 20070be8     ... ... ... ... 
20070bf8:	20070bf0 20070bf0 20070bf8 20070bf8     ... ... ... ... 
20070c08:	20070c00 20070c00 20070c08 20070c08     ... ... ... ... 
20070c18:	20070c10 20070c10 20070c18 20070c18     ... ... ... ... 
20070c28:	20070c20 20070c20 20070c28 20070c28      ..  .. (.. (.. 
20070c38:	20070c30 20070c30 20070c38 20070c38     0.. 0.. 8.. 8.. 
20070c48:	20070c40 20070c40 20070c48 20070c48     @.. @.. H.. H.. 
20070c58:	20070c50 20070c50 20070c58 20070c58     P.. P.. X.. X.. 
20070c68:	20070c60 20070c60 20070c68 20070c68     `.. `.. h.. h.. 
20070c78:	20070c70 20070c70 20070c78 20070c78     p.. p.. x.. x.. 
20070c88:	20070c80 20070c80 20070c88 20070c88     ... ... ... ... 
20070c98:	20070c90 20070c90 20070c98 20070c98     ... ... ... ... 
20070ca8:	20070ca0 20070ca0 20070ca8 20070ca8     ... ... ... ... 
20070cb8:	20070cb0 20070cb0 20070cb8 20070cb8     ... ... ... ... 
20070cc8:	20070cc0 20070cc0 20070cc8 20070cc8     ... ... ... ... 
20070cd8:	20070cd0 20070cd0 20070cd8 20070cd8     ... ... ... ... 
20070ce8:	20070ce0 20070ce0 20070ce8 20070ce8     ... ... ... ... 
20070cf8:	20070cf0 20070cf0 20070cf8 20070cf8     ... ... ... ... 
20070d08:	20070d00 20070d00 20070d08 20070d08     ... ... ... ... 
20070d18:	20070d10 20070d10 20070d18 20070d18     ... ... ... ... 

20070d28 <__malloc_sbrk_base>:
20070d28:	ffffffff                                ....

20070d2c <__malloc_trim_threshold>:
20070d2c:	00020000                                ....

20070d30 <__atexit_recursive_mutex>:
20070d30:	20071100                                ... 

20070d34 <__global_locale>:
20070d34:	00000043 00000000 00000000 00000000     C...............
	...
20070d54:	00000043 00000000 00000000 00000000     C...............
	...
20070d74:	00000043 00000000 00000000 00000000     C...............
	...
20070d94:	00000043 00000000 00000000 00000000     C...............
	...
20070db4:	00000043 00000000 00000000 00000000     C...............
	...
20070dd4:	00000043 00000000 00000000 00000000     C...............
	...
20070df4:	00000043 00000000 00000000 00000000     C...............
	...
20070e14:	00085549 00084969 00000000 000864fc     IU..iI.......d..
20070e24:	000863f8 00086340 00086340 00086340     .c..@c..@c..@c..
20070e34:	00086340 00086340 00086340 00086340     @c..@c..@c..@c..
20070e44:	00086340 00086340 ffffffff ffffffff     @c..@c..........
20070e54:	ffffffff 0000ffff 53410001 00494943     ..........ASCII.
	...
20070e7c:	53410000 00494943 00000000 00000000     ..ASCII.........
	...
